

Microchip Technology PIC18 LITE Macro Assembler V1.36 build -262312587 
                                                                                               Thu May  5 20:58:58 2016

Microchip Technology Omniscient Code Generator v1.36 (Free mode) build 201601150325
     1                           	processor	18F4585
     2                           	fnconf	rparam,??,?,0
     3                           	opt	pw 120
     4                           	opt	lm
     5                           	psect	idataCOMRAM,global,class=CODE,delta=1
     6                           	psect	idataBANK0,global,class=CODE,delta=1
     7                           	psect	smallconst,global,reloc=2,class=SMALLCONST,delta=1
     8                           	psect	cinit,global,reloc=2,class=CODE,delta=1
     9                           	psect	bssCOMRAM,global,class=COMRAM,space=1,delta=1
    10                           	psect	dataCOMRAM,global,class=COMRAM,space=1,delta=1
    11                           	psect	bssBANK0,global,class=BANK0,space=1,delta=1
    12                           	psect	dataBANK0,global,class=BANK0,space=1,delta=1
    13                           	psect	cstackBANK1,global,class=BANK1,space=1,delta=1
    14                           	psect	cstackBANK0,global,class=BANK0,space=1,delta=1
    15                           	psect	cstackCOMRAM,global,class=COMRAM,space=1,delta=1
    16                           	psect	text0,global,reloc=2,class=CODE,delta=1
    17                           	psect	text1,global,reloc=2,class=CODE,delta=1
    18                           	psect	text2,global,reloc=2,class=CODE,delta=1
    19                           	psect	text3,global,reloc=2,class=CODE,delta=1
    20                           	psect	text4,global,reloc=2,class=CODE,delta=1
    21                           	psect	text5,global,reloc=2,class=CODE,delta=1
    22                           	psect	text6,global,reloc=2,class=CODE,delta=1
    23                           	psect	text7,global,reloc=2,class=CODE,delta=1
    24                           	psect	text8,global,reloc=2,class=CODE,delta=1
    25                           	psect	text9,global,reloc=2,class=CODE,delta=1
    26                           	psect	text10,global,reloc=2,class=CODE,delta=1
    27                           	psect	text11,global,reloc=2,class=CODE,delta=1
    28                           	psect	text12,global,reloc=2,class=CODE,delta=1
    29                           	psect	text13,global,reloc=2,class=CODE,delta=1
    30                           	psect	text14,global,reloc=2,class=CODE,delta=1
    31                           	psect	text15,global,reloc=2,class=CODE,delta=1
    32                           	psect	text16,global,reloc=2,class=CODE,delta=1
    33                           	psect	text17,global,reloc=2,class=CODE,delta=1
    34                           	psect	text18,global,reloc=2,class=CODE,delta=1
    35                           	psect	text19,global,reloc=2,class=CODE,delta=1
    36                           	psect	text20,global,reloc=2,class=CODE,delta=1
    37                           	psect	text21,global,reloc=2,class=CODE,delta=1
    38                           	psect	text22,global,reloc=2,class=CODE,delta=1
    39                           	psect	text23,global,reloc=2,class=CODE,delta=1
    40                           	psect	text24,global,reloc=2,class=CODE,delta=1
    41                           	psect	text25,global,reloc=2,class=CODE,delta=1
    42                           	psect	text26,global,reloc=2,class=CODE,delta=1
    43                           	psect	text27,global,reloc=2,class=CODE,delta=1
    44                           	psect	intcodelo,global,reloc=2,class=CODE,delta=1
    45                           	psect	intcode,global,reloc=2,class=CODE,delta=1
    46                           	psect	intcode_body,global,reloc=2,class=CODE,delta=1
    47                           	psect	text30,global,reloc=2,class=CODE,delta=1
    48                           	psect	text31,global,reloc=2,class=CODE,delta=1
    49                           	psect	text32,global,reloc=2,class=CODE,delta=1
    50                           	psect	text33,global,reloc=2,class=CODE,delta=1
    51                           	psect	text34,global,reloc=2,class=CODE,delta=1
    52                           	psect	text35,global,reloc=2,class=CODE,delta=1
    53                           	psect	text36,global,reloc=2,class=CODE,delta=1
    54                           	psect	text37,global,reloc=2,class=CODE,delta=1
    55                           	psect	text38,global,reloc=2,class=CODE,delta=1
    56                           	psect	text39,global,reloc=2,class=CODE,delta=1
    57                           	psect	text40,global,reloc=2,class=CODE,delta=1
    58                           	psect	text41,global,reloc=2,class=CODE,delta=1
    59                           	psect	text42,global,reloc=2,class=CODE,delta=1
    60                           	psect	text43,global,reloc=2,class=CODE,delta=1
    61                           	psect	text44,global,reloc=2,class=CODE,delta=1
    62                           	psect	text45,global,reloc=2,class=CODE,delta=1
    63                           	psect	text46,global,reloc=2,class=CODE,delta=1
    64                           	psect	intsave_regs,global,class=BIGRAM,space=1,delta=1
    65                           	psect	rparam,global,class=COMRAM,space=1,delta=1
    66                           	psect	temp,global,ovrld,common,class=COMRAM,space=1,delta=1
    67  0000                     
    68                           	psect	idataCOMRAM
    69  001AFE                     __pidataCOMRAM:
    70                           	opt stack 0
    71                           
    72                           ;initializer for _humidityZn1Val
    73  001AFE  30                 	db	48
    74  001AFF  31                 	db	49
    75  001B00  00                 	db	0
    76                           
    77                           ;initializer for _humidityZn2Val
    78  001B01  30                 	db	48
    79  001B02  32                 	db	50
    80  001B03  00                 	db	0
    81                           
    82                           ;initializer for _humidityZn3Val
    83  001B04  30                 	db	48
    84  001B05  33                 	db	51
    85  001B06  00                 	db	0
    86                           
    87                           ;initializer for _counterDAYS
    88  001B07  30                 	db	48
    89                           
    90                           ;initializer for _counterSEC
    91  001B08  30                 	db	48
    92                           
    93                           ;initializer for _manualZn1Val
    94  001B09  31                 	db	49
    95                           
    96                           ;initializer for _manualZn2Val
    97  001B0A  31                 	db	49
    98                           
    99                           ;initializer for _manualZn3Val
   100  001B0B  31                 	db	49
   101                           
   102                           ;initializer for _time1Zn1
   103  001B0C  31                 	db	49
   104  001B0D  30                 	db	48
   105  001B0E  30                 	db	48
   106  001B0F  30                 	db	48
   107  001B10  00                 	db	0
   108                           
   109                           ;initializer for _time1Zn2
   110  001B11  31                 	db	49
   111  001B12  32                 	db	50
   112  001B13  30                 	db	48
   113  001B14  30                 	db	48
   114  001B15  00                 	db	0
   115                           
   116                           ;initializer for _time2Zn1
   117  001B16  24                 	db	36
   118  001B17  30                 	db	48
   119  001B18  32                 	db	50
   120  001B19  31                 	db	49
   121  001B1A  00                 	db	0
   122                           
   123                           ;initializer for _time2Zn2
   124  001B1B  24                 	db	36
   125  001B1C  30                 	db	48
   126  001B1D  32                 	db	50
   127  001B1E  32                 	db	50
   128  001B1F  00                 	db	0
   129                           
   130                           ;initializer for _time3Zn1
   131  001B20  24                 	db	36
   132  001B21  30                 	db	48
   133  001B22  33                 	db	51
   134  001B23  31                 	db	49
   135  001B24  00                 	db	0
   136                           
   137                           	psect	idataBANK0
   138  0017FE                     __pidataBANK0:
   139                           	opt stack 0
   140                           
   141                           ;initializer for _zoneTimes
   142  0017FE  0F                 	db	low _time1Zn1
   143  0017FF  00                 	db	high _time1Zn1
   144  001800  19                 	db	low _time2Zn1
   145  001801  00                 	db	high _time2Zn1
   146  001802  23                 	db	low _time3Zn1
   147  001803  00                 	db	high _time3Zn1
   148  001804  14                 	db	low _time1Zn2
   149  001805  00                 	db	high _time1Zn2
   150  001806  1E                 	db	low _time2Zn2
   151  001807  00                 	db	high _time2Zn2
   152  001808  D4                 	db	low _time3Zn2
   153  001809  00                 	db	high _time3Zn2
   154  00180A  CA                 	db	low _time1Zn3
   155  00180B  00                 	db	high _time1Zn3
   156  00180C  CF                 	db	low _time2Zn3
   157  00180D  00                 	db	high _time2Zn3
   158  00180E  D9                 	db	low _time3Zn3
   159  00180F  00                 	db	high _time3Zn3
   160                           
   161                           ;initializer for _GREETING
   162  001810  48                 	db	72
   163  001811  65                 	db	101
   164  001812  6C                 	db	108
   165  001813  6C                 	db	108
   166  001814  6F                 	db	111
   167  001815  20                 	db	32
   168  001816  57                 	db	87
   169  001817  6F                 	db	111
   170  001818  72                 	db	114
   171  001819  6C                 	db	108
   172  00181A  64                 	db	100
   173  00181B  00                 	db	0
   174                           
   175                           ;initializer for _CASTELLO
   176  00181C  43                 	db	67
   177  00181D  61                 	db	97
   178  00181E  73                 	db	115
   179  00181F  74                 	db	116
   180  001820  65                 	db	101
   181  001821  6C                 	db	108
   182  001822  6C                 	db	108
   183  001823  6F                 	db	111
   184  001824  20                 	db	32
   185  001825  3C                 	db	60
   186  001826  00                 	db	0
   187                           
   188                           ;initializer for _automaticMessage
   189  001827  41                 	db	65
   190  001828  75                 	db	117
   191  001829  74                 	db	116
   192  00182A  6F                 	db	111
   193  00182B  6D                 	db	109
   194  00182C  61                 	db	97
   195  00182D  74                 	db	116
   196  00182E  69                 	db	105
   197  00182F  63                 	db	99
   198  001830  20                 	db	32
   199  001831  6D                 	db	109
   200  001832  6F                 	db	111
   201  001833  64                 	db	100
   202  001834  65                 	db	101
   203  001835  00                 	db	0
   204                           
   205                           ;initializer for _manualMessage
   206  001836  4D                 	db	77
   207  001837  61                 	db	97
   208  001838  6E                 	db	110
   209  001839  75                 	db	117
   210  00183A  61                 	db	97
   211  00183B  6C                 	db	108
   212  00183C  20                 	db	32
   213  00183D  6D                 	db	109
   214  00183E  6F                 	db	111
   215  00183F  64                 	db	100
   216  001840  65                 	db	101
   217  001841  00                 	db	0
   218                           
   219                           ;initializer for _configAutoMessage
   220  001842  48                 	db	72
   221  001843  75                 	db	117
   222  001844  6D                 	db	109
   223  001845  69                 	db	105
   224  001846  64                 	db	100
   225  001847  69                 	db	105
   226  001848  74                 	db	116
   227  001849  79                 	db	121
   228  00184A  3A                 	db	58
   229  00184B  20                 	db	32
   230  00184C  00                 	db	0
   231                           
   232                           ;initializer for _timerMessage
   233  00184D  54                 	db	84
   234  00184E  69                 	db	105
   235  00184F  6D                 	db	109
   236  001850  65                 	db	101
   237  001851  72                 	db	114
   238  001852  20                 	db	32
   239  001853  6D                 	db	109
   240  001854  6F                 	db	111
   241  001855  64                 	db	100
   242  001856  65                 	db	101
   243  001857  00                 	db	0
   244                           
   245                           ;initializer for _manualInactiveMessage
   246  001858  49                 	db	73
   247  001859  6E                 	db	110
   248  00185A  61                 	db	97
   249  00185B  63                 	db	99
   250  00185C  74                 	db	116
   251  00185D  69                 	db	105
   252  00185E  76                 	db	118
   253  00185F  65                 	db	101
   254  001860  00                 	db	0
   255                           
   256                           ;initializer for _manualActiveMessage
   257  001861  41                 	db	65
   258  001862  63                 	db	99
   259  001863  74                 	db	116
   260  001864  69                 	db	105
   261  001865  76                 	db	118
   262  001866  65                 	db	101
   263  001867  00                 	db	0
   264                           
   265                           ;initializer for _time1Zn3
   266  001868  30                 	db	48
   267  001869  34                 	db	52
   268  00186A  30                 	db	48
   269  00186B  30                 	db	48
   270  00186C  00                 	db	0
   271                           
   272                           ;initializer for _time2Zn3
   273  00186D  24                 	db	36
   274  00186E  30                 	db	48
   275  00186F  32                 	db	50
   276  001870  33                 	db	51
   277  001871  00                 	db	0
   278                           
   279                           ;initializer for _time3Zn2
   280  001872  24                 	db	36
   281  001873  30                 	db	48
   282  001874  33                 	db	51
   283  001875  32                 	db	50
   284  001876  00                 	db	0
   285                           
   286                           ;initializer for _time3Zn3
   287  001877  24                 	db	36
   288  001878  30                 	db	48
   289  001879  33                 	db	51
   290  00187A  33                 	db	51
   291  00187B  00                 	db	0
   292                           
   293                           ;initializer for _dayName
   294  00187C  30                 	db	48
   295  00187D  30                 	db	48
   296  00187E  30                 	db	48
   297  00187F  00                 	db	0
   298                           
   299                           ;initializer for _counterHOUR
   300  001880  30                 	db	48
   301  001881  30                 	db	48
   302  001882  00                 	db	0
   303                           
   304                           ;initializer for _counterMIN
   305  001883  30                 	db	48
   306  001884  30                 	db	48
   307  001885  00                 	db	0
   308  0000                     _TMR0	set	4054
   309  0000                     _ADCON1	set	4033
   310  0000                     _CMCON	set	4020
   311  0000                     _CVRCONbits	set	4021
   312  0000                     _INTCON2bits	set	4081
   313  0000                     _INTCONbits	set	4082
   314  0000                     _LATB	set	3978
   315  0000                     _LATC	set	3979
   316  0000                     _OSCCON	set	4051
   317  0000                     _PORTB	set	3969
   318  0000                     _PORTBbits	set	3969
   319  0000                     _PORTC	set	3970
   320  0000                     _PORTCbits	set	3970
   321  0000                     _PORTD	set	3971
   322  0000                     _PORTDbits	set	3971
   323  0000                     _RCONbits	set	4048
   324  0000                     _T0CON	set	4053
   325  0000                     _T0CONbits	set	4053
   326  0000                     _TRISB	set	3987
   327  0000                     _TRISBbits	set	3987
   328  0000                     _TRISC	set	3988
   329  0000                     _TRISD	set	3989
   330  0000                     _TMR0IE	set	32661
   331  0000                     _TMR0IF	set	32658
   332                           
   333                           	psect	smallconst
   334  000D00                     __psmallconst:
   335                           	opt stack 0
   336  000D00  00                 	db	0
   337  000D01                     STR_1:
   338  000D01  52                 	db	82	;'R'
   339  000D02  65                 	db	101	;'e'
   340  000D03  67                 	db	103	;'g'
   341  000D04  61                 	db	97	;'a'
   342  000D05  6E                 	db	110	;'n'
   343  000D06  64                 	db	100	;'d'
   344  000D07  6F                 	db	111	;'o'
   345  000D08  3A                 	db	58	;':'
   346  000D09  20                 	db	32
   347  000D0A  00                 	db	0
   348                           
   349                           ; #config settings
   350  000D0B  00                 	db	0	; dummy byte at the end
   351  0000                     
   352                           	psect	cinit
   353  0018F8                     __pcinit:
   354                           	opt stack 0
   355  0018F8                     start_initialization:
   356                           	opt stack 0
   357  0018F8                     __initialization:
   358                           	opt stack 0
   359                           
   360                           ; Clear objects allocated to BANK0 (4 bytes)
   361  0018F8  0100               	movlb	0
   362  0018FA  6BFC               	clrf	(__pbssBANK0+3)& (0+255),b
   363  0018FC  6BFB               	clrf	(__pbssBANK0+2)& (0+255),b
   364  0018FE  6BFA               	clrf	(__pbssBANK0+1)& (0+255),b
   365  001900  6BF9               	clrf	__pbssBANK0& (0+255),b
   366                           
   367                           ; Clear objects allocated to COMRAM (6 bytes)
   368  001902  6A49               	clrf	(__pbssCOMRAM+5)& (0+255),c
   369  001904  6A48               	clrf	(__pbssCOMRAM+4)& (0+255),c
   370  001906  6A47               	clrf	(__pbssCOMRAM+3)& (0+255),c
   371  001908  6A46               	clrf	(__pbssCOMRAM+2)& (0+255),c
   372  00190A  6A45               	clrf	(__pbssCOMRAM+1)& (0+255),c
   373  00190C  6A44               	clrf	__pbssCOMRAM& (0+255),c
   374                           
   375                           ; Initialize objects allocated to BANK0 (136 bytes)
   376                           ; load TBLPTR registers with __pidataBANK0
   377  00190E  0EFE               	movlw	low __pidataBANK0
   378  001910  6EF6               	movwf	tblptrl,c
   379  001912  0E17               	movlw	high __pidataBANK0
   380  001914  6EF7               	movwf	tblptrh,c
   381  001916  0E00               	movlw	low (__pidataBANK0 shr (0+16))
   382  001918  6EF8               	movwf	tblptru,c
   383  00191A  EE00  F060         	lfsr	0,__pdataBANK0
   384  00191E  EE10 F088          	lfsr	1,136
   385  001922                     copy_data0:
   386  001922  0009               	tblrd		*+
   387  001924  CFF5 FFEE          	movff	tablat,postinc0
   388  001928  50E5               	movf	postdec1,w,c
   389  00192A  50E1               	movf	fsr1l,w,c
   390  00192C  E1FA               	bnz	copy_data0
   391                           
   392                           ; Initialize objects allocated to COMRAM (39 bytes)
   393                           ; load TBLPTR registers with __pidataCOMRAM
   394  00192E  0EFE               	movlw	low __pidataCOMRAM
   395  001930  6EF6               	movwf	tblptrl,c
   396  001932  0E1A               	movlw	high __pidataCOMRAM
   397  001934  6EF7               	movwf	tblptrh,c
   398  001936  0E00               	movlw	low (__pidataCOMRAM shr (0+16))
   399  001938  6EF8               	movwf	tblptru,c
   400  00193A  EE00  F001         	lfsr	0,__pdataCOMRAM
   401  00193E  EE10 F027          	lfsr	1,39
   402  001942                     copy_data1:
   403  001942  0009               	tblrd		*+
   404  001944  CFF5 FFEE          	movff	tablat,postinc0
   405  001948  50E5               	movf	postdec1,w,c
   406  00194A  50E1               	movf	fsr1l,w,c
   407  00194C  E1FA               	bnz	copy_data1
   408  00194E                     end_of_initialization:
   409                           	opt stack 0
   410  00194E                     __end_of__initialization:
   411                           	opt stack 0
   412  00194E  904A               	bcf	int$flags,0,c	;clear compiler interrupt flag (level 1)
   413  001950  924A               	bcf	int$flags,1,c	;clear compiler interrupt flag (level 2)
   414  001952  0E00               	movlw	low (__Lmediumconst shr (0+16))
   415  001954  6EF8               	movwf	tblptru,c
   416  001956  0100               	movlb	0
   417  001958  EF4E  F00B         	goto	_main	;jump to C main() function
   418                           tblptru	equ	0xFF8
   419                           tblptrh	equ	0xFF7
   420                           tblptrl	equ	0xFF6
   421                           tablat	equ	0xFF5
   422                           postinc0	equ	0xFEE
   423                           postdec1	equ	0xFE5
   424                           fsr1l	equ	0xFE1
   425                           
   426                           	psect	bssCOMRAM
   427  000044                     __pbssCOMRAM:
   428                           	opt stack 0
   429  000044                     _columnSelected:
   430                           	opt stack 0
   431  000044                     	ds	1
   432  000045                     _getValueStatus:
   433                           	opt stack 0
   434  000045                     	ds	1
   435  000046                     _hourConfiguration:
   436                           	opt stack 0
   437  000046                     	ds	1
   438  000047                     _keyCode:
   439                           	opt stack 0
   440  000047                     	ds	1
   441  000048                     _oneShotFlag:
   442                           	opt stack 0
   443  000048                     	ds	1
   444  000049                     _rowSelected:
   445                           	opt stack 0
   446  000049                     	ds	1
   447                           tblptru	equ	0xFF8
   448                           tblptrh	equ	0xFF7
   449                           tblptrl	equ	0xFF6
   450                           tablat	equ	0xFF5
   451                           postinc0	equ	0xFEE
   452                           postdec1	equ	0xFE5
   453                           fsr1l	equ	0xFE1
   454                           
   455                           	psect	dataCOMRAM
   456  000001                     __pdataCOMRAM:
   457                           	opt stack 0
   458  000001                     _humidityZn1Val:
   459                           	opt stack 0
   460  000001                     	ds	3
   461  000004                     _humidityZn2Val:
   462                           	opt stack 0
   463  000004                     	ds	3
   464  000007                     _humidityZn3Val:
   465                           	opt stack 0
   466  000007                     	ds	3
   467  00000A                     _counterDAYS:
   468                           	opt stack 0
   469  00000A                     	ds	1
   470  00000B                     _counterSEC:
   471                           	opt stack 0
   472  00000B                     	ds	1
   473  00000C                     _manualZn1Val:
   474                           	opt stack 0
   475  00000C                     	ds	1
   476  00000D                     _manualZn2Val:
   477                           	opt stack 0
   478  00000D                     	ds	1
   479  00000E                     _manualZn3Val:
   480                           	opt stack 0
   481  00000E                     	ds	1
   482  00000F                     _time1Zn1:
   483                           	opt stack 0
   484  00000F                     	ds	5
   485  000014                     _time1Zn2:
   486                           	opt stack 0
   487  000014                     	ds	5
   488  000019                     _time2Zn1:
   489                           	opt stack 0
   490  000019                     	ds	5
   491  00001E                     _time2Zn2:
   492                           	opt stack 0
   493  00001E                     	ds	5
   494  000023                     _time3Zn1:
   495                           	opt stack 0
   496  000023                     	ds	5
   497                           tblptru	equ	0xFF8
   498                           tblptrh	equ	0xFF7
   499                           tblptrl	equ	0xFF6
   500                           tablat	equ	0xFF5
   501                           postinc0	equ	0xFEE
   502                           postdec1	equ	0xFE5
   503                           fsr1l	equ	0xFE1
   504                           
   505                           	psect	bssBANK0
   506  0000F9                     __pbssBANK0:
   507                           	opt stack 0
   508  0000F9                     _zoneSelected:
   509                           	opt stack 0
   510  0000F9                     	ds	2
   511  0000FB                     _modeSelected:
   512                           	opt stack 0
   513  0000FB                     	ds	1
   514  0000FC                     _statusConfiguration:
   515                           	opt stack 0
   516  0000FC                     	ds	1
   517                           tblptru	equ	0xFF8
   518                           tblptrh	equ	0xFF7
   519                           tblptrl	equ	0xFF6
   520                           tablat	equ	0xFF5
   521                           postinc0	equ	0xFEE
   522                           postdec1	equ	0xFE5
   523                           fsr1l	equ	0xFE1
   524                           
   525                           	psect	dataBANK0
   526  000060                     __pdataBANK0:
   527                           	opt stack 0
   528  000060                     _zoneTimes:
   529                           	opt stack 0
   530  000060                     	ds	18
   531  000072                     _GREETING:
   532                           	opt stack 0
   533  000072                     	ds	12
   534  00007E                     _CASTELLO:
   535                           	opt stack 0
   536  00007E                     	ds	11
   537  000089                     _automaticMessage:
   538                           	opt stack 0
   539  000089                     	ds	15
   540  000098                     _manualMessage:
   541                           	opt stack 0
   542  000098                     	ds	12
   543  0000A4                     _configAutoMessage:
   544                           	opt stack 0
   545  0000A4                     	ds	11
   546  0000AF                     _timerMessage:
   547                           	opt stack 0
   548  0000AF                     	ds	11
   549  0000BA                     _manualInactiveMessage:
   550                           	opt stack 0
   551  0000BA                     	ds	9
   552  0000C3                     _manualActiveMessage:
   553                           	opt stack 0
   554  0000C3                     	ds	7
   555  0000CA                     _time1Zn3:
   556                           	opt stack 0
   557  0000CA                     	ds	5
   558  0000CF                     _time2Zn3:
   559                           	opt stack 0
   560  0000CF                     	ds	5
   561  0000D4                     _time3Zn2:
   562                           	opt stack 0
   563  0000D4                     	ds	5
   564  0000D9                     _time3Zn3:
   565                           	opt stack 0
   566  0000D9                     	ds	5
   567  0000DE                     _dayName:
   568                           	opt stack 0
   569  0000DE                     	ds	4
   570  0000E2                     _counterHOUR:
   571                           	opt stack 0
   572  0000E2                     	ds	3
   573  0000E5                     _counterMIN:
   574                           	opt stack 0
   575  0000E5                     	ds	3
   576                           tblptru	equ	0xFF8
   577                           tblptrh	equ	0xFF7
   578                           tblptrl	equ	0xFF6
   579                           tablat	equ	0xFF5
   580                           postinc0	equ	0xFEE
   581                           postdec1	equ	0xFE5
   582                           fsr1l	equ	0xFE1
   583                           
   584                           	psect	cstackBANK1
   585  000100                     __pcstackBANK1:
   586                           	opt stack 0
   587  000100                     ??_delay:
   588  000100                     shortDelay@L1REG:
   589                           	opt stack 0
   590  000100                     longDelay@L1REG:
   591                           	opt stack 0
   592  000100                     determinePressedRow@i:
   593                           	opt stack 0
   594                           
   595                           ; 1 bytes @ 0x0
   596  000100                     	ds	1
   597  000101                     longDelay@L2REG:
   598                           	opt stack 0
   599  000101                     command@x:
   600                           	opt stack 0
   601  000101                     displayCharOnLCD@character:
   602                           	opt stack 0
   603  000101                     delay@L1REG:
   604                           	opt stack 0
   605                           
   606                           ; 1 bytes @ 0x1
   607  000101                     	ds	1
   608  000102                     longDelay@L3REG:
   609                           	opt stack 0
   610  000102                     delay@L2REG:
   611                           	opt stack 0
   612  000102                     displayLineOnLCD@array:
   613                           	opt stack 0
   614                           
   615                           ; 2 bytes @ 0x2
   616  000102                     	ds	1
   617  000103                     timerConfiguration@input:
   618                           	opt stack 0
   619                           
   620                           ; 1 bytes @ 0x3
   621  000103                     	ds	1
   622  000104                     displayLineOnLCD@sizeOfArray:
   623                           	opt stack 0
   624                           
   625                           ; 1 bytes @ 0x4
   626  000104                     	ds	1
   627  000105                     ??_displayLineOnLCD:
   628                           
   629                           ; 1 bytes @ 0x5
   630  000105                     	ds	7
   631  00010C                     displayLineOnLCD@i:
   632                           	opt stack 0
   633                           
   634                           ; 1 bytes @ 0xC
   635  00010C                     	ds	1
   636  00010D                     ??_automaticConfiguration:
   637  00010D                     
   638                           ; 1 bytes @ 0xD
   639  00010D                     	ds	1
   640  00010E                     automaticConfiguration@counter:
   641                           	opt stack 0
   642  00010E                     manualConfiguration@input:
   643                           	opt stack 0
   644  00010E                     workingTimer@i:
   645                           	opt stack 0
   646                           
   647                           ; 1 bytes @ 0xE
   648  00010E                     	ds	1
   649  00010F                     automaticConfiguration@input:
   650                           	opt stack 0
   651  00010F                     workingTimer@selectedTime:
   652                           	opt stack 0
   653                           
   654                           ; 2 bytes @ 0xF
   655  00010F                     	ds	2
   656  000111                     tblptru	equ	0xFF8
   657                           tblptrh	equ	0xFF7
   658                           tblptrl	equ	0xFF6
   659                           tablat	equ	0xFF5
   660                           postinc0	equ	0xFEE
   661                           postdec1	equ	0xFE5
   662                           fsr1l	equ	0xFE1
   663                           
   664                           ; 1 bytes @ 0x11
   665                           
   666                           	psect	cstackBANK0
   667  0000E8                     __pcstackBANK0:
   668                           	opt stack 0
   669  0000E8                     ??_ISRL:
   670                           
   671                           ; 1 bytes @ 0x0
   672  0000E8                     	ds	17
   673                           tblptru	equ	0xFF8
   674                           tblptrh	equ	0xFF7
   675                           tblptrl	equ	0xFF6
   676                           tablat	equ	0xFF5
   677                           postinc0	equ	0xFEE
   678                           postdec1	equ	0xFE5
   679                           fsr1l	equ	0xFE1
   680                           
   681                           	psect	cstackCOMRAM
   682  000028                     __pcstackCOMRAM:
   683                           	opt stack 0
   684  000028                     ??i2_delay:
   685  000028                     i2shortDelay@L1REG:
   686                           	opt stack 0
   687  000028                     i2determinePressedRow@i:
   688                           	opt stack 0
   689                           
   690                           ; 1 bytes @ 0x0
   691  000028                     	ds	1
   692  000029                     i2command@x:
   693                           	opt stack 0
   694  000029                     i2displayCharOnLCD@character:
   695                           	opt stack 0
   696  000029                     i2delay@L1REG:
   697                           	opt stack 0
   698                           
   699                           ; 1 bytes @ 0x1
   700  000029                     	ds	1
   701  00002A                     i2delay@L2REG:
   702                           	opt stack 0
   703  00002A                     i2displayLineOnLCD@array:
   704                           	opt stack 0
   705                           
   706                           ; 2 bytes @ 0x2
   707  00002A                     	ds	1
   708  00002B                     
   709                           ; 1 bytes @ 0x3
   710  00002B                     	ds	1
   711  00002C                     i2displayLineOnLCD@sizeOfArray:
   712                           	opt stack 0
   713                           
   714                           ; 1 bytes @ 0x4
   715  00002C                     	ds	1
   716  00002D                     ??i2_displayLineOnLCD:
   717                           
   718                           ; 1 bytes @ 0x5
   719  00002D                     	ds	7
   720  000034                     i2displayLineOnLCD@i:
   721                           	opt stack 0
   722                           
   723                           ; 1 bytes @ 0xC
   724  000034                     	ds	1
   725  000035                     pressedKeyAction@keyCode:
   726                           	opt stack 0
   727                           
   728                           ; 1 bytes @ 0xD
   729  000035                     	ds	1
   730  000036                     ??_ISRH:
   731                           
   732                           ; 1 bytes @ 0xE
   733  000036                     	ds	14
   734                           tblptru	equ	0xFF8
   735                           tblptrh	equ	0xFF7
   736                           tblptrl	equ	0xFF6
   737                           tablat	equ	0xFF5
   738                           postinc0	equ	0xFEE
   739                           postdec1	equ	0xFE5
   740                           fsr1l	equ	0xFE1
   741                           
   742 ;;
   743 ;;Main: autosize = 0, tempsize = 0, incstack = 0, save=0
   744 ;;
   745 ;; *************** function _main *****************
   746 ;; Defined at:
   747 ;;		line 214 in file "SysRiego.c"
   748 ;; Parameters:    Size  Location     Type
   749 ;;		None
   750 ;; Auto vars:     Size  Location     Type
   751 ;;		None
   752 ;; Return value:  Size  Location     Type
   753 ;;                  1    wreg      void 
   754 ;; Registers used:
   755 ;;		wreg, fsr0l, fsr0h, fsr2l, fsr2h, status,2, status,0, tblptrl, tblptrh, tblptru, prodl, prodh, cstack
   756 ;; Tracked objects:
   757 ;;		On entry : 0/0
   758 ;;		On exit  : 0/0
   759 ;;		Unchanged: 0/0
   760 ;; Data sizes:     COMRAM   BANK0   BANK1   BANK2   BANK3   BANK4   BANK5   BANK6   BANK7   BANK8   BANK9  BANK10  BANK1
      +1  BANK12
   761 ;;      Params:         0       0       0       0       0       0       0       0       0       0       0       0       
      +0       0
   762 ;;      Locals:         0       0       0       0       0       0       0       0       0       0       0       0       
      +0       0
   763 ;;      Temps:          0       0       0       0       0       0       0       0       0       0       0       0       
      +0       0
   764 ;;      Totals:         0       0       0       0       0       0       0       0       0       0       0       0       
      +0       0
   765 ;;Total ram usage:        0 bytes
   766 ;; Hardware stack levels required when called:   14
   767 ;; This function calls:
   768 ;;		_LCDSetup
   769 ;;		_automaticConfiguration
   770 ;;		_manualConfiguration
   771 ;;		_portDAsOutput
   772 ;;		_timerConfiguration
   773 ;;		_workingAutomatic
   774 ;;		_workingManual
   775 ;;		_workingTimer
   776 ;; This function is called by:
   777 ;;		Startup code after reset
   778 ;; This function uses a non-reentrant model
   779 ;;
   780                           
   781                           	psect	text0
   782  00169C                     __ptext0:
   783                           	opt stack 0
   784  00169C                     _main:
   785                           	opt stack 17
   786                           
   787                           ;SysRiego.c: 217: OSCCON = 0x60;
   788                           
   789                           ;incstack = 0
   790  00169C  0E60               	movlw	96
   791  00169E  6ED3               	movwf	4051,c	;volatile
   792                           
   793                           ;SysRiego.c: 221: CMCON = 0x07;
   794  0016A0  0E07               	movlw	7
   795  0016A2  6EB4               	movwf	4020,c	;volatile
   796                           
   797                           ;SysRiego.c: 222: CVRCONbits.CVREN = 0;
   798  0016A4  9EB5               	bcf	4021,7,c	;volatile
   799                           
   800                           ;SysRiego.c: 223: ADCON1 = 0x0F;
   801  0016A6  0E0F               	movlw	15
   802  0016A8  6EC1               	movwf	4033,c	;volatile
   803                           
   804                           ;SysRiego.c: 228: PORTB = 0X00;
   805  0016AA  0E00               	movlw	0
   806  0016AC  6E81               	movwf	3969,c	;volatile
   807                           
   808                           ;SysRiego.c: 229: LATB = 0X00;
   809  0016AE  0E00               	movlw	0
   810  0016B0  6E8A               	movwf	3978,c	;volatile
   811                           
   812                           ;SysRiego.c: 230: TRISB = 0XFF;
   813  0016B2  6893               	setf	3987,c	;volatile
   814                           
   815                           ;SysRiego.c: 232: PORTC = 0X00;
   816  0016B4  0E00               	movlw	0
   817  0016B6  6E82               	movwf	3970,c	;volatile
   818                           
   819                           ;SysRiego.c: 233: LATC = 0X00;
   820  0016B8  0E00               	movlw	0
   821  0016BA  6E8B               	movwf	3979,c	;volatile
   822                           
   823                           ;SysRiego.c: 234: TRISC = 0X00;
   824  0016BC  0E00               	movlw	0
   825  0016BE  6E94               	movwf	3988,c	;volatile
   826                           
   827                           ;SysRiego.c: 237: TRISBbits.RB0 = 0;
   828  0016C0  9093               	bcf	3987,0,c	;volatile
   829                           
   830                           ;SysRiego.c: 238: TRISBbits.RB1 = 0;
   831  0016C2  9293               	bcf	3987,1,c	;volatile
   832                           
   833                           ;SysRiego.c: 239: TRISBbits.RB2 = 0;
   834  0016C4  9493               	bcf	3987,2,c	;volatile
   835                           
   836                           ;SysRiego.c: 240: TRISBbits.RB3 = 0;
   837  0016C6  9693               	bcf	3987,3,c	;volatile
   838                           
   839                           ;SysRiego.c: 243: RCONbits.IPEN = 1;
   840  0016C8  8ED0               	bsf	4048,7,c	;volatile
   841                           
   842                           ;SysRiego.c: 246: INTCONbits.GIEH = 1;
   843  0016CA  8EF2               	bsf	intcon,7,c	;volatile
   844                           
   845                           ;SysRiego.c: 249: INTCONbits.GIEL = 1;
   846  0016CC  8CF2               	bsf	intcon,6,c	;volatile
   847                           
   848                           ;SysRiego.c: 252: INTCON2bits.RBPU = 0;
   849  0016CE  9EF1               	bcf	intcon2,7,c	;volatile
   850                           
   851                           ;SysRiego.c: 255: INTCONbits.RBIE = 1;
   852  0016D0  86F2               	bsf	intcon,3,c	;volatile
   853                           
   854                           ;SysRiego.c: 258: INTCONbits.RBIF = 0;
   855  0016D2  90F2               	bcf	intcon,0,c	;volatile
   856                           
   857                           ;SysRiego.c: 261: INTCON2bits.RBIP = 1;
   858  0016D4  80F1               	bsf	intcon2,0,c	;volatile
   859                           
   860                           ;SysRiego.c: 264: portDAsOutput();
   861  0016D6  EC72  F00E         	call	_portDAsOutput	;wreg free
   862                           
   863                           ;SysRiego.c: 267: LCDSetup();
   864  0016DA  EC93  F00D         	call	_LCDSetup	;wreg free
   865                           
   866                           ;SysRiego.c: 276: modeSelected = 1;
   867  0016DE  0E01               	movlw	1
   868  0016E0  0100               	movlb	0	; () banked
   869  0016E2  6FFB               	movwf	_modeSelected& (0+255),b
   870                           
   871                           ; BSR set to: 0
   872                           ;SysRiego.c: 278: getValueStatus = 0;
   873  0016E4  0E00               	movlw	0
   874  0016E6  6E45               	movwf	_getValueStatus,c
   875                           
   876                           ; BSR set to: 0
   877                           ;SysRiego.c: 279: statusConfiguration = 0;
   878  0016E8  0E00               	movlw	0
   879  0016EA  0100               	movlb	0	; () banked
   880  0016EC  6FFC               	movwf	_statusConfiguration& (0+255),b
   881                           
   882                           ; BSR set to: 0
   883                           ;SysRiego.c: 280: oneShotFlag = 0;
   884  0016EE  0E00               	movlw	0
   885  0016F0  6E48               	movwf	_oneShotFlag,c
   886                           
   887                           ; BSR set to: 0
   888                           ;SysRiego.c: 284: INTCON2bits.TMR0IP = 1;
   889  0016F2  84F1               	bsf	intcon2,2,c	;volatile
   890                           
   891                           ; BSR set to: 0
   892                           ;SysRiego.c: 287: INTCONbits.TMR0IE = 1;
   893  0016F4  8AF2               	bsf	intcon,5,c	;volatile
   894                           
   895                           ; BSR set to: 0
   896                           ;SysRiego.c: 291: T0CON = 0x07;
   897  0016F6  0E07               	movlw	7
   898  0016F8  6ED5               	movwf	4053,c	;volatile
   899                           
   900                           ; BSR set to: 0
   901                           ;SysRiego.c: 295: TMR0 = 0xFFF0;
   902  0016FA  0EFF               	movlw	255
   903  0016FC  6ED7               	movwf	4055,c	;volatile
   904  0016FE  0EF0               	movlw	240
   905  001700  6ED6               	movwf	4054,c	;volatile
   906                           
   907                           ; BSR set to: 0
   908                           ;SysRiego.c: 297: T0CONbits.TMR0ON = 1;
   909  001702  8ED5               	bsf	4053,7,c	;volatile
   910  001704                     l3934:
   911                           
   912                           ;SysRiego.c: 304: if(statusConfiguration == 0) {
   913  001704  0100               	movlb	0	; () banked
   914  001706  51FC               	movf	_statusConfiguration& (0+255),w,b
   915  001708  B4D8               	btfsc	status,2,c
   916  00170A  D00A               	goto	l3946
   917  00170C  D01E               	goto	l3956
   918  00170E                     l3938:
   919                           
   920                           ; BSR set to: 0
   921                           ;SysRiego.c: 308: workingAutomatic();
   922  00170E  EC2A  F00D         	call	_workingAutomatic	;wreg free
   923                           
   924                           ;SysRiego.c: 309: break;
   925  001712  D7F8               	goto	l3934
   926  001714                     l3940:
   927                           
   928                           ;SysRiego.c: 312: workingTimer();
   929  001714  EC98  F009         	call	_workingTimer	;wreg free
   930                           
   931                           ;SysRiego.c: 313: break;
   932  001718  D7F5               	goto	l3934
   933  00171A                     l3942:
   934                           
   935                           ;SysRiego.c: 316: workingManual();
   936  00171A  EC13  F00D         	call	_workingManual	;wreg free
   937                           
   938                           ;SysRiego.c: 319: }
   939                           
   940                           ;SysRiego.c: 317: break;
   941  00171E  D7F2               	goto	l3934
   942  001720                     l3946:
   943  001720  0100               	movlb	0	; () banked
   944  001722  51FB               	movf	_modeSelected& (0+255),w,b
   945                           
   946                           ; Switch size 1, requested type "space"
   947                           ; Number of cases is 3, Range of values is 0 to 2
   948                           ; switch strategies available:
   949                           ; Name         Instructions Cycles
   950                           ; simple_byte           10     6 (average)
   951                           ;	Chosen strategy is simple_byte
   952  001724  0A00               	xorlw	0	; case 0
   953  001726  B4D8               	btfsc	status,2,c
   954  001728  D7F2               	goto	l3938
   955  00172A  0A01               	xorlw	1	; case 1
   956  00172C  B4D8               	btfsc	status,2,c
   957  00172E  D7F2               	goto	l3940
   958  001730  0A03               	xorlw	3	; case 2
   959  001732  B4D8               	btfsc	status,2,c
   960  001734  D7F2               	goto	l3942
   961                           
   962                           ; BSR set to: 0
   963                           ;SysRiego.c: 320: }
   964  001736  D7E6               	goto	l3934
   965  001738                     l3948:
   966                           
   967                           ; BSR set to: 0
   968                           ;SysRiego.c: 326: automaticConfiguration();
   969  001738  ECEA  F00A         	call	_automaticConfiguration	;wreg free
   970                           
   971                           ;SysRiego.c: 327: break;
   972  00173C  D7E3               	goto	l3934
   973  00173E                     l3950:
   974                           
   975                           ;SysRiego.c: 330: timerConfiguration();
   976  00173E  EC40  F00D         	call	_timerConfiguration	;wreg free
   977                           
   978                           ;SysRiego.c: 331: break;
   979  001742  D7E0               	goto	l3934
   980  001744                     l3952:
   981                           
   982                           ;SysRiego.c: 334: manualConfiguration();
   983  001744  EC13  F009         	call	_manualConfiguration	;wreg free
   984                           
   985                           ;SysRiego.c: 337: }
   986                           
   987                           ;SysRiego.c: 335: break;
   988  001748  D7DD               	goto	l3934
   989  00174A                     l3956:
   990  00174A  0100               	movlb	0	; () banked
   991  00174C  51FB               	movf	_modeSelected& (0+255),w,b
   992                           
   993                           ; Switch size 1, requested type "space"
   994                           ; Number of cases is 3, Range of values is 0 to 2
   995                           ; switch strategies available:
   996                           ; Name         Instructions Cycles
   997                           ; simple_byte           10     6 (average)
   998                           ;	Chosen strategy is simple_byte
   999  00174E  0A00               	xorlw	0	; case 0
  1000  001750  B4D8               	btfsc	status,2,c
  1001  001752  D7F2               	goto	l3948
  1002  001754  0A01               	xorlw	1	; case 1
  1003  001756  B4D8               	btfsc	status,2,c
  1004  001758  D7F2               	goto	l3950
  1005  00175A  0A03               	xorlw	3	; case 2
  1006  00175C  B4D8               	btfsc	status,2,c
  1007  00175E  D7F2               	goto	l3952
  1008                           
  1009                           ; BSR set to: 0
  1010                           
  1011                           ; BSR set to: 0
  1012                           
  1013                           ; BSR set to: 0
  1014  001760  D7D1               	goto	l3934
  1015  001762                     __end_of_main:
  1016                           	opt stack 0
  1017                           tblptru	equ	0xFF8
  1018                           tblptrh	equ	0xFF7
  1019                           tblptrl	equ	0xFF6
  1020                           tablat	equ	0xFF5
  1021                           intcon	equ	0xFF2
  1022                           intcon2	equ	0xFF1
  1023                           postinc0	equ	0xFEE
  1024                           postdec1	equ	0xFE5
  1025                           fsr1l	equ	0xFE1
  1026                           status	equ	0xFD8
  1027                           
  1028 ;; *************** function _workingTimer *****************
  1029 ;; Defined at:
  1030 ;;		line 592 in file "SysRiego.c"
  1031 ;; Parameters:    Size  Location     Type
  1032 ;;		None
  1033 ;; Auto vars:     Size  Location     Type
  1034 ;;  i               1   14[BANK1 ] unsigned char 
  1035 ;;  selectedTime    2   15[BANK1 ] PTR unsigned char 
  1036 ;;		 -> time3Zn3(5), time2Zn3(5), time1Zn3(5), time3Zn2(5), 
  1037 ;;		 -> time2Zn2(5), time1Zn2(5), time3Zn1(5), time2Zn1(5), 
  1038 ;;		 -> time1Zn1(5), 
  1039 ;; Return value:  Size  Location     Type
  1040 ;;                  1    wreg      void 
  1041 ;; Registers used:
  1042 ;;		wreg, fsr0l, fsr0h, fsr2l, fsr2h, status,2, status,0, tblptrl, tblptrh, tblptru, prodl, prodh, cstack
  1043 ;; Tracked objects:
  1044 ;;		On entry : 0/0
  1045 ;;		On exit  : 0/0
  1046 ;;		Unchanged: 0/0
  1047 ;; Data sizes:     COMRAM   BANK0   BANK1   BANK2   BANK3   BANK4   BANK5   BANK6   BANK7   BANK8   BANK9  BANK10  BANK1
      +1  BANK12
  1048 ;;      Params:         0       0       0       0       0       0       0       0       0       0       0       0       
      +0       0
  1049 ;;      Locals:         0       0       3       0       0       0       0       0       0       0       0       0       
      +0       0
  1050 ;;      Temps:          0       0       1       0       0       0       0       0       0       0       0       0       
      +0       0
  1051 ;;      Totals:         0       0       4       0       0       0       0       0       0       0       0       0       
      +0       0
  1052 ;;Total ram usage:        4 bytes
  1053 ;; Hardware stack levels used:    1
  1054 ;; Hardware stack levels required when called:   11
  1055 ;; This function calls:
  1056 ;;		_clearDisplay
  1057 ;;		_displayLineOnLCD
  1058 ;; This function is called by:
  1059 ;;		_main
  1060 ;; This function uses a non-reentrant model
  1061 ;;
  1062                           
  1063                           	psect	text1
  1064  001330                     __ptext1:
  1065                           	opt stack 0
  1066  001330                     _workingTimer:
  1067                           	opt stack 19
  1068                           
  1069                           ;SysRiego.c: 594: clearDisplay();
  1070                           
  1071                           ; BSR set to: 0
  1072                           ;incstack = 0
  1073  001330  EC3D  F00E         	call	_clearDisplay	;wreg free
  1074                           
  1075                           ;SysRiego.c: 595: displayLineOnLCD(timerMessage, sizeof(timerMessage) / sizeof(timerMess
      +                          age[0]));
  1076  001334  0EAF               	movlw	low _timerMessage
  1077  001336  0101               	movlb	1	; () banked
  1078  001338  6F02               	movwf	displayLineOnLCD@array& (0+255),b
  1079  00133A  0E00               	movlw	high _timerMessage
  1080  00133C  0101               	movlb	1	; () banked
  1081  00133E  6F03               	movwf	(displayLineOnLCD@array+1)& (0+255),b
  1082  001340  0E0B               	movlw	11
  1083  001342  0101               	movlb	1	; () banked
  1084  001344  6F04               	movwf	displayLineOnLCD@sizeOfArray& (0+255),b
  1085  001346  ECB1  F00B         	call	_displayLineOnLCD	;wreg free
  1086                           
  1087                           ;SysRiego.c: 597: unsigned char *selectedTime;
  1088                           ;SysRiego.c: 599: while(modeSelected == 1 && statusConfiguration == 0) {
  1089  00134A  D063               	goto	l3780
  1090  00134C                     l3752:
  1091                           
  1092                           ;SysRiego.c: 602: for(unsigned char i = 0; i < 9; i++) {
  1093  00134C  0E00               	movlw	0
  1094  00134E  0101               	movlb	1	; () banked
  1095  001350  6F0E               	movwf	workingTimer@i& (0+255),b
  1096  001352                     l3754:
  1097                           
  1098                           ; BSR set to: 1
  1099  001352  0E08               	movlw	8
  1100  001354  0101               	movlb	1	; () banked
  1101  001356  650E               	cpfsgt	workingTimer@i& (0+255),b
  1102  001358  D001               	goto	l3758
  1103  00135A  D05B               	goto	l3780
  1104  00135C                     l3758:
  1105                           
  1106                           ; BSR set to: 1
  1107                           ;SysRiego.c: 604: selectedTime = zoneTimes[i];
  1108  00135C  0101               	movlb	1	; () banked
  1109  00135E  510E               	movf	workingTimer@i& (0+255),w,b
  1110  001360  0D02               	mullw	2
  1111  001362  0E60               	movlw	low _zoneTimes
  1112  001364  24F3               	addwf	prodl,w,c
  1113  001366  6ED9               	movwf	fsr2l,c
  1114  001368  0E00               	movlw	high _zoneTimes
  1115  00136A  20F4               	addwfc	prodh,w,c
  1116  00136C  6EDA               	movwf	fsr2h,c
  1117  00136E  CFDE F10F          	movff	postinc2,workingTimer@selectedTime
  1118  001372  CFDD F110          	movff	postdec2,workingTimer@selectedTime+1
  1119                           
  1120                           ; BSR set to: 1
  1121                           ;SysRiego.c: 606: if (selectedTime[0] != '$') {
  1122  001376  C10F  FFD9         	movff	workingTimer@selectedTime,fsr2l
  1123  00137A  C110  FFDA         	movff	workingTimer@selectedTime+1,fsr2h
  1124  00137E  0E24               	movlw	36
  1125  001380  18DE               	xorwf	postinc2,w,c
  1126  001382  B4D8               	btfsc	status,2,c
  1127  001384  D043               	goto	l3776
  1128                           
  1129                           ; BSR set to: 1
  1130                           ;SysRiego.c: 608: if (selectedTime[0] == counterHOUR[0]) {
  1131  001386  C10F  FFD9         	movff	workingTimer@selectedTime,fsr2l
  1132  00138A  C110  FFDA         	movff	workingTimer@selectedTime+1,fsr2h
  1133  00138E  0100               	movlb	0	; () banked
  1134  001390  51E2               	movf	_counterHOUR& (0+255),w,b
  1135  001392  18DE               	xorwf	postinc2,w,c
  1136  001394  A4D8               	btfss	status,2,c
  1137  001396  D03A               	goto	l3776
  1138                           
  1139                           ; BSR set to: 0
  1140                           ;SysRiego.c: 610: if (selectedTime[1] == counterHOUR[1]) {
  1141  001398  0101               	movlb	1	; () banked
  1142  00139A  EE20 F001          	lfsr	2,1
  1143  00139E  510F               	movf	workingTimer@selectedTime& (0+255),w,b
  1144  0013A0  26D9               	addwf	fsr2l,f,c
  1145  0013A2  5110               	movf	(workingTimer@selectedTime+1)& (0+255),w,b
  1146  0013A4  22DA               	addwfc	fsr2h,f,c
  1147  0013A6  0100               	movlb	0	; () banked
  1148  0013A8  51E3               	movf	(_counterHOUR+1)& (0+255),w,b
  1149  0013AA  18DE               	xorwf	postinc2,w,c
  1150  0013AC  A4D8               	btfss	status,2,c
  1151  0013AE  D02E               	goto	l3776
  1152                           
  1153                           ; BSR set to: 0
  1154                           ;SysRiego.c: 612: if (selectedTime[2] == counterMIN[0]) {
  1155  0013B0  0101               	movlb	1	; () banked
  1156  0013B2  EE20 F002          	lfsr	2,2
  1157  0013B6  510F               	movf	workingTimer@selectedTime& (0+255),w,b
  1158  0013B8  26D9               	addwf	fsr2l,f,c
  1159  0013BA  5110               	movf	(workingTimer@selectedTime+1)& (0+255),w,b
  1160  0013BC  22DA               	addwfc	fsr2h,f,c
  1161  0013BE  0100               	movlb	0	; () banked
  1162  0013C0  51E5               	movf	_counterMIN& (0+255),w,b
  1163  0013C2  18DE               	xorwf	postinc2,w,c
  1164  0013C4  A4D8               	btfss	status,2,c
  1165  0013C6  D022               	goto	l3776
  1166                           
  1167                           ; BSR set to: 0
  1168                           ;SysRiego.c: 614: if (selectedTime[3] == counterMIN[1]) {
  1169  0013C8  0101               	movlb	1	; () banked
  1170  0013CA  EE20 F003          	lfsr	2,3
  1171  0013CE  510F               	movf	workingTimer@selectedTime& (0+255),w,b
  1172  0013D0  26D9               	addwf	fsr2l,f,c
  1173  0013D2  5110               	movf	(workingTimer@selectedTime+1)& (0+255),w,b
  1174  0013D4  22DA               	addwfc	fsr2h,f,c
  1175  0013D6  0100               	movlb	0	; () banked
  1176  0013D8  51E6               	movf	(_counterMIN+1)& (0+255),w,b
  1177  0013DA  18DE               	xorwf	postinc2,w,c
  1178  0013DC  A4D8               	btfss	status,2,c
  1179  0013DE  D016               	goto	l3776
  1180                           
  1181                           ; BSR set to: 0
  1182                           ;SysRiego.c: 615: clearDisplay();
  1183  0013E0  EC3D  F00E         	call	_clearDisplay	;wreg free
  1184                           
  1185                           ;SysRiego.c: 616: displayLineOnLCD("Regando: ", 10);
  1186  0013E4  0E01               	movlw	low STR_1
  1187  0013E6  0101               	movlb	1	; () banked
  1188  0013E8  6F02               	movwf	displayLineOnLCD@array& (0+255),b
  1189  0013EA  0E0D               	movlw	high STR_1
  1190  0013EC  0101               	movlb	1	; () banked
  1191  0013EE  6F03               	movwf	(displayLineOnLCD@array+1)& (0+255),b
  1192  0013F0  0E0A               	movlw	10
  1193  0013F2  0101               	movlb	1	; () banked
  1194  0013F4  6F04               	movwf	displayLineOnLCD@sizeOfArray& (0+255),b
  1195  0013F6  ECB1  F00B         	call	_displayLineOnLCD	;wreg free
  1196                           
  1197                           ;SysRiego.c: 617: displayLineOnLCD(selectedTime, 5);
  1198  0013FA  C10F  F102         	movff	workingTimer@selectedTime,displayLineOnLCD@array
  1199  0013FE  C110  F103         	movff	workingTimer@selectedTime+1,displayLineOnLCD@array+1
  1200  001402  0E05               	movlw	5
  1201  001404  0101               	movlb	1	; () banked
  1202  001406  6F04               	movwf	displayLineOnLCD@sizeOfArray& (0+255),b
  1203  001408  ECB1  F00B         	call	_displayLineOnLCD	;wreg free
  1204  00140C                     l3776:
  1205  00140C  0101               	movlb	1	; () banked
  1206  00140E  2B0E               	incf	workingTimer@i& (0+255),f,b
  1207  001410  D7A0               	goto	l3754
  1208  001412                     l3780:
  1209  001412  0100               	movlb	0	; () banked
  1210  001414  05FB               	decf	_modeSelected& (0+255),w,b
  1211  001416  A4D8               	btfss	status,2,c
  1212  001418  0012               	return	
  1213                           
  1214                           ; BSR set to: 0
  1215  00141A  0100               	movlb	0	; () banked
  1216  00141C  51FC               	movf	_statusConfiguration& (0+255),w,b
  1217  00141E  A4D8               	btfss	status,2,c
  1218  001420  0012               	return	
  1219  001422  D794               	goto	l3752
  1220  001424                     __end_of_workingTimer:
  1221                           	opt stack 0
  1222                           tblptru	equ	0xFF8
  1223                           tblptrh	equ	0xFF7
  1224                           tblptrl	equ	0xFF6
  1225                           tablat	equ	0xFF5
  1226                           prodh	equ	0xFF4
  1227                           prodl	equ	0xFF3
  1228                           intcon	equ	0xFF2
  1229                           intcon2	equ	0xFF1
  1230                           postinc0	equ	0xFEE
  1231                           postdec1	equ	0xFE5
  1232                           fsr1l	equ	0xFE1
  1233                           postinc2	equ	0xFDE
  1234                           postdec2	equ	0xFDD
  1235                           fsr2h	equ	0xFDA
  1236                           fsr2l	equ	0xFD9
  1237                           status	equ	0xFD8
  1238                           
  1239 ;; *************** function _workingManual *****************
  1240 ;; Defined at:
  1241 ;;		line 639 in file "SysRiego.c"
  1242 ;; Parameters:    Size  Location     Type
  1243 ;;		None
  1244 ;; Auto vars:     Size  Location     Type
  1245 ;;		None
  1246 ;; Return value:  Size  Location     Type
  1247 ;;                  1    wreg      void 
  1248 ;; Registers used:
  1249 ;;		wreg, fsr0l, fsr0h, status,2, status,0, tblptrl, tblptrh, tblptru, prodl, prodh, cstack
  1250 ;; Tracked objects:
  1251 ;;		On entry : 0/0
  1252 ;;		On exit  : 0/0
  1253 ;;		Unchanged: 0/0
  1254 ;; Data sizes:     COMRAM   BANK0   BANK1   BANK2   BANK3   BANK4   BANK5   BANK6   BANK7   BANK8   BANK9  BANK10  BANK1
      +1  BANK12
  1255 ;;      Params:         0       0       0       0       0       0       0       0       0       0       0       0       
      +0       0
  1256 ;;      Locals:         0       0       0       0       0       0       0       0       0       0       0       0       
      +0       0
  1257 ;;      Temps:          0       0       0       0       0       0       0       0       0       0       0       0       
      +0       0
  1258 ;;      Totals:         0       0       0       0       0       0       0       0       0       0       0       0       
      +0       0
  1259 ;;Total ram usage:        0 bytes
  1260 ;; Hardware stack levels used:    1
  1261 ;; Hardware stack levels required when called:   11
  1262 ;; This function calls:
  1263 ;;		_clearDisplay
  1264 ;;		_displayLineOnLCD
  1265 ;; This function is called by:
  1266 ;;		_main
  1267 ;; This function uses a non-reentrant model
  1268 ;;
  1269                           
  1270                           	psect	text2
  1271  001A26                     __ptext2:
  1272                           	opt stack 0
  1273  001A26                     _workingManual:
  1274                           	opt stack 19
  1275                           
  1276                           ;SysRiego.c: 641: clearDisplay();
  1277                           
  1278                           ; BSR set to: 0
  1279                           ;incstack = 0
  1280  001A26  EC3D  F00E         	call	_clearDisplay	;wreg free
  1281                           
  1282                           ;SysRiego.c: 642: displayLineOnLCD(manualMessage, sizeof(manualMessage) / sizeof(manualM
      +                          essage[0]));
  1283  001A2A  0E98               	movlw	low _manualMessage
  1284  001A2C  0101               	movlb	1	; () banked
  1285  001A2E  6F02               	movwf	displayLineOnLCD@array& (0+255),b
  1286  001A30  0E00               	movlw	high _manualMessage
  1287  001A32  0101               	movlb	1	; () banked
  1288  001A34  6F03               	movwf	(displayLineOnLCD@array+1)& (0+255),b
  1289  001A36  0E0C               	movlw	12
  1290  001A38  0101               	movlb	1	; () banked
  1291  001A3A  6F04               	movwf	displayLineOnLCD@sizeOfArray& (0+255),b
  1292  001A3C  ECB1  F00B         	call	_displayLineOnLCD	;wreg free
  1293  001A40                     l3788:
  1294  001A40  0E02               	movlw	2
  1295  001A42  0100               	movlb	0	; () banked
  1296  001A44  19FB               	xorwf	_modeSelected& (0+255),w,b
  1297  001A46  A4D8               	btfss	status,2,c
  1298  001A48  0012               	return	
  1299                           
  1300                           ; BSR set to: 0
  1301  001A4A  0100               	movlb	0	; () banked
  1302  001A4C  51FC               	movf	_statusConfiguration& (0+255),w,b
  1303  001A4E  A4D8               	btfss	status,2,c
  1304  001A50  0012               	return	
  1305  001A52  D7F6               	goto	l3788
  1306  001A54                     __end_of_workingManual:
  1307                           	opt stack 0
  1308                           tblptru	equ	0xFF8
  1309                           tblptrh	equ	0xFF7
  1310                           tblptrl	equ	0xFF6
  1311                           tablat	equ	0xFF5
  1312                           prodh	equ	0xFF4
  1313                           prodl	equ	0xFF3
  1314                           intcon	equ	0xFF2
  1315                           intcon2	equ	0xFF1
  1316                           postinc0	equ	0xFEE
  1317                           postdec1	equ	0xFE5
  1318                           fsr1l	equ	0xFE1
  1319                           postinc2	equ	0xFDE
  1320                           postdec2	equ	0xFDD
  1321                           fsr2h	equ	0xFDA
  1322                           fsr2l	equ	0xFD9
  1323                           status	equ	0xFD8
  1324                           
  1325 ;; *************** function _workingAutomatic *****************
  1326 ;; Defined at:
  1327 ;;		line 578 in file "SysRiego.c"
  1328 ;; Parameters:    Size  Location     Type
  1329 ;;		None
  1330 ;; Auto vars:     Size  Location     Type
  1331 ;;		None
  1332 ;; Return value:  Size  Location     Type
  1333 ;;                  1    wreg      void 
  1334 ;; Registers used:
  1335 ;;		wreg, fsr0l, fsr0h, status,2, status,0, tblptrl, tblptrh, tblptru, prodl, prodh, cstack
  1336 ;; Tracked objects:
  1337 ;;		On entry : 0/0
  1338 ;;		On exit  : 0/0
  1339 ;;		Unchanged: 0/0
  1340 ;; Data sizes:     COMRAM   BANK0   BANK1   BANK2   BANK3   BANK4   BANK5   BANK6   BANK7   BANK8   BANK9  BANK10  BANK1
      +1  BANK12
  1341 ;;      Params:         0       0       0       0       0       0       0       0       0       0       0       0       
      +0       0
  1342 ;;      Locals:         0       0       0       0       0       0       0       0       0       0       0       0       
      +0       0
  1343 ;;      Temps:          0       0       0       0       0       0       0       0       0       0       0       0       
      +0       0
  1344 ;;      Totals:         0       0       0       0       0       0       0       0       0       0       0       0       
      +0       0
  1345 ;;Total ram usage:        0 bytes
  1346 ;; Hardware stack levels used:    1
  1347 ;; Hardware stack levels required when called:   11
  1348 ;; This function calls:
  1349 ;;		_clearDisplay
  1350 ;;		_displayLineOnLCD
  1351 ;; This function is called by:
  1352 ;;		_main
  1353 ;; This function uses a non-reentrant model
  1354 ;;
  1355                           
  1356                           	psect	text3
  1357  001A54                     __ptext3:
  1358                           	opt stack 0
  1359  001A54                     _workingAutomatic:
  1360                           	opt stack 19
  1361                           
  1362                           ;SysRiego.c: 581: clearDisplay();
  1363                           
  1364                           ; BSR set to: 0
  1365                           ;incstack = 0
  1366  001A54  EC3D  F00E         	call	_clearDisplay	;wreg free
  1367                           
  1368                           ;SysRiego.c: 582: displayLineOnLCD(automaticMessage, sizeof(automaticMessage) / sizeof(a
      +                          utomaticMessage[0]));
  1369  001A58  0E89               	movlw	low _automaticMessage
  1370  001A5A  0101               	movlb	1	; () banked
  1371  001A5C  6F02               	movwf	displayLineOnLCD@array& (0+255),b
  1372  001A5E  0E00               	movlw	high _automaticMessage
  1373  001A60  0101               	movlb	1	; () banked
  1374  001A62  6F03               	movwf	(displayLineOnLCD@array+1)& (0+255),b
  1375  001A64  0E0F               	movlw	15
  1376  001A66  0101               	movlb	1	; () banked
  1377  001A68  6F04               	movwf	displayLineOnLCD@sizeOfArray& (0+255),b
  1378  001A6A  ECB1  F00B         	call	_displayLineOnLCD	;wreg free
  1379  001A6E                     l3744:
  1380  001A6E  0100               	movlb	0	; () banked
  1381  001A70  51FB               	movf	_modeSelected& (0+255),w,b
  1382  001A72  A4D8               	btfss	status,2,c
  1383  001A74  0012               	return	
  1384                           
  1385                           ; BSR set to: 0
  1386  001A76  0100               	movlb	0	; () banked
  1387  001A78  51FC               	movf	_statusConfiguration& (0+255),w,b
  1388  001A7A  A4D8               	btfss	status,2,c
  1389  001A7C  0012               	return	
  1390  001A7E  D7F7               	goto	l3744
  1391  001A80                     __end_of_workingAutomatic:
  1392                           	opt stack 0
  1393                           tblptru	equ	0xFF8
  1394                           tblptrh	equ	0xFF7
  1395                           tblptrl	equ	0xFF6
  1396                           tablat	equ	0xFF5
  1397                           prodh	equ	0xFF4
  1398                           prodl	equ	0xFF3
  1399                           intcon	equ	0xFF2
  1400                           intcon2	equ	0xFF1
  1401                           postinc0	equ	0xFEE
  1402                           postdec1	equ	0xFE5
  1403                           fsr1l	equ	0xFE1
  1404                           postinc2	equ	0xFDE
  1405                           postdec2	equ	0xFDD
  1406                           fsr2h	equ	0xFDA
  1407                           fsr2l	equ	0xFD9
  1408                           status	equ	0xFD8
  1409                           
  1410 ;; *************** function _timerConfiguration *****************
  1411 ;; Defined at:
  1412 ;;		line 495 in file "SysRiego.c"
  1413 ;; Parameters:    Size  Location     Type
  1414 ;;		None
  1415 ;; Auto vars:     Size  Location     Type
  1416 ;;  input           1    3[BANK1 ] unsigned char 
  1417 ;; Return value:  Size  Location     Type
  1418 ;;                  1    wreg      void 
  1419 ;; Registers used:
  1420 ;;		wreg, status,2, status,0, cstack
  1421 ;; Tracked objects:
  1422 ;;		On entry : 0/0
  1423 ;;		On exit  : 0/0
  1424 ;;		Unchanged: 0/0
  1425 ;; Data sizes:     COMRAM   BANK0   BANK1   BANK2   BANK3   BANK4   BANK5   BANK6   BANK7   BANK8   BANK9  BANK10  BANK1
      +1  BANK12
  1426 ;;      Params:         0       0       0       0       0       0       0       0       0       0       0       0       
      +0       0
  1427 ;;      Locals:         0       0       1       0       0       0       0       0       0       0       0       0       
      +0       0
  1428 ;;      Temps:          0       0       0       0       0       0       0       0       0       0       0       0       
      +0       0
  1429 ;;      Totals:         0       0       1       0       0       0       0       0       0       0       0       0       
      +0       0
  1430 ;;Total ram usage:        1 bytes
  1431 ;; Hardware stack levels used:    1
  1432 ;; Hardware stack levels required when called:   13
  1433 ;; This function calls:
  1434 ;;		_clearDisplay
  1435 ;;		_disableIntRBIE
  1436 ;;		_enableIntRBIE
  1437 ;;		_getInput
  1438 ;; This function is called by:
  1439 ;;		_main
  1440 ;; This function uses a non-reentrant model
  1441 ;;
  1442                           
  1443                           	psect	text4
  1444  001A80                     __ptext4:
  1445                           	opt stack 0
  1446  001A80                     _timerConfiguration:
  1447                           	opt stack 17
  1448                           
  1449                           ;SysRiego.c: 497: disableIntRBIE();
  1450                           
  1451                           ; BSR set to: 0
  1452                           ;incstack = 0
  1453  001A80  EC63  F00E         	call	_disableIntRBIE	;wreg free
  1454                           
  1455                           ;SysRiego.c: 499: unsigned char input = ' ';
  1456  001A84  0E20               	movlw	32
  1457  001A86  0101               	movlb	1	; () banked
  1458  001A88  6F03               	movwf	timerConfiguration@input& (0+255),b
  1459                           
  1460                           ; BSR set to: 1
  1461                           ;SysRiego.c: 501: clearDisplay();
  1462  001A8A  EC3D  F00E         	call	_clearDisplay	;wreg free
  1463                           
  1464                           ;SysRiego.c: 503: if (hourConfiguration == 0) {
  1465  001A8E  5046               	movf	_hourConfiguration,w,c
  1466  001A90  B4D8               	btfsc	status,2,c
  1467  001A92  D006               	goto	l3842
  1468                           
  1469                           ;SysRiego.c: 509: else {
  1470                           ;SysRiego.c: 513: input = getInput();
  1471                           
  1472                           ;SysRiego.c: 508: }
  1473  001A94  EC56  F00D         	call	_getInput	;wreg free
  1474  001A98  0101               	movlb	1	; () banked
  1475  001A9A  6F03               	movwf	timerConfiguration@input& (0+255),b
  1476                           
  1477                           ; BSR set to: 1
  1478                           ;SysRiego.c: 516: hourConfiguration = 0;
  1479  001A9C  0E00               	movlw	0
  1480  001A9E  6E46               	movwf	_hourConfiguration,c
  1481  001AA0                     l3842:
  1482                           
  1483                           ;SysRiego.c: 517: }
  1484                           ;SysRiego.c: 519: enableIntRBIE();
  1485  001AA0  EC5E  F00E         	call	_enableIntRBIE	;wreg free
  1486                           
  1487                           ;SysRiego.c: 521: statusConfiguration = 0;
  1488  001AA4  0E00               	movlw	0
  1489  001AA6  0100               	movlb	0	; () banked
  1490  001AA8  6FFC               	movwf	_statusConfiguration& (0+255),b
  1491                           
  1492                           ; BSR set to: 0
  1493  001AAA  0012               	return		;funcret
  1494  001AAC                     __end_of_timerConfiguration:
  1495                           	opt stack 0
  1496                           tblptru	equ	0xFF8
  1497                           tblptrh	equ	0xFF7
  1498                           tblptrl	equ	0xFF6
  1499                           tablat	equ	0xFF5
  1500                           prodh	equ	0xFF4
  1501                           prodl	equ	0xFF3
  1502                           intcon	equ	0xFF2
  1503                           intcon2	equ	0xFF1
  1504                           postinc0	equ	0xFEE
  1505                           postdec1	equ	0xFE5
  1506                           fsr1l	equ	0xFE1
  1507                           postinc2	equ	0xFDE
  1508                           postdec2	equ	0xFDD
  1509                           fsr2h	equ	0xFDA
  1510                           fsr2l	equ	0xFD9
  1511                           status	equ	0xFD8
  1512                           
  1513 ;; *************** function _manualConfiguration *****************
  1514 ;; Defined at:
  1515 ;;		line 526 in file "SysRiego.c"
  1516 ;; Parameters:    Size  Location     Type
  1517 ;;		None
  1518 ;; Auto vars:     Size  Location     Type
  1519 ;;  input           1   14[BANK1 ] unsigned char 
  1520 ;; Return value:  Size  Location     Type
  1521 ;;                  1    wreg      void 
  1522 ;; Registers used:
  1523 ;;		wreg, fsr0l, fsr0h, fsr2l, fsr2h, status,2, status,0, tblptrl, tblptrh, tblptru, prodl, prodh, cstack
  1524 ;; Tracked objects:
  1525 ;;		On entry : 0/0
  1526 ;;		On exit  : 0/0
  1527 ;;		Unchanged: 0/0
  1528 ;; Data sizes:     COMRAM   BANK0   BANK1   BANK2   BANK3   BANK4   BANK5   BANK6   BANK7   BANK8   BANK9  BANK10  BANK1
      +1  BANK12
  1529 ;;      Params:         0       0       0       0       0       0       0       0       0       0       0       0       
      +0       0
  1530 ;;      Locals:         0       0       1       0       0       0       0       0       0       0       0       0       
      +0       0
  1531 ;;      Temps:          0       0       1       0       0       0       0       0       0       0       0       0       
      +0       0
  1532 ;;      Totals:         0       0       2       0       0       0       0       0       0       0       0       0       
      +0       0
  1533 ;;Total ram usage:        2 bytes
  1534 ;; Hardware stack levels used:    1
  1535 ;; Hardware stack levels required when called:   13
  1536 ;; This function calls:
  1537 ;;		_clearDisplay
  1538 ;;		_disableIntRBIE
  1539 ;;		_displayLineOnLCD
  1540 ;;		_enableIntRBIE
  1541 ;;		_getInput
  1542 ;; This function is called by:
  1543 ;;		_main
  1544 ;; This function uses a non-reentrant model
  1545 ;;
  1546                           
  1547                           	psect	text5
  1548  001226                     __ptext5:
  1549                           	opt stack 0
  1550  001226                     _manualConfiguration:
  1551                           	opt stack 17
  1552                           
  1553                           ;SysRiego.c: 528: disableIntRBIE();
  1554                           
  1555                           ; BSR set to: 0
  1556                           ;incstack = 0
  1557  001226  EC63  F00E         	call	_disableIntRBIE	;wreg free
  1558                           
  1559                           ;SysRiego.c: 530: unsigned char input = ' ';
  1560  00122A  0E20               	movlw	32
  1561  00122C  0101               	movlb	1	; () banked
  1562  00122E  6F0E               	movwf	manualConfiguration@input& (0+255),b
  1563                           
  1564                           ; BSR set to: 1
  1565                           ;SysRiego.c: 532: clearDisplay();
  1566  001230  EC3D  F00E         	call	_clearDisplay	;wreg free
  1567                           
  1568                           ;SysRiego.c: 534: if(*zoneSelected == '1') {
  1569  001234  C0F9  FFD9         	movff	_zoneSelected,fsr2l
  1570  001238  C0FA  FFDA         	movff	_zoneSelected+1,fsr2h
  1571  00123C  0E31               	movlw	49
  1572  00123E  18DE               	xorwf	postinc2,w,c
  1573  001240  A4D8               	btfss	status,2,c
  1574  001242  D00C               	goto	l3856
  1575                           
  1576                           ;SysRiego.c: 535: displayLineOnLCD(manualActiveMessage, sizeof(manualActiveMessage) / si
      +                          zeof(manualActiveMessage[0]));
  1577  001244  0EC3               	movlw	low _manualActiveMessage
  1578  001246  0101               	movlb	1	; () banked
  1579  001248  6F02               	movwf	displayLineOnLCD@array& (0+255),b
  1580  00124A  0E00               	movlw	high _manualActiveMessage
  1581  00124C  0101               	movlb	1	; () banked
  1582  00124E  6F03               	movwf	(displayLineOnLCD@array+1)& (0+255),b
  1583  001250  0E07               	movlw	7
  1584  001252  0101               	movlb	1	; () banked
  1585  001254  6F04               	movwf	displayLineOnLCD@sizeOfArray& (0+255),b
  1586  001256  ECB1  F00B         	call	_displayLineOnLCD	;wreg free
  1587                           
  1588                           ;SysRiego.c: 536: }
  1589  00125A  D05F               	goto	l3878
  1590  00125C                     l3856:
  1591                           
  1592                           ;SysRiego.c: 538: else {
  1593                           ;SysRiego.c: 539: displayLineOnLCD(manualInactiveMessage, sizeof(manualInactiveMessage) 
      +                          / sizeof(manualInactiveMessage[0]));
  1594  00125C  0EBA               	movlw	low _manualInactiveMessage
  1595  00125E  0101               	movlb	1	; () banked
  1596  001260  6F02               	movwf	displayLineOnLCD@array& (0+255),b
  1597  001262  0E00               	movlw	high _manualInactiveMessage
  1598  001264  0101               	movlb	1	; () banked
  1599  001266  6F03               	movwf	(displayLineOnLCD@array+1)& (0+255),b
  1600  001268  0E09               	movlw	9
  1601  00126A  0101               	movlb	1	; () banked
  1602  00126C  6F04               	movwf	displayLineOnLCD@sizeOfArray& (0+255),b
  1603  00126E  ECB1  F00B         	call	_displayLineOnLCD	;wreg free
  1604                           
  1605                           ;SysRiego.c: 540: }
  1606                           ;SysRiego.c: 543: while(input != '#') {
  1607  001272  D053               	goto	l3878
  1608  001274                     l3858:
  1609                           
  1610                           ;SysRiego.c: 545: input = getInput();
  1611  001274  EC56  F00D         	call	_getInput	;wreg free
  1612  001278  0101               	movlb	1	; () banked
  1613  00127A  6F0E               	movwf	manualConfiguration@input& (0+255),b
  1614                           
  1615                           ;SysRiego.c: 547: clearDisplay();
  1616  00127C  EC3D  F00E         	call	_clearDisplay	;wreg free
  1617                           
  1618                           ;SysRiego.c: 549: if(input == '1') {
  1619  001280  0E31               	movlw	49
  1620  001282  0101               	movlb	1	; () banked
  1621  001284  190E               	xorwf	manualConfiguration@input& (0+255),w,b
  1622  001286  A4D8               	btfss	status,2,c
  1623  001288  D012               	goto	l3866
  1624                           
  1625                           ; BSR set to: 1
  1626                           ;SysRiego.c: 550: *zoneSelected = '1';
  1627  00128A  C0F9  FFD9         	movff	_zoneSelected,fsr2l
  1628  00128E  C0FA  FFDA         	movff	_zoneSelected+1,fsr2h
  1629  001292  0E31               	movlw	49
  1630  001294  6EDF               	movwf	indf2,c
  1631                           
  1632                           ; BSR set to: 1
  1633                           ;SysRiego.c: 551: displayLineOnLCD(manualActiveMessage, sizeof(manualActiveMessage) / si
      +                          zeof(manualActiveMessage[0]));
  1634  001296  0EC3               	movlw	low _manualActiveMessage
  1635  001298  0101               	movlb	1	; () banked
  1636  00129A  6F02               	movwf	displayLineOnLCD@array& (0+255),b
  1637  00129C  0E00               	movlw	high _manualActiveMessage
  1638  00129E  0101               	movlb	1	; () banked
  1639  0012A0  6F03               	movwf	(displayLineOnLCD@array+1)& (0+255),b
  1640  0012A2  0E07               	movlw	7
  1641  0012A4  0101               	movlb	1	; () banked
  1642  0012A6  6F04               	movwf	displayLineOnLCD@sizeOfArray& (0+255),b
  1643  0012A8  ECB1  F00B         	call	_displayLineOnLCD	;wreg free
  1644                           
  1645                           ;SysRiego.c: 552: }
  1646  0012AC  D036               	goto	l3878
  1647  0012AE                     l3866:
  1648                           
  1649                           ;SysRiego.c: 554: else if (input == '0') {
  1650  0012AE  0E30               	movlw	48
  1651  0012B0  0101               	movlb	1	; () banked
  1652  0012B2  190E               	xorwf	manualConfiguration@input& (0+255),w,b
  1653  0012B4  A4D8               	btfss	status,2,c
  1654  0012B6  D012               	goto	l3872
  1655                           
  1656                           ; BSR set to: 1
  1657                           ;SysRiego.c: 555: *zoneSelected = '0';
  1658  0012B8  C0F9  FFD9         	movff	_zoneSelected,fsr2l
  1659  0012BC  C0FA  FFDA         	movff	_zoneSelected+1,fsr2h
  1660  0012C0  0E30               	movlw	48
  1661  0012C2  6EDF               	movwf	indf2,c
  1662                           
  1663                           ; BSR set to: 1
  1664                           ;SysRiego.c: 556: displayLineOnLCD(manualInactiveMessage, sizeof(manualInactiveMessage) 
      +                          / sizeof(manualInactiveMessage[0]));
  1665  0012C4  0EBA               	movlw	low _manualInactiveMessage
  1666  0012C6  0101               	movlb	1	; () banked
  1667  0012C8  6F02               	movwf	displayLineOnLCD@array& (0+255),b
  1668  0012CA  0E00               	movlw	high _manualInactiveMessage
  1669  0012CC  0101               	movlb	1	; () banked
  1670  0012CE  6F03               	movwf	(displayLineOnLCD@array+1)& (0+255),b
  1671  0012D0  0E09               	movlw	9
  1672  0012D2  0101               	movlb	1	; () banked
  1673  0012D4  6F04               	movwf	displayLineOnLCD@sizeOfArray& (0+255),b
  1674  0012D6  ECB1  F00B         	call	_displayLineOnLCD	;wreg free
  1675                           
  1676                           ;SysRiego.c: 557: }
  1677  0012DA  D01F               	goto	l3878
  1678  0012DC                     l3872:
  1679                           
  1680                           ;SysRiego.c: 559: else {
  1681                           ;SysRiego.c: 560: if (*zoneSelected == '1') {
  1682  0012DC  C0F9  FFD9         	movff	_zoneSelected,fsr2l
  1683  0012E0  C0FA  FFDA         	movff	_zoneSelected+1,fsr2h
  1684  0012E4  0E31               	movlw	49
  1685  0012E6  18DE               	xorwf	postinc2,w,c
  1686  0012E8  A4D8               	btfss	status,2,c
  1687  0012EA  D00C               	goto	l3876
  1688                           
  1689                           ;SysRiego.c: 561: displayLineOnLCD(manualActiveMessage, sizeof (manualActiveMessage) / s
      +                          izeof (manualActiveMessage[0]));
  1690  0012EC  0EC3               	movlw	low _manualActiveMessage
  1691  0012EE  0101               	movlb	1	; () banked
  1692  0012F0  6F02               	movwf	displayLineOnLCD@array& (0+255),b
  1693  0012F2  0E00               	movlw	high _manualActiveMessage
  1694  0012F4  0101               	movlb	1	; () banked
  1695  0012F6  6F03               	movwf	(displayLineOnLCD@array+1)& (0+255),b
  1696  0012F8  0E07               	movlw	7
  1697  0012FA  0101               	movlb	1	; () banked
  1698  0012FC  6F04               	movwf	displayLineOnLCD@sizeOfArray& (0+255),b
  1699  0012FE  ECB1  F00B         	call	_displayLineOnLCD	;wreg free
  1700                           
  1701                           ;SysRiego.c: 562: }
  1702  001302  D00B               	goto	l3878
  1703  001304                     l3876:
  1704                           
  1705                           ;SysRiego.c: 563: else {
  1706                           ;SysRiego.c: 564: displayLineOnLCD(manualInactiveMessage, sizeof (manualInactiveMessage)
      +                           / sizeof (manualInactiveMessage[0]));
  1707  001304  0EBA               	movlw	low _manualInactiveMessage
  1708  001306  0101               	movlb	1	; () banked
  1709  001308  6F02               	movwf	displayLineOnLCD@array& (0+255),b
  1710  00130A  0E00               	movlw	high _manualInactiveMessage
  1711  00130C  0101               	movlb	1	; () banked
  1712  00130E  6F03               	movwf	(displayLineOnLCD@array+1)& (0+255),b
  1713  001310  0E09               	movlw	9
  1714  001312  0101               	movlb	1	; () banked
  1715  001314  6F04               	movwf	displayLineOnLCD@sizeOfArray& (0+255),b
  1716  001316  ECB1  F00B         	call	_displayLineOnLCD	;wreg free
  1717  00131A                     l3878:
  1718  00131A  0E23               	movlw	35
  1719  00131C  0101               	movlb	1	; () banked
  1720  00131E  190E               	xorwf	manualConfiguration@input& (0+255),w,b
  1721  001320  A4D8               	btfss	status,2,c
  1722  001322  D7A8               	goto	l3858
  1723                           
  1724                           ; BSR set to: 1
  1725                           ;SysRiego.c: 565: }
  1726                           ;SysRiego.c: 566: }
  1727                           ;SysRiego.c: 568: }
  1728                           ;SysRiego.c: 570: enableIntRBIE();
  1729                           
  1730                           ; BSR set to: 1
  1731  001324  EC5E  F00E         	call	_enableIntRBIE	;wreg free
  1732                           
  1733                           ;SysRiego.c: 572: statusConfiguration = 0;
  1734  001328  0E00               	movlw	0
  1735  00132A  0100               	movlb	0	; () banked
  1736  00132C  6FFC               	movwf	_statusConfiguration& (0+255),b
  1737                           
  1738                           ; BSR set to: 0
  1739  00132E  0012               	return		;funcret
  1740  001330                     __end_of_manualConfiguration:
  1741                           	opt stack 0
  1742                           tblptru	equ	0xFF8
  1743                           tblptrh	equ	0xFF7
  1744                           tblptrl	equ	0xFF6
  1745                           tablat	equ	0xFF5
  1746                           prodh	equ	0xFF4
  1747                           prodl	equ	0xFF3
  1748                           intcon	equ	0xFF2
  1749                           intcon2	equ	0xFF1
  1750                           postinc0	equ	0xFEE
  1751                           postdec1	equ	0xFE5
  1752                           fsr1l	equ	0xFE1
  1753                           indf2	equ	0xFDF
  1754                           postinc2	equ	0xFDE
  1755                           postdec2	equ	0xFDD
  1756                           fsr2h	equ	0xFDA
  1757                           fsr2l	equ	0xFD9
  1758                           status	equ	0xFD8
  1759                           
  1760 ;; *************** function _automaticConfiguration *****************
  1761 ;; Defined at:
  1762 ;;		line 460 in file "SysRiego.c"
  1763 ;; Parameters:    Size  Location     Type
  1764 ;;		None
  1765 ;; Auto vars:     Size  Location     Type
  1766 ;;  input           1   15[BANK1 ] unsigned char 
  1767 ;;  counter         1   14[BANK1 ] unsigned char 
  1768 ;; Return value:  Size  Location     Type
  1769 ;;                  1    wreg      void 
  1770 ;; Registers used:
  1771 ;;		wreg, fsr0l, fsr0h, fsr2l, fsr2h, status,2, status,0, tblptrl, tblptrh, tblptru, prodl, prodh, cstack
  1772 ;; Tracked objects:
  1773 ;;		On entry : 0/0
  1774 ;;		On exit  : 0/0
  1775 ;;		Unchanged: 0/0
  1776 ;; Data sizes:     COMRAM   BANK0   BANK1   BANK2   BANK3   BANK4   BANK5   BANK6   BANK7   BANK8   BANK9  BANK10  BANK1
      +1  BANK12
  1777 ;;      Params:         0       0       0       0       0       0       0       0       0       0       0       0       
      +0       0
  1778 ;;      Locals:         0       0       2       0       0       0       0       0       0       0       0       0       
      +0       0
  1779 ;;      Temps:          0       0       1       0       0       0       0       0       0       0       0       0       
      +0       0
  1780 ;;      Totals:         0       0       3       0       0       0       0       0       0       0       0       0       
      +0       0
  1781 ;;Total ram usage:        3 bytes
  1782 ;; Hardware stack levels used:    1
  1783 ;; Hardware stack levels required when called:   13
  1784 ;; This function calls:
  1785 ;;		_clearDisplay
  1786 ;;		_disableIntRBIE
  1787 ;;		_displayCharOnLCD
  1788 ;;		_displayLineOnLCD
  1789 ;;		_enableIntRBIE
  1790 ;;		_getInput
  1791 ;; This function is called by:
  1792 ;;		_main
  1793 ;; This function uses a non-reentrant model
  1794 ;;
  1795                           
  1796                           	psect	text6
  1797  0015D4                     __ptext6:
  1798                           	opt stack 0
  1799  0015D4                     _automaticConfiguration:
  1800                           	opt stack 17
  1801                           
  1802                           ;SysRiego.c: 463: disableIntRBIE();
  1803                           
  1804                           ; BSR set to: 0
  1805                           ;incstack = 0
  1806  0015D4  EC63  F00E         	call	_disableIntRBIE	;wreg free
  1807                           
  1808                           ;SysRiego.c: 465: unsigned char input = ' ';
  1809  0015D8  0E20               	movlw	32
  1810  0015DA  0101               	movlb	1	; () banked
  1811  0015DC  6F0F               	movwf	automaticConfiguration@input& (0+255),b
  1812                           
  1813                           ; BSR set to: 1
  1814                           ;SysRiego.c: 466: unsigned char counter = 0;
  1815  0015DE  0E00               	movlw	0
  1816  0015E0  0101               	movlb	1	; () banked
  1817  0015E2  6F0E               	movwf	automaticConfiguration@counter& (0+255),b
  1818                           
  1819                           ; BSR set to: 1
  1820                           ;SysRiego.c: 468: clearDisplay();
  1821  0015E4  EC3D  F00E         	call	_clearDisplay	;wreg free
  1822                           
  1823                           ;SysRiego.c: 469: displayLineOnLCD(configAutoMessage, sizeof(configAutoMessage) / sizeof
      +                          (configAutoMessage[0]));
  1824  0015E8  0EA4               	movlw	low _configAutoMessage
  1825  0015EA  0101               	movlb	1	; () banked
  1826  0015EC  6F02               	movwf	displayLineOnLCD@array& (0+255),b
  1827  0015EE  0E00               	movlw	high _configAutoMessage
  1828  0015F0  0101               	movlb	1	; () banked
  1829  0015F2  6F03               	movwf	(displayLineOnLCD@array+1)& (0+255),b
  1830  0015F4  0E0B               	movlw	11
  1831  0015F6  0101               	movlb	1	; () banked
  1832  0015F8  6F04               	movwf	displayLineOnLCD@sizeOfArray& (0+255),b
  1833  0015FA  ECB1  F00B         	call	_displayLineOnLCD	;wreg free
  1834                           
  1835                           ;SysRiego.c: 470: displayCharOnLCD(zoneSelected[0]);
  1836  0015FE  C0F9  FFD9         	movff	_zoneSelected,fsr2l
  1837  001602  C0FA  FFDA         	movff	_zoneSelected+1,fsr2h
  1838  001606  50DF               	movf	indf2,w,c
  1839  001608  EC09  F00E         	call	_displayCharOnLCD
  1840                           
  1841                           ;SysRiego.c: 471: displayCharOnLCD(zoneSelected[1]);
  1842  00160C  0100               	movlb	0	; () banked
  1843  00160E  EE20 F001          	lfsr	2,1
  1844  001612  51F9               	movf	_zoneSelected& (0+255),w,b
  1845  001614  26D9               	addwf	fsr2l,f,c
  1846  001616  51FA               	movf	(_zoneSelected+1)& (0+255),w,b
  1847  001618  22DA               	addwfc	fsr2h,f,c
  1848  00161A  50DF               	movf	indf2,w,c
  1849  00161C  EC09  F00E         	call	_displayCharOnLCD
  1850                           
  1851                           ;SysRiego.c: 474: while(input != '#') {
  1852  001620  D032               	goto	l3822
  1853  001622                     l3806:
  1854                           
  1855                           ;SysRiego.c: 476: input = getInput();
  1856  001622  EC56  F00D         	call	_getInput	;wreg free
  1857  001626  0101               	movlb	1	; () banked
  1858  001628  6F0F               	movwf	automaticConfiguration@input& (0+255),b
  1859                           
  1860                           ; BSR set to: 1
  1861                           ;SysRiego.c: 478: if(input != '#') {
  1862  00162A  0E23               	movlw	35
  1863  00162C  0101               	movlb	1	; () banked
  1864  00162E  190F               	xorwf	automaticConfiguration@input& (0+255),w,b
  1865  001630  B4D8               	btfsc	status,2,c
  1866  001632  D029               	goto	l3822
  1867                           
  1868                           ; BSR set to: 1
  1869                           ;SysRiego.c: 479: zoneSelected[counter%2] = input;
  1870  001634  C10E  F10D         	movff	automaticConfiguration@counter,??_automaticConfiguration
  1871  001638  0E01               	movlw	1
  1872  00163A  0101               	movlb	1	; () banked
  1873  00163C  170D               	andwf	??_automaticConfiguration& (0+255),f,b
  1874  00163E  0101               	movlb	1	; () banked
  1875  001640  510D               	movf	??_automaticConfiguration& (0+255),w,b
  1876  001642  0100               	movlb	0	; () banked
  1877  001644  25F9               	addwf	_zoneSelected& (0+255),w,b
  1878  001646  6ED9               	movwf	fsr2l,c
  1879  001648  0101               	movlb	1	; () banked
  1880  00164A  0E00               	movlw	0
  1881  00164C  0100               	movlb	0	; () banked
  1882  00164E  21FA               	addwfc	(_zoneSelected+1)& (0+255),w,b
  1883  001650  6EDA               	movwf	fsr2h,c
  1884  001652  C10F  FFDF         	movff	automaticConfiguration@input,indf2
  1885                           
  1886                           ; BSR set to: 0
  1887                           ;SysRiego.c: 480: clearDisplay();
  1888  001656  EC3D  F00E         	call	_clearDisplay	;wreg free
  1889                           
  1890                           ;SysRiego.c: 481: displayCharOnLCD(zoneSelected[0]);
  1891  00165A  C0F9  FFD9         	movff	_zoneSelected,fsr2l
  1892  00165E  C0FA  FFDA         	movff	_zoneSelected+1,fsr2h
  1893  001662  50DF               	movf	indf2,w,c
  1894  001664  EC09  F00E         	call	_displayCharOnLCD
  1895                           
  1896                           ;SysRiego.c: 482: displayCharOnLCD(zoneSelected[1]);
  1897  001668  0100               	movlb	0	; () banked
  1898  00166A  EE20 F001          	lfsr	2,1
  1899  00166E  51F9               	movf	_zoneSelected& (0+255),w,b
  1900  001670  26D9               	addwf	fsr2l,f,c
  1901  001672  51FA               	movf	(_zoneSelected+1)& (0+255),w,b
  1902  001674  22DA               	addwfc	fsr2h,f,c
  1903  001676  50DF               	movf	indf2,w,c
  1904  001678  EC09  F00E         	call	_displayCharOnLCD
  1905                           
  1906                           ;SysRiego.c: 483: displayCharOnLCD('%');
  1907  00167C  0E25               	movlw	37
  1908  00167E  EC09  F00E         	call	_displayCharOnLCD
  1909                           
  1910                           ;SysRiego.c: 484: counter++;
  1911  001682  0101               	movlb	1	; () banked
  1912  001684  2B0E               	incf	automaticConfiguration@counter& (0+255),f,b
  1913  001686                     l3822:
  1914  001686  0E23               	movlw	35
  1915  001688  0101               	movlb	1	; () banked
  1916  00168A  190F               	xorwf	automaticConfiguration@input& (0+255),w,b
  1917  00168C  A4D8               	btfss	status,2,c
  1918  00168E  D7C9               	goto	l3806
  1919                           
  1920                           ; BSR set to: 1
  1921                           ;SysRiego.c: 485: }
  1922                           ;SysRiego.c: 487: }
  1923                           ;SysRiego.c: 489: enableIntRBIE();
  1924                           
  1925                           ; BSR set to: 1
  1926  001690  EC5E  F00E         	call	_enableIntRBIE	;wreg free
  1927                           
  1928                           ;SysRiego.c: 491: statusConfiguration = 0;
  1929  001694  0E00               	movlw	0
  1930  001696  0100               	movlb	0	; () banked
  1931  001698  6FFC               	movwf	_statusConfiguration& (0+255),b
  1932                           
  1933                           ; BSR set to: 0
  1934  00169A  0012               	return		;funcret
  1935  00169C                     __end_of_automaticConfiguration:
  1936                           	opt stack 0
  1937                           tblptru	equ	0xFF8
  1938                           tblptrh	equ	0xFF7
  1939                           tblptrl	equ	0xFF6
  1940                           tablat	equ	0xFF5
  1941                           prodh	equ	0xFF4
  1942                           prodl	equ	0xFF3
  1943                           intcon	equ	0xFF2
  1944                           intcon2	equ	0xFF1
  1945                           postinc0	equ	0xFEE
  1946                           postdec1	equ	0xFE5
  1947                           fsr1l	equ	0xFE1
  1948                           indf2	equ	0xFDF
  1949                           postinc2	equ	0xFDE
  1950                           postdec2	equ	0xFDD
  1951                           fsr2h	equ	0xFDA
  1952                           fsr2l	equ	0xFD9
  1953                           status	equ	0xFD8
  1954                           
  1955 ;; *************** function _getInput *****************
  1956 ;; Defined at:
  1957 ;;		line 746 in file "SysRiego.c"
  1958 ;; Parameters:    Size  Location     Type
  1959 ;;		None
  1960 ;; Auto vars:     Size  Location     Type
  1961 ;;		None
  1962 ;; Return value:  Size  Location     Type
  1963 ;;                  1    wreg      unsigned char 
  1964 ;; Registers used:
  1965 ;;		wreg, status,2, status,0, cstack
  1966 ;; Tracked objects:
  1967 ;;		On entry : 0/0
  1968 ;;		On exit  : 0/0
  1969 ;;		Unchanged: 0/0
  1970 ;; Data sizes:     COMRAM   BANK0   BANK1   BANK2   BANK3   BANK4   BANK5   BANK6   BANK7   BANK8   BANK9  BANK10  BANK1
      +1  BANK12
  1971 ;;      Params:         0       0       0       0       0       0       0       0       0       0       0       0       
      +0       0
  1972 ;;      Locals:         0       0       0       0       0       0       0       0       0       0       0       0       
      +0       0
  1973 ;;      Temps:          0       0       0       0       0       0       0       0       0       0       0       0       
      +0       0
  1974 ;;      Totals:         0       0       0       0       0       0       0       0       0       0       0       0       
      +0       0
  1975 ;;Total ram usage:        0 bytes
  1976 ;; Hardware stack levels used:    1
  1977 ;; Hardware stack levels required when called:   12
  1978 ;; This function calls:
  1979 ;;		_groundAllRows
  1980 ;;		_readInput
  1981 ;;		_resetReadInput
  1982 ;; This function is called by:
  1983 ;;		_automaticConfiguration
  1984 ;;		_timerConfiguration
  1985 ;;		_manualConfiguration
  1986 ;; This function uses a non-reentrant model
  1987 ;;
  1988                           
  1989                           	psect	text7
  1990  001AAC                     __ptext7:
  1991                           	opt stack 0
  1992  001AAC                     _getInput:
  1993                           	opt stack 17
  1994                           
  1995                           ;SysRiego.c: 748: getValueStatus = 0;
  1996                           
  1997                           ; BSR set to: 0
  1998                           ;incstack = 0
  1999  001AAC  0E00               	movlw	0
  2000  001AAE  6E45               	movwf	_getValueStatus,c
  2001                           
  2002                           ;SysRiego.c: 750: oneShotFlag = 0;
  2003  001AB0  0E00               	movlw	0
  2004  001AB2  6E48               	movwf	_oneShotFlag,c
  2005                           
  2006                           ;SysRiego.c: 752: while(getValueStatus == 0) {
  2007  001AB4  D00B               	goto	l3724
  2008  001AB6                     l3714:
  2009                           
  2010                           ;SysRiego.c: 754: groundAllRows();
  2011  001AB6  EC59  F00E         	call	_groundAllRows	;wreg free
  2012                           
  2013                           ;SysRiego.c: 756: if (PORTB != 0xF0) {
  2014  001ABA  0EF0               	movlw	240
  2015  001ABC  1881               	xorwf	3969,w,c	;volatile
  2016  001ABE  A4D8               	btfss	status,2,c
  2017                           
  2018                           ;SysRiego.c: 757: readInput();
  2019  001AC0  ECB5  F00D         	call	_readInput	;wreg free
  2020                           
  2021                           ;SysRiego.c: 758: }
  2022                           ;SysRiego.c: 760: if (oneShotFlag == 1) {
  2023  001AC4  0448               	decf	_oneShotFlag,w,c
  2024  001AC6  B4D8               	btfsc	status,2,c
  2025                           
  2026                           ;SysRiego.c: 761: resetReadInput();
  2027  001AC8  ECA6  F00D         	call	_resetReadInput	;wreg free
  2028  001ACC                     l3724:
  2029  001ACC  5045               	movf	_getValueStatus,w,c
  2030  001ACE  B4D8               	btfsc	status,2,c
  2031  001AD0  D7F2               	goto	l3714
  2032                           
  2033                           ;SysRiego.c: 762: }
  2034                           ;SysRiego.c: 764: }
  2035                           ;SysRiego.c: 766: return keyCode;
  2036  001AD2  5047               	movf	_keyCode,w,c
  2037  001AD4  0012               	return	
  2038  001AD6                     __end_of_getInput:
  2039                           	opt stack 0
  2040                           tblptru	equ	0xFF8
  2041                           tblptrh	equ	0xFF7
  2042                           tblptrl	equ	0xFF6
  2043                           tablat	equ	0xFF5
  2044                           prodh	equ	0xFF4
  2045                           prodl	equ	0xFF3
  2046                           intcon	equ	0xFF2
  2047                           intcon2	equ	0xFF1
  2048                           postinc0	equ	0xFEE
  2049                           postdec1	equ	0xFE5
  2050                           fsr1l	equ	0xFE1
  2051                           indf2	equ	0xFDF
  2052                           postinc2	equ	0xFDE
  2053                           postdec2	equ	0xFDD
  2054                           fsr2h	equ	0xFDA
  2055                           fsr2l	equ	0xFD9
  2056                           status	equ	0xFD8
  2057                           
  2058 ;; *************** function _resetReadInput *****************
  2059 ;; Defined at:
  2060 ;;		line 1165 in file "SysRiego.c"
  2061 ;; Parameters:    Size  Location     Type
  2062 ;;		None
  2063 ;; Auto vars:     Size  Location     Type
  2064 ;;		None
  2065 ;; Return value:  Size  Location     Type
  2066 ;;                  1    wreg      void 
  2067 ;; Registers used:
  2068 ;;		wreg, status,2, status,0, cstack
  2069 ;; Tracked objects:
  2070 ;;		On entry : 0/0
  2071 ;;		On exit  : 0/0
  2072 ;;		Unchanged: 0/0
  2073 ;; Data sizes:     COMRAM   BANK0   BANK1   BANK2   BANK3   BANK4   BANK5   BANK6   BANK7   BANK8   BANK9  BANK10  BANK1
      +1  BANK12
  2074 ;;      Params:         0       0       0       0       0       0       0       0       0       0       0       0       
      +0       0
  2075 ;;      Locals:         0       0       0       0       0       0       0       0       0       0       0       0       
      +0       0
  2076 ;;      Temps:          0       0       0       0       0       0       0       0       0       0       0       0       
      +0       0
  2077 ;;      Totals:         0       0       0       0       0       0       0       0       0       0       0       0       
      +0       0
  2078 ;;Total ram usage:        0 bytes
  2079 ;; Hardware stack levels used:    1
  2080 ;; Hardware stack levels required when called:    9
  2081 ;; This function calls:
  2082 ;;		_delay
  2083 ;; This function is called by:
  2084 ;;		_getInput
  2085 ;; This function uses a non-reentrant model
  2086 ;;
  2087                           
  2088                           	psect	text8
  2089  001B4C                     __ptext8:
  2090                           	opt stack 0
  2091  001B4C                     _resetReadInput:
  2092                           	opt stack 19
  2093                           
  2094                           ;SysRiego.c: 1166: if (PORTB == 0xF0)
  2095                           
  2096                           ;incstack = 0
  2097  001B4C  0EF0               	movlw	240
  2098  001B4E  1881               	xorwf	3969,w,c	;volatile
  2099  001B50  A4D8               	btfss	status,2,c
  2100  001B52  0012               	return	
  2101                           
  2102                           ;SysRiego.c: 1167: delay();
  2103  001B54  EC6B  F00D         	call	_delay	;wreg free
  2104                           
  2105                           ;SysRiego.c: 1170: if (PORTB == 0XF0){
  2106                           
  2107                           ;SysRiego.c: 1168: else
  2108                           ;SysRiego.c: 1169: return;
  2109  001B58  0EF0               	movlw	240
  2110  001B5A  1881               	xorwf	3969,w,c	;volatile
  2111  001B5C  A4D8               	btfss	status,2,c
  2112  001B5E  0012               	return	
  2113                           
  2114                           ;SysRiego.c: 1171: oneShotFlag = 0;
  2115  001B60  0E00               	movlw	0
  2116  001B62  6E48               	movwf	_oneShotFlag,c
  2117                           
  2118                           ;SysRiego.c: 1172: getValueStatus = 1;
  2119  001B64  0E01               	movlw	1
  2120  001B66  6E45               	movwf	_getValueStatus,c
  2121  001B68  0012               	return	
  2122  001B6A                     __end_of_resetReadInput:
  2123                           	opt stack 0
  2124                           tblptru	equ	0xFF8
  2125                           tblptrh	equ	0xFF7
  2126                           tblptrl	equ	0xFF6
  2127                           tablat	equ	0xFF5
  2128                           prodh	equ	0xFF4
  2129                           prodl	equ	0xFF3
  2130                           intcon	equ	0xFF2
  2131                           intcon2	equ	0xFF1
  2132                           postinc0	equ	0xFEE
  2133                           postdec1	equ	0xFE5
  2134                           fsr1l	equ	0xFE1
  2135                           indf2	equ	0xFDF
  2136                           postinc2	equ	0xFDE
  2137                           postdec2	equ	0xFDD
  2138                           fsr2h	equ	0xFDA
  2139                           fsr2l	equ	0xFD9
  2140                           status	equ	0xFD8
  2141                           
  2142 ;; *************** function _readInput *****************
  2143 ;; Defined at:
  2144 ;;		line 1142 in file "SysRiego.c"
  2145 ;; Parameters:    Size  Location     Type
  2146 ;;		None
  2147 ;; Auto vars:     Size  Location     Type
  2148 ;;		None
  2149 ;; Return value:  Size  Location     Type
  2150 ;;                  1    wreg      void 
  2151 ;; Registers used:
  2152 ;;		wreg, status,2, status,0, cstack
  2153 ;; Tracked objects:
  2154 ;;		On entry : 0/0
  2155 ;;		On exit  : 0/0
  2156 ;;		Unchanged: 0/0
  2157 ;; Data sizes:     COMRAM   BANK0   BANK1   BANK2   BANK3   BANK4   BANK5   BANK6   BANK7   BANK8   BANK9  BANK10  BANK1
      +1  BANK12
  2158 ;;      Params:         0       0       0       0       0       0       0       0       0       0       0       0       
      +0       0
  2159 ;;      Locals:         0       0       0       0       0       0       0       0       0       0       0       0       
      +0       0
  2160 ;;      Temps:          0       0       0       0       0       0       0       0       0       0       0       0       
      +0       0
  2161 ;;      Totals:         0       0       0       0       0       0       0       0       0       0       0       0       
      +0       0
  2162 ;;Total ram usage:        0 bytes
  2163 ;; Hardware stack levels used:    1
  2164 ;; Hardware stack levels required when called:   11
  2165 ;; This function calls:
  2166 ;;		_delay
  2167 ;;		_readKey
  2168 ;; This function is called by:
  2169 ;;		_getInput
  2170 ;; This function uses a non-reentrant model
  2171 ;;
  2172                           
  2173                           	psect	text9
  2174  001B6A                     __ptext9:
  2175                           	opt stack 0
  2176  001B6A                     _readInput:
  2177                           	opt stack 17
  2178                           
  2179                           ;SysRiego.c: 1143: if (oneShotFlag == 1)
  2180                           
  2181                           ;incstack = 0
  2182  001B6A  0448               	decf	_oneShotFlag,w,c
  2183  001B6C  B4D8               	btfsc	status,2,c
  2184  001B6E  0012               	return	
  2185                           
  2186                           ;SysRiego.c: 1145: delay();
  2187                           
  2188                           ;SysRiego.c: 1144: return;
  2189  001B70  EC6B  F00D         	call	_delay	;wreg free
  2190                           
  2191                           ;SysRiego.c: 1146: if (PORTB != 0xF0){
  2192  001B74  0EF0               	movlw	240
  2193  001B76  1881               	xorwf	3969,w,c	;volatile
  2194  001B78  B4D8               	btfsc	status,2,c
  2195  001B7A  0012               	return	
  2196                           
  2197                           ;SysRiego.c: 1147: readKey();
  2198  001B7C  ECF3  F00C         	call	_readKey	;wreg free
  2199                           
  2200                           ;SysRiego.c: 1148: oneShotFlag = 1;
  2201  001B80  0E01               	movlw	1
  2202  001B82  6E48               	movwf	_oneShotFlag,c
  2203  001B84  0012               	return	
  2204  001B86                     __end_of_readInput:
  2205                           	opt stack 0
  2206                           tblptru	equ	0xFF8
  2207                           tblptrh	equ	0xFF7
  2208                           tblptrl	equ	0xFF6
  2209                           tablat	equ	0xFF5
  2210                           prodh	equ	0xFF4
  2211                           prodl	equ	0xFF3
  2212                           intcon	equ	0xFF2
  2213                           intcon2	equ	0xFF1
  2214                           postinc0	equ	0xFEE
  2215                           postdec1	equ	0xFE5
  2216                           fsr1l	equ	0xFE1
  2217                           indf2	equ	0xFDF
  2218                           postinc2	equ	0xFDE
  2219                           postdec2	equ	0xFDD
  2220                           fsr2h	equ	0xFDA
  2221                           fsr2l	equ	0xFD9
  2222                           status	equ	0xFD8
  2223                           
  2224 ;; *************** function _readKey *****************
  2225 ;; Defined at:
  2226 ;;		line 1152 in file "SysRiego.c"
  2227 ;; Parameters:    Size  Location     Type
  2228 ;;		None
  2229 ;; Auto vars:     Size  Location     Type
  2230 ;;		None
  2231 ;; Return value:  Size  Location     Type
  2232 ;;                  1    wreg      void 
  2233 ;; Registers used:
  2234 ;;		wreg, status,2, status,0, cstack
  2235 ;; Tracked objects:
  2236 ;;		On entry : 0/0
  2237 ;;		On exit  : 0/0
  2238 ;;		Unchanged: 0/0
  2239 ;; Data sizes:     COMRAM   BANK0   BANK1   BANK2   BANK3   BANK4   BANK5   BANK6   BANK7   BANK8   BANK9  BANK10  BANK1
      +1  BANK12
  2240 ;;      Params:         0       0       0       0       0       0       0       0       0       0       0       0       
      +0       0
  2241 ;;      Locals:         0       0       0       0       0       0       0       0       0       0       0       0       
      +0       0
  2242 ;;      Temps:          0       0       0       0       0       0       0       0       0       0       0       0       
      +0       0
  2243 ;;      Totals:         0       0       0       0       0       0       0       0       0       0       0       0       
      +0       0
  2244 ;;Total ram usage:        0 bytes
  2245 ;; Hardware stack levels used:    1
  2246 ;; Hardware stack levels required when called:   10
  2247 ;; This function calls:
  2248 ;;		_determinePressedRow
  2249 ;;		_getKeyCode
  2250 ;; This function is called by:
  2251 ;;		_readInput
  2252 ;; This function uses a non-reentrant model
  2253 ;;
  2254                           
  2255                           	psect	text10
  2256  0019E6                     __ptext10:
  2257                           	opt stack 0
  2258  0019E6                     _readKey:
  2259                           	opt stack 17
  2260                           
  2261                           ;SysRiego.c: 1154: switch(PORTB){
  2262                           
  2263                           ;incstack = 0
  2264  0019E6  D00B               	goto	l3620
  2265  0019E8                     l3610:
  2266  0019E8  0E01               	movlw	1
  2267  0019EA  D007               	goto	L4
  2268  0019EC                     l3612:
  2269  0019EC  0E02               	movlw	2
  2270  0019EE  D005               	goto	L4
  2271  0019F0                     l3614:
  2272  0019F0  0E03               	movlw	3
  2273  0019F2  D003               	goto	L4
  2274  0019F4                     l3616:
  2275  0019F4  0E04               	movlw	4
  2276  0019F6  D001               	goto	L4
  2277  0019F8                     l3618:
  2278  0019F8  0E64               	movlw	100
  2279  0019FA                     L4:
  2280  0019FA  6E44               	movwf	_columnSelected,c
  2281                           
  2282                           ;SysRiego.c: 1160: }
  2283  0019FC  D00E               	goto	l3622
  2284  0019FE                     l3620:
  2285  0019FE  5081               	movf	3969,w,c	;volatile
  2286                           
  2287                           ; Switch size 1, requested type "space"
  2288                           ; Number of cases is 4, Range of values is 112 to 224
  2289                           ; switch strategies available:
  2290                           ; Name         Instructions Cycles
  2291                           ; simple_byte           13     7 (average)
  2292                           ;	Chosen strategy is simple_byte
  2293  001A00  0A70               	xorlw	112	; case 112
  2294  001A02  B4D8               	btfsc	status,2,c
  2295  001A04  D7F7               	goto	l3616
  2296  001A06  0AC0               	xorlw	192	; case 176
  2297  001A08  B4D8               	btfsc	status,2,c
  2298  001A0A  D7F2               	goto	l3614
  2299  001A0C  0A60               	xorlw	96	; case 208
  2300  001A0E  B4D8               	btfsc	status,2,c
  2301  001A10  D7ED               	goto	l3612
  2302  001A12  0A30               	xorlw	48	; case 224
  2303  001A14  B4D8               	btfsc	status,2,c
  2304  001A16  D7E8               	goto	l3610
  2305  001A18  D7EF               	goto	l3618
  2306  001A1A                     l3622:
  2307                           
  2308                           ;SysRiego.c: 1161: determinePressedRow();
  2309  001A1A  ECE5  F007         	call	_determinePressedRow	;wreg free
  2310                           
  2311                           ;SysRiego.c: 1162: keyCode = getKeyCode();
  2312  001A1E  EC12  F00A         	call	_getKeyCode	;wreg free
  2313  001A22  6E47               	movwf	_keyCode,c
  2314  001A24  0012               	return		;funcret
  2315  001A26                     __end_of_readKey:
  2316                           	opt stack 0
  2317                           tblptru	equ	0xFF8
  2318                           tblptrh	equ	0xFF7
  2319                           tblptrl	equ	0xFF6
  2320                           tablat	equ	0xFF5
  2321                           prodh	equ	0xFF4
  2322                           prodl	equ	0xFF3
  2323                           intcon	equ	0xFF2
  2324                           intcon2	equ	0xFF1
  2325                           postinc0	equ	0xFEE
  2326                           postdec1	equ	0xFE5
  2327                           fsr1l	equ	0xFE1
  2328                           indf2	equ	0xFDF
  2329                           postinc2	equ	0xFDE
  2330                           postdec2	equ	0xFDD
  2331                           fsr2h	equ	0xFDA
  2332                           fsr2l	equ	0xFD9
  2333                           status	equ	0xFD8
  2334                           
  2335 ;; *************** function _getKeyCode *****************
  2336 ;; Defined at:
  2337 ;;		line 917 in file "SysRiego.c"
  2338 ;; Parameters:    Size  Location     Type
  2339 ;;		None
  2340 ;; Auto vars:     Size  Location     Type
  2341 ;;		None
  2342 ;; Return value:  Size  Location     Type
  2343 ;;                  1    wreg      unsigned char 
  2344 ;; Registers used:
  2345 ;;		wreg, status,2, status,0
  2346 ;; Tracked objects:
  2347 ;;		On entry : 0/0
  2348 ;;		On exit  : 0/0
  2349 ;;		Unchanged: 0/0
  2350 ;; Data sizes:     COMRAM   BANK0   BANK1   BANK2   BANK3   BANK4   BANK5   BANK6   BANK7   BANK8   BANK9  BANK10  BANK1
      +1  BANK12
  2351 ;;      Params:         0       0       0       0       0       0       0       0       0       0       0       0       
      +0       0
  2352 ;;      Locals:         0       0       0       0       0       0       0       0       0       0       0       0       
      +0       0
  2353 ;;      Temps:          0       0       0       0       0       0       0       0       0       0       0       0       
      +0       0
  2354 ;;      Totals:         0       0       0       0       0       0       0       0       0       0       0       0       
      +0       0
  2355 ;;Total ram usage:        0 bytes
  2356 ;; Hardware stack levels used:    1
  2357 ;; Hardware stack levels required when called:    8
  2358 ;; This function calls:
  2359 ;;		Nothing
  2360 ;; This function is called by:
  2361 ;;		_readKey
  2362 ;; This function uses a non-reentrant model
  2363 ;;
  2364                           
  2365                           	psect	text11
  2366  001424                     __ptext11:
  2367                           	opt stack 0
  2368  001424                     _getKeyCode:
  2369                           	opt stack 18
  2370                           
  2371                           ;SysRiego.c: 918: if(rowSelected == 1){
  2372                           
  2373                           ;incstack = 0
  2374  001424  0449               	decf	_rowSelected,w,c
  2375  001426  B4D8               	btfsc	status,2,c
  2376  001428  D009               	goto	l3516
  2377  00142A  D016               	goto	l3518
  2378  00142C                     l3498:
  2379  00142C  0E31               	movlw	49
  2380  00142E  0012               	return	
  2381  001430                     l3502:
  2382  001430  0E32               	movlw	50
  2383  001432  0012               	return	
  2384  001434                     l3506:
  2385  001434  0E33               	movlw	51
  2386  001436  0012               	return	
  2387  001438                     l3510:
  2388  001438  0E41               	movlw	65
  2389  00143A  0012               	return	
  2390  00143C                     l3516:
  2391  00143C  5044               	movf	_columnSelected,w,c
  2392                           
  2393                           ; Switch size 1, requested type "space"
  2394                           ; Number of cases is 4, Range of values is 1 to 4
  2395                           ; switch strategies available:
  2396                           ; Name         Instructions Cycles
  2397                           ; simple_byte           13     7 (average)
  2398                           ;	Chosen strategy is simple_byte
  2399  00143E  0A01               	xorlw	1	; case 1
  2400  001440  B4D8               	btfsc	status,2,c
  2401  001442  D7F4               	goto	l3498
  2402  001444  0A03               	xorlw	3	; case 2
  2403  001446  B4D8               	btfsc	status,2,c
  2404  001448  D7F3               	goto	l3502
  2405  00144A  0A01               	xorlw	1	; case 3
  2406  00144C  B4D8               	btfsc	status,2,c
  2407  00144E  D7F2               	goto	l3506
  2408  001450  0A07               	xorlw	7	; case 4
  2409  001452  B4D8               	btfsc	status,2,c
  2410  001454  D7F1               	goto	l3510
  2411                           
  2412                           ;SysRiego.c: 925: }
  2413  001456  D050               	goto	l3590
  2414  001458                     l3518:
  2415                           
  2416                           ;SysRiego.c: 926: else if(rowSelected == 2){
  2417  001458  0E02               	movlw	2
  2418  00145A  1849               	xorwf	_rowSelected,w,c
  2419  00145C  B4D8               	btfsc	status,2,c
  2420  00145E  D009               	goto	l3540
  2421  001460  D016               	goto	l3542
  2422  001462                     l3522:
  2423  001462  0E34               	movlw	52
  2424  001464  0012               	return	
  2425  001466                     l3526:
  2426  001466  0E35               	movlw	53
  2427  001468  0012               	return	
  2428  00146A                     l3530:
  2429  00146A  0E36               	movlw	54
  2430  00146C  0012               	return	
  2431  00146E                     l3534:
  2432  00146E  0E42               	movlw	66
  2433  001470  0012               	return	
  2434  001472                     l3540:
  2435  001472  5044               	movf	_columnSelected,w,c
  2436                           
  2437                           ; Switch size 1, requested type "space"
  2438                           ; Number of cases is 4, Range of values is 1 to 4
  2439                           ; switch strategies available:
  2440                           ; Name         Instructions Cycles
  2441                           ; simple_byte           13     7 (average)
  2442                           ;	Chosen strategy is simple_byte
  2443  001474  0A01               	xorlw	1	; case 1
  2444  001476  B4D8               	btfsc	status,2,c
  2445  001478  D7F4               	goto	l3522
  2446  00147A  0A03               	xorlw	3	; case 2
  2447  00147C  B4D8               	btfsc	status,2,c
  2448  00147E  D7F3               	goto	l3526
  2449  001480  0A01               	xorlw	1	; case 3
  2450  001482  B4D8               	btfsc	status,2,c
  2451  001484  D7F2               	goto	l3530
  2452  001486  0A07               	xorlw	7	; case 4
  2453  001488  B4D8               	btfsc	status,2,c
  2454  00148A  D7F1               	goto	l3534
  2455                           
  2456                           ;SysRiego.c: 933: }
  2457  00148C  D035               	goto	l3590
  2458  00148E                     l3542:
  2459                           
  2460                           ;SysRiego.c: 934: else if(rowSelected == 3){
  2461  00148E  0E03               	movlw	3
  2462  001490  1849               	xorwf	_rowSelected,w,c
  2463  001492  B4D8               	btfsc	status,2,c
  2464  001494  D009               	goto	l3564
  2465  001496  D016               	goto	l3566
  2466  001498                     l3546:
  2467  001498  0E37               	movlw	55
  2468  00149A  0012               	return	
  2469  00149C                     l3550:
  2470  00149C  0E38               	movlw	56
  2471  00149E  0012               	return	
  2472  0014A0                     l3554:
  2473  0014A0  0E39               	movlw	57
  2474  0014A2  0012               	return	
  2475  0014A4                     l3558:
  2476  0014A4  0E43               	movlw	67
  2477  0014A6  0012               	return	
  2478  0014A8                     l3564:
  2479  0014A8  5044               	movf	_columnSelected,w,c
  2480                           
  2481                           ; Switch size 1, requested type "space"
  2482                           ; Number of cases is 4, Range of values is 1 to 4
  2483                           ; switch strategies available:
  2484                           ; Name         Instructions Cycles
  2485                           ; simple_byte           13     7 (average)
  2486                           ;	Chosen strategy is simple_byte
  2487  0014AA  0A01               	xorlw	1	; case 1
  2488  0014AC  B4D8               	btfsc	status,2,c
  2489  0014AE  D7F4               	goto	l3546
  2490  0014B0  0A03               	xorlw	3	; case 2
  2491  0014B2  B4D8               	btfsc	status,2,c
  2492  0014B4  D7F3               	goto	l3550
  2493  0014B6  0A01               	xorlw	1	; case 3
  2494  0014B8  B4D8               	btfsc	status,2,c
  2495  0014BA  D7F2               	goto	l3554
  2496  0014BC  0A07               	xorlw	7	; case 4
  2497  0014BE  B4D8               	btfsc	status,2,c
  2498  0014C0  D7F1               	goto	l3558
  2499                           
  2500                           ;SysRiego.c: 941: }
  2501  0014C2  D01A               	goto	l3590
  2502  0014C4                     l3566:
  2503                           
  2504                           ;SysRiego.c: 942: else if(rowSelected == 4){
  2505  0014C4  0E04               	movlw	4
  2506  0014C6  1849               	xorwf	_rowSelected,w,c
  2507  0014C8  B4D8               	btfsc	status,2,c
  2508  0014CA  D009               	goto	l3588
  2509  0014CC  D015               	goto	l3590
  2510  0014CE                     l3570:
  2511  0014CE  0E2A               	movlw	42
  2512  0014D0  0012               	return	
  2513  0014D2                     l3574:
  2514  0014D2  0E30               	movlw	48
  2515  0014D4  0012               	return	
  2516  0014D6                     l3578:
  2517  0014D6  0E23               	movlw	35
  2518  0014D8  0012               	return	
  2519  0014DA                     l3582:
  2520  0014DA  0E44               	movlw	68
  2521  0014DC  0012               	return	
  2522  0014DE                     l3588:
  2523  0014DE  5044               	movf	_columnSelected,w,c
  2524                           
  2525                           ; Switch size 1, requested type "space"
  2526                           ; Number of cases is 4, Range of values is 1 to 4
  2527                           ; switch strategies available:
  2528                           ; Name         Instructions Cycles
  2529                           ; simple_byte           13     7 (average)
  2530                           ;	Chosen strategy is simple_byte
  2531  0014E0  0A01               	xorlw	1	; case 1
  2532  0014E2  B4D8               	btfsc	status,2,c
  2533  0014E4  D7F4               	goto	l3570
  2534  0014E6  0A03               	xorlw	3	; case 2
  2535  0014E8  B4D8               	btfsc	status,2,c
  2536  0014EA  D7F3               	goto	l3574
  2537  0014EC  0A01               	xorlw	1	; case 3
  2538  0014EE  B4D8               	btfsc	status,2,c
  2539  0014F0  D7F2               	goto	l3578
  2540  0014F2  0A07               	xorlw	7	; case 4
  2541  0014F4  B4D8               	btfsc	status,2,c
  2542  0014F6  D7F1               	goto	l3582
  2543  0014F8                     l3590:
  2544                           
  2545                           ;SysRiego.c: 949: }
  2546                           ;SysRiego.c: 950: return -1;
  2547  0014F8  0EFF               	movlw	255
  2548  0014FA  0012               	return	
  2549  0014FC                     __end_of_getKeyCode:
  2550                           	opt stack 0
  2551                           tblptru	equ	0xFF8
  2552                           tblptrh	equ	0xFF7
  2553                           tblptrl	equ	0xFF6
  2554                           tablat	equ	0xFF5
  2555                           prodh	equ	0xFF4
  2556                           prodl	equ	0xFF3
  2557                           intcon	equ	0xFF2
  2558                           intcon2	equ	0xFF1
  2559                           postinc0	equ	0xFEE
  2560                           postdec1	equ	0xFE5
  2561                           fsr1l	equ	0xFE1
  2562                           indf2	equ	0xFDF
  2563                           postinc2	equ	0xFDE
  2564                           postdec2	equ	0xFDD
  2565                           fsr2h	equ	0xFDA
  2566                           fsr2l	equ	0xFD9
  2567                           status	equ	0xFD8
  2568                           
  2569 ;; *************** function _determinePressedRow *****************
  2570 ;; Defined at:
  2571 ;;		line 828 in file "SysRiego.c"
  2572 ;; Parameters:    Size  Location     Type
  2573 ;;		None
  2574 ;; Auto vars:     Size  Location     Type
  2575 ;;  i               1    0[BANK1 ] unsigned char 
  2576 ;; Return value:  Size  Location     Type
  2577 ;;                  1    wreg      void 
  2578 ;; Registers used:
  2579 ;;		wreg, status,2, status,0, cstack
  2580 ;; Tracked objects:
  2581 ;;		On entry : 0/0
  2582 ;;		On exit  : 0/0
  2583 ;;		Unchanged: 0/0
  2584 ;; Data sizes:     COMRAM   BANK0   BANK1   BANK2   BANK3   BANK4   BANK5   BANK6   BANK7   BANK8   BANK9  BANK10  BANK1
      +1  BANK12
  2585 ;;      Params:         0       0       0       0       0       0       0       0       0       0       0       0       
      +0       0
  2586 ;;      Locals:         0       0       1       0       0       0       0       0       0       0       0       0       
      +0       0
  2587 ;;      Temps:          0       0       0       0       0       0       0       0       0       0       0       0       
      +0       0
  2588 ;;      Totals:         0       0       1       0       0       0       0       0       0       0       0       0       
      +0       0
  2589 ;;Total ram usage:        1 bytes
  2590 ;; Hardware stack levels used:    1
  2591 ;; Hardware stack levels required when called:    9
  2592 ;; This function calls:
  2593 ;;		_turnOnAllRows
  2594 ;; This function is called by:
  2595 ;;		_readKey
  2596 ;; This function uses a non-reentrant model
  2597 ;;
  2598                           
  2599                           	psect	text12
  2600  000FCA                     __ptext12:
  2601                           	opt stack 0
  2602  000FCA                     _determinePressedRow:
  2603                           	opt stack 17
  2604                           
  2605                           ;SysRiego.c: 829: char i;
  2606                           ;SysRiego.c: 830: for(i=0; i<4; i++){
  2607                           
  2608                           ;incstack = 0
  2609  000FCA  0E00               	movlw	0
  2610  000FCC  0101               	movlb	1	; () banked
  2611  000FCE  6F00               	movwf	determinePressedRow@i& (0+255),b
  2612  000FD0                     l3352:
  2613                           
  2614                           ; BSR set to: 1
  2615  000FD0  0E03               	movlw	3
  2616  000FD2  0101               	movlb	1	; () banked
  2617  000FD4  6500               	cpfsgt	determinePressedRow@i& (0+255),b
  2618  000FD6  D001               	goto	l3356
  2619  000FD8  0012               	return	
  2620  000FDA                     l3356:
  2621                           
  2622                           ; BSR set to: 1
  2623                           ;SysRiego.c: 831: turnOnAllRows();
  2624  000FDA  EC54  F00E         	call	_turnOnAllRows	;wreg free
  2625                           
  2626                           ;SysRiego.c: 832: switch(i){
  2627  000FDE  D07D               	goto	l3488
  2628  000FE0                     l379:
  2629                           
  2630                           ; BSR set to: 1
  2631                           ;SysRiego.c: 835: PORTBbits.RB0 = 0;
  2632  000FE0  9081               	bcf	3969,0,c	;volatile
  2633                           
  2634                           ; BSR set to: 1
  2635                           ;SysRiego.c: 837: if( (columnSelected == 1) && (PORTBbits.RB4 == 0)){
  2636  000FE2  0444               	decf	_columnSelected,w,c
  2637  000FE4  B4D8               	btfsc	status,2,c
  2638                           
  2639                           ; BSR set to: 1
  2640  000FE6  B881               	btfsc	3969,4,c	;volatile
  2641  000FE8  D003               	goto	l3366
  2642                           
  2643                           ; BSR set to: 1
  2644                           ;SysRiego.c: 838: rowSelected = 1;
  2645  000FEA  0E01               	movlw	1
  2646  000FEC  6E49               	movwf	_rowSelected,c
  2647                           
  2648                           ; BSR set to: 1
  2649                           ;SysRiego.c: 839: return;
  2650  000FEE  0012               	return	
  2651  000FF0                     l3366:
  2652                           
  2653                           ; BSR set to: 1
  2654                           ;SysRiego.c: 840: }
  2655                           ;SysRiego.c: 841: if( (columnSelected == 2) && (PORTBbits.RB5 == 0)){
  2656  000FF0  0E02               	movlw	2
  2657  000FF2  1844               	xorwf	_columnSelected,w,c
  2658  000FF4  B4D8               	btfsc	status,2,c
  2659                           
  2660                           ; BSR set to: 1
  2661  000FF6  BA81               	btfsc	3969,5,c	;volatile
  2662  000FF8  D003               	goto	l3374
  2663                           
  2664                           ; BSR set to: 1
  2665                           ;SysRiego.c: 842: rowSelected = 1;
  2666  000FFA  0E01               	movlw	1
  2667  000FFC  6E49               	movwf	_rowSelected,c
  2668                           
  2669                           ; BSR set to: 1
  2670                           ;SysRiego.c: 843: return;
  2671  000FFE  0012               	return	
  2672  001000                     l3374:
  2673                           
  2674                           ; BSR set to: 1
  2675                           ;SysRiego.c: 844: }
  2676                           ;SysRiego.c: 845: if( (columnSelected == 3) && (PORTBbits.RB6 == 0)){
  2677  001000  0E03               	movlw	3
  2678  001002  1844               	xorwf	_columnSelected,w,c
  2679  001004  B4D8               	btfsc	status,2,c
  2680                           
  2681                           ; BSR set to: 1
  2682  001006  BC81               	btfsc	3969,6,c	;volatile
  2683  001008  D003               	goto	l3382
  2684                           
  2685                           ; BSR set to: 1
  2686                           ;SysRiego.c: 846: rowSelected = 1;
  2687  00100A  0E01               	movlw	1
  2688  00100C  6E49               	movwf	_rowSelected,c
  2689                           
  2690                           ; BSR set to: 1
  2691                           ;SysRiego.c: 847: return;
  2692  00100E  0012               	return	
  2693  001010                     l3382:
  2694                           
  2695                           ; BSR set to: 1
  2696                           ;SysRiego.c: 848: }
  2697                           ;SysRiego.c: 849: if( (columnSelected == 4) && (PORTBbits.RB7 == 0)){
  2698  001010  0E04               	movlw	4
  2699  001012  1844               	xorwf	_columnSelected,w,c
  2700  001014  B4D8               	btfsc	status,2,c
  2701                           
  2702                           ; BSR set to: 1
  2703  001016  BE81               	btfsc	3969,7,c	;volatile
  2704  001018  D06E               	goto	l3490
  2705                           
  2706                           ; BSR set to: 1
  2707                           ;SysRiego.c: 850: rowSelected = 1;
  2708  00101A  0E01               	movlw	1
  2709  00101C                     L5:
  2710  00101C  6E49               	movwf	_rowSelected,c
  2711                           
  2712                           ; BSR set to: 1
  2713                           ;SysRiego.c: 851: return;
  2714  00101E  0012               	return	
  2715  001020                     l386:
  2716                           
  2717                           ; BSR set to: 1
  2718                           ;SysRiego.c: 855: PORTBbits.RB1 = 0;
  2719  001020  9281               	bcf	3969,1,c	;volatile
  2720                           
  2721                           ; BSR set to: 1
  2722                           ;SysRiego.c: 856: if( (columnSelected == 1) && (PORTBbits.RB4 == 0)){
  2723  001022  0444               	decf	_columnSelected,w,c
  2724  001024  B4D8               	btfsc	status,2,c
  2725                           
  2726                           ; BSR set to: 1
  2727  001026  B881               	btfsc	3969,4,c	;volatile
  2728  001028  D003               	goto	l3398
  2729                           
  2730                           ; BSR set to: 1
  2731                           ;SysRiego.c: 857: rowSelected = 2;
  2732  00102A  0E02               	movlw	2
  2733  00102C  6E49               	movwf	_rowSelected,c
  2734                           
  2735                           ; BSR set to: 1
  2736                           ;SysRiego.c: 858: return;
  2737  00102E  0012               	return	
  2738  001030                     l3398:
  2739                           
  2740                           ; BSR set to: 1
  2741                           ;SysRiego.c: 859: }
  2742                           ;SysRiego.c: 860: if( (columnSelected == 2) && (PORTBbits.RB5 == 0)){
  2743  001030  0E02               	movlw	2
  2744  001032  1844               	xorwf	_columnSelected,w,c
  2745  001034  B4D8               	btfsc	status,2,c
  2746                           
  2747                           ; BSR set to: 1
  2748  001036  BA81               	btfsc	3969,5,c	;volatile
  2749  001038  D003               	goto	l3406
  2750                           
  2751                           ; BSR set to: 1
  2752                           ;SysRiego.c: 861: rowSelected = 2;
  2753  00103A  0E02               	movlw	2
  2754  00103C  6E49               	movwf	_rowSelected,c
  2755                           
  2756                           ; BSR set to: 1
  2757                           ;SysRiego.c: 862: return;
  2758  00103E  0012               	return	
  2759  001040                     l3406:
  2760                           
  2761                           ; BSR set to: 1
  2762                           ;SysRiego.c: 863: }
  2763                           ;SysRiego.c: 864: if( (columnSelected == 3) && (PORTBbits.RB6 == 0)){
  2764  001040  0E03               	movlw	3
  2765  001042  1844               	xorwf	_columnSelected,w,c
  2766  001044  B4D8               	btfsc	status,2,c
  2767                           
  2768                           ; BSR set to: 1
  2769  001046  BC81               	btfsc	3969,6,c	;volatile
  2770  001048  D003               	goto	l3414
  2771                           
  2772                           ; BSR set to: 1
  2773                           ;SysRiego.c: 865: rowSelected = 2;
  2774  00104A  0E02               	movlw	2
  2775  00104C  6E49               	movwf	_rowSelected,c
  2776                           
  2777                           ; BSR set to: 1
  2778                           ;SysRiego.c: 866: return;
  2779  00104E  0012               	return	
  2780  001050                     l3414:
  2781                           
  2782                           ; BSR set to: 1
  2783                           ;SysRiego.c: 867: }
  2784                           ;SysRiego.c: 868: if( (columnSelected == 4) && (PORTBbits.RB7 == 0)){
  2785  001050  0E04               	movlw	4
  2786  001052  1844               	xorwf	_columnSelected,w,c
  2787  001054  B4D8               	btfsc	status,2,c
  2788                           
  2789                           ; BSR set to: 1
  2790  001056  BE81               	btfsc	3969,7,c	;volatile
  2791  001058  D04E               	goto	l3490
  2792                           
  2793                           ; BSR set to: 1
  2794                           ;SysRiego.c: 869: rowSelected = 2;
  2795  00105A  0E02               	movlw	2
  2796  00105C  D7DF               	goto	L5
  2797  00105E                     l391:
  2798                           
  2799                           ; BSR set to: 1
  2800                           ;SysRiego.c: 874: PORTBbits.RB2 = 0;
  2801  00105E  9481               	bcf	3969,2,c	;volatile
  2802                           
  2803                           ; BSR set to: 1
  2804                           ;SysRiego.c: 875: if( (columnSelected == 1) && (PORTBbits.RB4 == 0)){
  2805  001060  0444               	decf	_columnSelected,w,c
  2806  001062  B4D8               	btfsc	status,2,c
  2807                           
  2808                           ; BSR set to: 1
  2809  001064  B881               	btfsc	3969,4,c	;volatile
  2810  001066  D003               	goto	l3430
  2811                           
  2812                           ; BSR set to: 1
  2813                           ;SysRiego.c: 876: rowSelected = 3;
  2814  001068  0E03               	movlw	3
  2815  00106A  6E49               	movwf	_rowSelected,c
  2816                           
  2817                           ; BSR set to: 1
  2818                           ;SysRiego.c: 877: return;
  2819  00106C  0012               	return	
  2820  00106E                     l3430:
  2821                           
  2822                           ; BSR set to: 1
  2823                           ;SysRiego.c: 878: }
  2824                           ;SysRiego.c: 879: if( (columnSelected == 2) && (PORTBbits.RB5 == 0)){
  2825  00106E  0E02               	movlw	2
  2826  001070  1844               	xorwf	_columnSelected,w,c
  2827  001072  B4D8               	btfsc	status,2,c
  2828                           
  2829                           ; BSR set to: 1
  2830  001074  BA81               	btfsc	3969,5,c	;volatile
  2831  001076  D003               	goto	l3438
  2832                           
  2833                           ; BSR set to: 1
  2834                           ;SysRiego.c: 880: rowSelected = 3;
  2835  001078  0E03               	movlw	3
  2836  00107A  6E49               	movwf	_rowSelected,c
  2837                           
  2838                           ; BSR set to: 1
  2839                           ;SysRiego.c: 881: return;
  2840  00107C  0012               	return	
  2841  00107E                     l3438:
  2842                           
  2843                           ; BSR set to: 1
  2844                           ;SysRiego.c: 882: }
  2845                           ;SysRiego.c: 883: if( (columnSelected == 3) && (PORTBbits.RB6 == 0)){
  2846  00107E  0E03               	movlw	3
  2847  001080  1844               	xorwf	_columnSelected,w,c
  2848  001082  B4D8               	btfsc	status,2,c
  2849                           
  2850                           ; BSR set to: 1
  2851  001084  BC81               	btfsc	3969,6,c	;volatile
  2852  001086  D003               	goto	l3446
  2853                           
  2854                           ; BSR set to: 1
  2855                           ;SysRiego.c: 884: rowSelected = 3;
  2856  001088  0E03               	movlw	3
  2857  00108A  6E49               	movwf	_rowSelected,c
  2858                           
  2859                           ; BSR set to: 1
  2860                           ;SysRiego.c: 885: return;
  2861  00108C  0012               	return	
  2862  00108E                     l3446:
  2863                           
  2864                           ; BSR set to: 1
  2865                           ;SysRiego.c: 886: }
  2866                           ;SysRiego.c: 887: if( (columnSelected == 4) && (PORTBbits.RB7 == 0)){
  2867  00108E  0E04               	movlw	4
  2868  001090  1844               	xorwf	_columnSelected,w,c
  2869  001092  B4D8               	btfsc	status,2,c
  2870                           
  2871                           ; BSR set to: 1
  2872  001094  BE81               	btfsc	3969,7,c	;volatile
  2873  001096  D02F               	goto	l3490
  2874                           
  2875                           ; BSR set to: 1
  2876                           ;SysRiego.c: 888: rowSelected = 3;
  2877  001098  0E03               	movlw	3
  2878  00109A  D7C0               	goto	L5
  2879  00109C                     l396:
  2880                           
  2881                           ; BSR set to: 1
  2882                           ;SysRiego.c: 894: PORTBbits.RB3 = 0;
  2883  00109C  9681               	bcf	3969,3,c	;volatile
  2884                           
  2885                           ; BSR set to: 1
  2886                           ;SysRiego.c: 895: if( (columnSelected == 1) && (PORTBbits.RB4 == 0)){
  2887  00109E  0444               	decf	_columnSelected,w,c
  2888  0010A0  B4D8               	btfsc	status,2,c
  2889                           
  2890                           ; BSR set to: 1
  2891  0010A2  B881               	btfsc	3969,4,c	;volatile
  2892  0010A4  D003               	goto	l3462
  2893                           
  2894                           ; BSR set to: 1
  2895                           ;SysRiego.c: 896: rowSelected = 4;
  2896  0010A6  0E04               	movlw	4
  2897  0010A8  6E49               	movwf	_rowSelected,c
  2898                           
  2899                           ; BSR set to: 1
  2900                           ;SysRiego.c: 897: return;
  2901  0010AA  0012               	return	
  2902  0010AC                     l3462:
  2903                           
  2904                           ; BSR set to: 1
  2905                           ;SysRiego.c: 898: }
  2906                           ;SysRiego.c: 899: if( (columnSelected == 2) && (PORTBbits.RB5 == 0)){
  2907  0010AC  0E02               	movlw	2
  2908  0010AE  1844               	xorwf	_columnSelected,w,c
  2909  0010B0  B4D8               	btfsc	status,2,c
  2910                           
  2911                           ; BSR set to: 1
  2912  0010B2  BA81               	btfsc	3969,5,c	;volatile
  2913  0010B4  D003               	goto	l3470
  2914                           
  2915                           ; BSR set to: 1
  2916                           ;SysRiego.c: 900: rowSelected = 4;
  2917  0010B6  0E04               	movlw	4
  2918  0010B8  6E49               	movwf	_rowSelected,c
  2919                           
  2920                           ; BSR set to: 1
  2921                           ;SysRiego.c: 901: return;
  2922  0010BA  0012               	return	
  2923  0010BC                     l3470:
  2924                           
  2925                           ; BSR set to: 1
  2926                           ;SysRiego.c: 902: }
  2927                           ;SysRiego.c: 903: if( (columnSelected == 3) && (PORTBbits.RB6 == 0)){
  2928  0010BC  0E03               	movlw	3
  2929  0010BE  1844               	xorwf	_columnSelected,w,c
  2930  0010C0  B4D8               	btfsc	status,2,c
  2931                           
  2932                           ; BSR set to: 1
  2933  0010C2  BC81               	btfsc	3969,6,c	;volatile
  2934  0010C4  D003               	goto	l3478
  2935                           
  2936                           ; BSR set to: 1
  2937                           ;SysRiego.c: 904: rowSelected = 4;
  2938  0010C6  0E04               	movlw	4
  2939  0010C8  6E49               	movwf	_rowSelected,c
  2940                           
  2941                           ; BSR set to: 1
  2942                           ;SysRiego.c: 905: return;
  2943  0010CA  0012               	return	
  2944  0010CC                     l3478:
  2945                           
  2946                           ; BSR set to: 1
  2947                           ;SysRiego.c: 906: }
  2948                           ;SysRiego.c: 907: if( (columnSelected == 4) && (PORTBbits.RB7 == 0)){
  2949  0010CC  0E04               	movlw	4
  2950  0010CE  1844               	xorwf	_columnSelected,w,c
  2951  0010D0  B4D8               	btfsc	status,2,c
  2952                           
  2953                           ; BSR set to: 1
  2954  0010D2  BE81               	btfsc	3969,7,c	;volatile
  2955  0010D4  D010               	goto	l3490
  2956                           
  2957                           ; BSR set to: 1
  2958                           ;SysRiego.c: 908: rowSelected = 4;
  2959  0010D6  0E04               	movlw	4
  2960  0010D8  D7A1               	goto	L5
  2961  0010DA                     l3488:
  2962  0010DA  0101               	movlb	1	; () banked
  2963  0010DC  5100               	movf	determinePressedRow@i& (0+255),w,b
  2964                           
  2965                           ; Switch size 1, requested type "space"
  2966                           ; Number of cases is 4, Range of values is 0 to 3
  2967                           ; switch strategies available:
  2968                           ; Name         Instructions Cycles
  2969                           ; simple_byte           13     7 (average)
  2970                           ;	Chosen strategy is simple_byte
  2971  0010DE  0A00               	xorlw	0	; case 0
  2972  0010E0  B4D8               	btfsc	status,2,c
  2973  0010E2  D77E               	goto	l379
  2974  0010E4  0A01               	xorlw	1	; case 1
  2975  0010E6  B4D8               	btfsc	status,2,c
  2976  0010E8  D79B               	goto	l386
  2977  0010EA  0A03               	xorlw	3	; case 2
  2978  0010EC  B4D8               	btfsc	status,2,c
  2979  0010EE  D7B7               	goto	l391
  2980  0010F0  0A01               	xorlw	1	; case 3
  2981  0010F2  B4D8               	btfsc	status,2,c
  2982  0010F4  D7D3               	goto	l396
  2983  0010F6                     l3490:
  2984                           
  2985                           ; BSR set to: 1
  2986  0010F6  0101               	movlb	1	; () banked
  2987  0010F8  2B00               	incf	determinePressedRow@i& (0+255),f,b
  2988  0010FA  D76A               	goto	l3352
  2989  0010FC                     __end_of_determinePressedRow:
  2990                           	opt stack 0
  2991                           tblptru	equ	0xFF8
  2992                           tblptrh	equ	0xFF7
  2993                           tblptrl	equ	0xFF6
  2994                           tablat	equ	0xFF5
  2995                           prodh	equ	0xFF4
  2996                           prodl	equ	0xFF3
  2997                           intcon	equ	0xFF2
  2998                           intcon2	equ	0xFF1
  2999                           postinc0	equ	0xFEE
  3000                           postdec1	equ	0xFE5
  3001                           fsr1l	equ	0xFE1
  3002                           indf2	equ	0xFDF
  3003                           postinc2	equ	0xFDE
  3004                           postdec2	equ	0xFDD
  3005                           fsr2h	equ	0xFDA
  3006                           fsr2l	equ	0xFD9
  3007                           status	equ	0xFD8
  3008                           
  3009 ;; *************** function _turnOnAllRows *****************
  3010 ;; Defined at:
  3011 ;;		line 1132 in file "SysRiego.c"
  3012 ;; Parameters:    Size  Location     Type
  3013 ;;		None
  3014 ;; Auto vars:     Size  Location     Type
  3015 ;;		None
  3016 ;; Return value:  Size  Location     Type
  3017 ;;                  1    wreg      void 
  3018 ;; Registers used:
  3019 ;;		None
  3020 ;; Tracked objects:
  3021 ;;		On entry : 0/0
  3022 ;;		On exit  : 0/0
  3023 ;;		Unchanged: 0/0
  3024 ;; Data sizes:     COMRAM   BANK0   BANK1   BANK2   BANK3   BANK4   BANK5   BANK6   BANK7   BANK8   BANK9  BANK10  BANK1
      +1  BANK12
  3025 ;;      Params:         0       0       0       0       0       0       0       0       0       0       0       0       
      +0       0
  3026 ;;      Locals:         0       0       0       0       0       0       0       0       0       0       0       0       
      +0       0
  3027 ;;      Temps:          0       0       0       0       0       0       0       0       0       0       0       0       
      +0       0
  3028 ;;      Totals:         0       0       0       0       0       0       0       0       0       0       0       0       
      +0       0
  3029 ;;Total ram usage:        0 bytes
  3030 ;; Hardware stack levels used:    1
  3031 ;; Hardware stack levels required when called:    8
  3032 ;; This function calls:
  3033 ;;		Nothing
  3034 ;; This function is called by:
  3035 ;;		_determinePressedRow
  3036 ;; This function uses a non-reentrant model
  3037 ;;
  3038                           
  3039                           	psect	text13
  3040  001CA8                     __ptext13:
  3041                           	opt stack 0
  3042  001CA8                     _turnOnAllRows:
  3043                           	opt stack 17
  3044                           
  3045                           ;SysRiego.c: 1133: PORTBbits.RB0 = 1;
  3046                           
  3047                           ; BSR set to: 1
  3048                           ;incstack = 0
  3049  001CA8  8081               	bsf	3969,0,c	;volatile
  3050                           
  3051                           ;SysRiego.c: 1134: PORTBbits.RB1 = 1;
  3052  001CAA  8281               	bsf	3969,1,c	;volatile
  3053                           
  3054                           ;SysRiego.c: 1135: PORTBbits.RB2 = 1;
  3055  001CAC  8481               	bsf	3969,2,c	;volatile
  3056                           
  3057                           ;SysRiego.c: 1136: PORTBbits.RB3 = 1;
  3058  001CAE  8681               	bsf	3969,3,c	;volatile
  3059  001CB0  0012               	return		;funcret
  3060  001CB2                     __end_of_turnOnAllRows:
  3061                           	opt stack 0
  3062                           tblptru	equ	0xFF8
  3063                           tblptrh	equ	0xFF7
  3064                           tblptrl	equ	0xFF6
  3065                           tablat	equ	0xFF5
  3066                           prodh	equ	0xFF4
  3067                           prodl	equ	0xFF3
  3068                           intcon	equ	0xFF2
  3069                           intcon2	equ	0xFF1
  3070                           postinc0	equ	0xFEE
  3071                           postdec1	equ	0xFE5
  3072                           fsr1l	equ	0xFE1
  3073                           indf2	equ	0xFDF
  3074                           postinc2	equ	0xFDE
  3075                           postdec2	equ	0xFDD
  3076                           fsr2h	equ	0xFDA
  3077                           fsr2l	equ	0xFD9
  3078                           status	equ	0xFD8
  3079                           
  3080 ;; *************** function _delay *****************
  3081 ;; Defined at:
  3082 ;;		line 793 in file "SysRiego.c"
  3083 ;; Parameters:    Size  Location     Type
  3084 ;;		None
  3085 ;; Auto vars:     Size  Location     Type
  3086 ;;  L2REG           1    2[BANK1 ] unsigned char 
  3087 ;;  L1REG           1    1[BANK1 ] unsigned char 
  3088 ;; Return value:  Size  Location     Type
  3089 ;;                  1    wreg      void 
  3090 ;; Registers used:
  3091 ;;		wreg, status,2, status,0
  3092 ;; Tracked objects:
  3093 ;;		On entry : 0/0
  3094 ;;		On exit  : 0/0
  3095 ;;		Unchanged: 0/0
  3096 ;; Data sizes:     COMRAM   BANK0   BANK1   BANK2   BANK3   BANK4   BANK5   BANK6   BANK7   BANK8   BANK9  BANK10  BANK1
      +1  BANK12
  3097 ;;      Params:         0       0       0       0       0       0       0       0       0       0       0       0       
      +0       0
  3098 ;;      Locals:         0       0       2       0       0       0       0       0       0       0       0       0       
      +0       0
  3099 ;;      Temps:          0       0       1       0       0       0       0       0       0       0       0       0       
      +0       0
  3100 ;;      Totals:         0       0       3       0       0       0       0       0       0       0       0       0       
      +0       0
  3101 ;;Total ram usage:        3 bytes
  3102 ;; Hardware stack levels used:    1
  3103 ;; Hardware stack levels required when called:    8
  3104 ;; This function calls:
  3105 ;;		Nothing
  3106 ;; This function is called by:
  3107 ;;		_readInput
  3108 ;;		_resetReadInput
  3109 ;; This function uses a non-reentrant model
  3110 ;;
  3111                           
  3112                           	psect	text14
  3113  001AD6                     __ptext14:
  3114                           	opt stack 0
  3115  001AD6                     _delay:
  3116                           	opt stack 19
  3117                           
  3118                           ;SysRiego.c: 794: unsigned char L1REG = 0;
  3119                           
  3120                           ;incstack = 0
  3121  001AD6  0E00               	movlw	0
  3122  001AD8  0101               	movlb	1	; () banked
  3123  001ADA  6F01               	movwf	delay@L1REG& (0+255),b
  3124                           
  3125                           ;SysRiego.c: 795: unsigned char L2REG;
  3126                           ;SysRiego.c: 796: while(L1REG++ < 13){
  3127  001ADC  D006               	goto	l3606
  3128  001ADE                     l3604:
  3129                           
  3130                           ; BSR set to: 1
  3131                           ;SysRiego.c: 797: L2REG = 0;
  3132  001ADE  0E00               	movlw	0
  3133  001AE0  0101               	movlb	1	; () banked
  3134  001AE2  6F02               	movwf	delay@L2REG& (0+255),b
  3135  001AE4                     l353:
  3136                           
  3137                           ; BSR set to: 1
  3138  001AE4  0101               	movlb	1	; () banked
  3139  001AE6  3F02               	incfsz	delay@L2REG& (0+255),f,b
  3140  001AE8  D7FD               	goto	l353
  3141  001AEA                     l3606:
  3142                           
  3143                           ; BSR set to: 1
  3144  001AEA  0101               	movlb	1	; () banked
  3145  001AEC  2B01               	incf	delay@L1REG& (0+255),f,b
  3146  001AEE  0501               	decf	delay@L1REG& (0+255),w,b
  3147  001AF0  0101               	movlb	1	; () banked
  3148  001AF2  6F00               	movwf	??_delay& (0+255),b
  3149  001AF4  0E0C               	movlw	12
  3150  001AF6  0101               	movlb	1	; () banked
  3151  001AF8  6500               	cpfsgt	??_delay& (0+255),b
  3152  001AFA  D7F1               	goto	l3604
  3153  001AFC  0012               	return	
  3154  001AFE                     __end_of_delay:
  3155                           	opt stack 0
  3156                           tblptru	equ	0xFF8
  3157                           tblptrh	equ	0xFF7
  3158                           tblptrl	equ	0xFF6
  3159                           tablat	equ	0xFF5
  3160                           prodh	equ	0xFF4
  3161                           prodl	equ	0xFF3
  3162                           intcon	equ	0xFF2
  3163                           intcon2	equ	0xFF1
  3164                           postinc0	equ	0xFEE
  3165                           postdec1	equ	0xFE5
  3166                           fsr1l	equ	0xFE1
  3167                           indf2	equ	0xFDF
  3168                           postinc2	equ	0xFDE
  3169                           postdec2	equ	0xFDD
  3170                           fsr2h	equ	0xFDA
  3171                           fsr2l	equ	0xFD9
  3172                           status	equ	0xFD8
  3173                           
  3174 ;; *************** function _groundAllRows *****************
  3175 ;; Defined at:
  3176 ;;		line 775 in file "SysRiego.c"
  3177 ;; Parameters:    Size  Location     Type
  3178 ;;		None
  3179 ;; Auto vars:     Size  Location     Type
  3180 ;;		None
  3181 ;; Return value:  Size  Location     Type
  3182 ;;                  1    wreg      void 
  3183 ;; Registers used:
  3184 ;;		None
  3185 ;; Tracked objects:
  3186 ;;		On entry : 0/0
  3187 ;;		On exit  : 0/0
  3188 ;;		Unchanged: 0/0
  3189 ;; Data sizes:     COMRAM   BANK0   BANK1   BANK2   BANK3   BANK4   BANK5   BANK6   BANK7   BANK8   BANK9  BANK10  BANK1
      +1  BANK12
  3190 ;;      Params:         0       0       0       0       0       0       0       0       0       0       0       0       
      +0       0
  3191 ;;      Locals:         0       0       0       0       0       0       0       0       0       0       0       0       
      +0       0
  3192 ;;      Temps:          0       0       0       0       0       0       0       0       0       0       0       0       
      +0       0
  3193 ;;      Totals:         0       0       0       0       0       0       0       0       0       0       0       0       
      +0       0
  3194 ;;Total ram usage:        0 bytes
  3195 ;; Hardware stack levels used:    1
  3196 ;; Hardware stack levels required when called:    8
  3197 ;; This function calls:
  3198 ;;		Nothing
  3199 ;; This function is called by:
  3200 ;;		_getInput
  3201 ;; This function uses a non-reentrant model
  3202 ;;
  3203                           
  3204                           	psect	text15
  3205  001CB2                     __ptext15:
  3206                           	opt stack 0
  3207  001CB2                     _groundAllRows:
  3208                           	opt stack 20
  3209                           
  3210                           ;SysRiego.c: 776: PORTBbits.RB0 = 0;
  3211                           
  3212                           ; BSR set to: 1
  3213                           ;incstack = 0
  3214  001CB2  9081               	bcf	3969,0,c	;volatile
  3215                           
  3216                           ;SysRiego.c: 777: PORTBbits.RB1 = 0;
  3217  001CB4  9281               	bcf	3969,1,c	;volatile
  3218                           
  3219                           ;SysRiego.c: 778: PORTBbits.RB2 = 0;
  3220  001CB6  9481               	bcf	3969,2,c	;volatile
  3221                           
  3222                           ;SysRiego.c: 779: PORTBbits.RB3 = 0;
  3223  001CB8  9681               	bcf	3969,3,c	;volatile
  3224  001CBA  0012               	return		;funcret
  3225  001CBC                     __end_of_groundAllRows:
  3226                           	opt stack 0
  3227                           tblptru	equ	0xFF8
  3228                           tblptrh	equ	0xFF7
  3229                           tblptrl	equ	0xFF6
  3230                           tablat	equ	0xFF5
  3231                           prodh	equ	0xFF4
  3232                           prodl	equ	0xFF3
  3233                           intcon	equ	0xFF2
  3234                           intcon2	equ	0xFF1
  3235                           postinc0	equ	0xFEE
  3236                           postdec1	equ	0xFE5
  3237                           fsr1l	equ	0xFE1
  3238                           indf2	equ	0xFDF
  3239                           postinc2	equ	0xFDE
  3240                           postdec2	equ	0xFDD
  3241                           fsr2h	equ	0xFDA
  3242                           fsr2l	equ	0xFD9
  3243                           status	equ	0xFD8
  3244                           
  3245 ;; *************** function _enableIntRBIE *****************
  3246 ;; Defined at:
  3247 ;;		line 1184 in file "SysRiego.c"
  3248 ;; Parameters:    Size  Location     Type
  3249 ;;		None
  3250 ;; Auto vars:     Size  Location     Type
  3251 ;;		None
  3252 ;; Return value:  Size  Location     Type
  3253 ;;                  1    wreg      void 
  3254 ;; Registers used:
  3255 ;;		wreg, status,2
  3256 ;; Tracked objects:
  3257 ;;		On entry : 0/0
  3258 ;;		On exit  : 0/0
  3259 ;;		Unchanged: 0/0
  3260 ;; Data sizes:     COMRAM   BANK0   BANK1   BANK2   BANK3   BANK4   BANK5   BANK6   BANK7   BANK8   BANK9  BANK10  BANK1
      +1  BANK12
  3261 ;;      Params:         0       0       0       0       0       0       0       0       0       0       0       0       
      +0       0
  3262 ;;      Locals:         0       0       0       0       0       0       0       0       0       0       0       0       
      +0       0
  3263 ;;      Temps:          0       0       0       0       0       0       0       0       0       0       0       0       
      +0       0
  3264 ;;      Totals:         0       0       0       0       0       0       0       0       0       0       0       0       
      +0       0
  3265 ;;Total ram usage:        0 bytes
  3266 ;; Hardware stack levels used:    1
  3267 ;; Hardware stack levels required when called:    8
  3268 ;; This function calls:
  3269 ;;		Nothing
  3270 ;; This function is called by:
  3271 ;;		_automaticConfiguration
  3272 ;;		_timerConfiguration
  3273 ;;		_manualConfiguration
  3274 ;; This function uses a non-reentrant model
  3275 ;;
  3276                           
  3277                           	psect	text16
  3278  001CBC                     __ptext16:
  3279                           	opt stack 0
  3280  001CBC                     _enableIntRBIE:
  3281                           	opt stack 21
  3282                           
  3283                           ;SysRiego.c: 1186: LATB = 0X00;
  3284                           
  3285                           ;incstack = 0
  3286  001CBC  0E00               	movlw	0
  3287  001CBE  6E8A               	movwf	3978,c	;volatile
  3288                           
  3289                           ;SysRiego.c: 1187: INTCONbits.RBIF = 0;
  3290  001CC0  90F2               	bcf	intcon,0,c	;volatile
  3291                           
  3292                           ;SysRiego.c: 1188: INTCONbits.RBIE = 1;
  3293  001CC2  86F2               	bsf	intcon,3,c	;volatile
  3294  001CC4  0012               	return		;funcret
  3295  001CC6                     __end_of_enableIntRBIE:
  3296                           	opt stack 0
  3297                           tblptru	equ	0xFF8
  3298                           tblptrh	equ	0xFF7
  3299                           tblptrl	equ	0xFF6
  3300                           tablat	equ	0xFF5
  3301                           prodh	equ	0xFF4
  3302                           prodl	equ	0xFF3
  3303                           intcon	equ	0xFF2
  3304                           intcon2	equ	0xFF1
  3305                           postinc0	equ	0xFEE
  3306                           postdec1	equ	0xFE5
  3307                           fsr1l	equ	0xFE1
  3308                           indf2	equ	0xFDF
  3309                           postinc2	equ	0xFDE
  3310                           postdec2	equ	0xFDD
  3311                           fsr2h	equ	0xFDA
  3312                           fsr2l	equ	0xFD9
  3313                           status	equ	0xFD8
  3314                           
  3315 ;; *************** function _displayLineOnLCD *****************
  3316 ;; Defined at:
  3317 ;;		line 418 in file "SysRiego.c"
  3318 ;; Parameters:    Size  Location     Type
  3319 ;;  array           2    2[BANK1 ] PTR unsigned char 
  3320 ;;		 -> dayName(4), manualMessage(12), STR_1(10), counterMIN(3), 
  3321 ;;		 -> counterHOUR(3), timerMessage(11), automaticMessage(15), manualInactiveMessage(9), 
  3322 ;;		 -> manualActiveMessage(7), configAutoMessage(11), time3Zn3(5), time2Zn3(5), 
  3323 ;;		 -> time1Zn3(5), time3Zn2(5), time2Zn2(5), time1Zn2(5), 
  3324 ;;		 -> time3Zn1(5), time2Zn1(5), time1Zn1(5), 
  3325 ;;  sizeOfArray     1    4[BANK1 ] unsigned char 
  3326 ;; Auto vars:     Size  Location     Type
  3327 ;;  i               1   12[BANK1 ] unsigned char 
  3328 ;; Return value:  Size  Location     Type
  3329 ;;                  1    wreg      void 
  3330 ;; Registers used:
  3331 ;;		wreg, fsr0l, fsr0h, status,2, status,0, tblptrl, tblptrh, tblptru, prodl, prodh, cstack
  3332 ;; Tracked objects:
  3333 ;;		On entry : 0/0
  3334 ;;		On exit  : 0/0
  3335 ;;		Unchanged: 0/0
  3336 ;; Data sizes:     COMRAM   BANK0   BANK1   BANK2   BANK3   BANK4   BANK5   BANK6   BANK7   BANK8   BANK9  BANK10  BANK1
      +1  BANK12
  3337 ;;      Params:         0       0       3       0       0       0       0       0       0       0       0       0       
      +0       0
  3338 ;;      Locals:         0       0       1       0       0       0       0       0       0       0       0       0       
      +0       0
  3339 ;;      Temps:          0       0       7       0       0       0       0       0       0       0       0       0       
      +0       0
  3340 ;;      Totals:         0       0      11       0       0       0       0       0       0       0       0       0       
      +0       0
  3341 ;;Total ram usage:       11 bytes
  3342 ;; Hardware stack levels used:    1
  3343 ;; Hardware stack levels required when called:   10
  3344 ;; This function calls:
  3345 ;;		_displayCharOnLCD
  3346 ;; This function is called by:
  3347 ;;		_automaticConfiguration
  3348 ;;		_manualConfiguration
  3349 ;;		_workingAutomatic
  3350 ;;		_workingTimer
  3351 ;;		_workingManual
  3352 ;;		_displayTime
  3353 ;; This function uses a non-reentrant model
  3354 ;;
  3355                           
  3356                           	psect	text17
  3357  001762                     __ptext17:
  3358                           	opt stack 0
  3359  001762                     _displayLineOnLCD:
  3360                           	opt stack 19
  3361                           
  3362                           ;SysRiego.c: 419: unsigned char i;
  3363                           ;SysRiego.c: 420: for(i=0; i<sizeOfArray-1; i++){
  3364                           
  3365                           ;incstack = 0
  3366  001762  0E00               	movlw	0
  3367  001764  0101               	movlb	1	; () banked
  3368  001766  6F0C               	movwf	displayLineOnLCD@i& (0+255),b
  3369  001768  D021               	goto	l3702
  3370  00176A                     l3698:
  3371                           
  3372                           ; BSR set to: 1
  3373                           ;SysRiego.c: 421: displayCharOnLCD(array[i]);
  3374  00176A  0101               	movlb	1	; () banked
  3375  00176C  510C               	movf	displayLineOnLCD@i& (0+255),w,b
  3376  00176E  0D01               	mullw	1
  3377  001770  C102  F105         	movff	displayLineOnLCD@array,??_displayLineOnLCD
  3378  001774  C103  F106         	movff	displayLineOnLCD@array+1,??_displayLineOnLCD+1
  3379  001778  50F3               	movf	prodl,w,c
  3380  00177A  0101               	movlb	1	; () banked
  3381  00177C  2705               	addwf	??_displayLineOnLCD& (0+255),f,b
  3382  00177E  50F4               	movf	prodh,w,c
  3383  001780  0101               	movlb	1	; () banked
  3384  001782  2306               	addwfc	(??_displayLineOnLCD+1)& (0+255),f,b
  3385  001784  C105  FFF6         	movff	??_displayLineOnLCD,tblptrl
  3386  001788  C106  FFF7         	movff	??_displayLineOnLCD+1,tblptrh
  3387  00178C  6AF8               	clrf	tblptru,c
  3388  00178E  0E0C               	movlw	(high __ramtop+-1)
  3389  001790  64F7               	cpfsgt	tblptrh,c
  3390  001792  D003               	bra	u3217
  3391  001794  0008               	tblrd		*
  3392  001796  50F5               	movf	tablat,w,c
  3393  001798  D005               	bra	u3210
  3394  00179A                     u3217:
  3395  00179A  CFF6 FFE9          	movff	tblptrl,fsr0l
  3396  00179E  CFF7 FFEA          	movff	tblptrh,fsr0h
  3397  0017A2  50EF               	movf	indf0,w,c
  3398  0017A4                     u3210:
  3399  0017A4  EC09  F00E         	call	_displayCharOnLCD
  3400  0017A8  0101               	movlb	1	; () banked
  3401  0017AA  2B0C               	incf	displayLineOnLCD@i& (0+255),f,b
  3402  0017AC                     l3702:
  3403                           
  3404                           ; BSR set to: 1
  3405  0017AC  0EFF               	movlw	255
  3406  0017AE  0101               	movlb	1	; () banked
  3407  0017B0  6F05               	movwf	??_displayLineOnLCD& (0+255),b
  3408  0017B2  0EFF               	movlw	255
  3409  0017B4  0101               	movlb	1	; () banked
  3410  0017B6  6F06               	movwf	(??_displayLineOnLCD+1)& (0+255),b
  3411  0017B8  0101               	movlb	1	; () banked
  3412  0017BA  5104               	movf	displayLineOnLCD@sizeOfArray& (0+255),w,b
  3413  0017BC  0101               	movlb	1	; () banked
  3414  0017BE  6F07               	movwf	(??_displayLineOnLCD+2)& (0+255),b
  3415  0017C0  6B08               	clrf	(??_displayLineOnLCD+3)& (0+255),b
  3416  0017C2  0101               	movlb	1	; () banked
  3417  0017C4  5105               	movf	??_displayLineOnLCD& (0+255),w,b
  3418  0017C6  0101               	movlb	1	; () banked
  3419  0017C8  2707               	addwf	(??_displayLineOnLCD+2)& (0+255),f,b
  3420  0017CA  0101               	movlb	1	; () banked
  3421  0017CC  5106               	movf	(??_displayLineOnLCD+1)& (0+255),w,b
  3422  0017CE  0101               	movlb	1	; () banked
  3423  0017D0  2308               	addwfc	(??_displayLineOnLCD+3)& (0+255),f,b
  3424  0017D2  0101               	movlb	1	; () banked
  3425  0017D4  510C               	movf	displayLineOnLCD@i& (0+255),w,b
  3426  0017D6  0101               	movlb	1	; () banked
  3427  0017D8  6F09               	movwf	(??_displayLineOnLCD+4)& (0+255),b
  3428  0017DA  6B0A               	clrf	(??_displayLineOnLCD+5)& (0+255),b
  3429  0017DC  0101               	movlb	1	; () banked
  3430  0017DE  5107               	movf	(??_displayLineOnLCD+2)& (0+255),w,b
  3431  0017E0  0101               	movlb	1	; () banked
  3432  0017E2  5D09               	subwf	(??_displayLineOnLCD+4)& (0+255),w,b
  3433  0017E4  0101               	movlb	1	; () banked
  3434  0017E6  510A               	movf	(??_displayLineOnLCD+5)& (0+255),w,b
  3435  0017E8  0A80               	xorlw	128
  3436  0017EA  0101               	movlb	1	; () banked
  3437  0017EC  6F0B               	movwf	(??_displayLineOnLCD+6)& (0+255),b
  3438  0017EE  0101               	movlb	1	; () banked
  3439  0017F0  5108               	movf	(??_displayLineOnLCD+3)& (0+255),w,b
  3440  0017F2  0A80               	xorlw	128
  3441  0017F4  0101               	movlb	1	; () banked
  3442  0017F6  590B               	subwfb	(??_displayLineOnLCD+6)& (0+255),w,b
  3443  0017F8  B0D8               	btfsc	status,0,c
  3444  0017FA  0012               	return	
  3445  0017FC  D7B6               	goto	l3698
  3446  0017FE                     __end_of_displayLineOnLCD:
  3447                           	opt stack 0
  3448                           tblptru	equ	0xFF8
  3449                           tblptrh	equ	0xFF7
  3450                           tblptrl	equ	0xFF6
  3451                           tablat	equ	0xFF5
  3452                           prodh	equ	0xFF4
  3453                           prodl	equ	0xFF3
  3454                           intcon	equ	0xFF2
  3455                           intcon2	equ	0xFF1
  3456                           indf0	equ	0xFEF
  3457                           postinc0	equ	0xFEE
  3458                           fsr0h	equ	0xFEA
  3459                           fsr0l	equ	0xFE9
  3460                           postdec1	equ	0xFE5
  3461                           fsr1l	equ	0xFE1
  3462                           indf2	equ	0xFDF
  3463                           postinc2	equ	0xFDE
  3464                           postdec2	equ	0xFDD
  3465                           fsr2h	equ	0xFDA
  3466                           fsr2l	equ	0xFD9
  3467                           status	equ	0xFD8
  3468                           
  3469 ;; *************** function _displayCharOnLCD *****************
  3470 ;; Defined at:
  3471 ;;		line 409 in file "SysRiego.c"
  3472 ;; Parameters:    Size  Location     Type
  3473 ;;  character       1    wreg     unsigned char 
  3474 ;; Auto vars:     Size  Location     Type
  3475 ;;  character       1    1[BANK1 ] unsigned char 
  3476 ;; Return value:  Size  Location     Type
  3477 ;;                  1    wreg      void 
  3478 ;; Registers used:
  3479 ;;		wreg, status,2, status,0, cstack
  3480 ;; Tracked objects:
  3481 ;;		On entry : 0/0
  3482 ;;		On exit  : 0/0
  3483 ;;		Unchanged: 0/0
  3484 ;; Data sizes:     COMRAM   BANK0   BANK1   BANK2   BANK3   BANK4   BANK5   BANK6   BANK7   BANK8   BANK9  BANK10  BANK1
      +1  BANK12
  3485 ;;      Params:         0       0       0       0       0       0       0       0       0       0       0       0       
      +0       0
  3486 ;;      Locals:         0       0       1       0       0       0       0       0       0       0       0       0       
      +0       0
  3487 ;;      Temps:          0       0       0       0       0       0       0       0       0       0       0       0       
      +0       0
  3488 ;;      Totals:         0       0       1       0       0       0       0       0       0       0       0       0       
      +0       0
  3489 ;;Total ram usage:        1 bytes
  3490 ;; Hardware stack levels used:    1
  3491 ;; Hardware stack levels required when called:    9
  3492 ;; This function calls:
  3493 ;;		_shortDelay
  3494 ;; This function is called by:
  3495 ;;		_displayLineOnLCD
  3496 ;;		_automaticConfiguration
  3497 ;;		_displayTime
  3498 ;; This function uses a non-reentrant model
  3499 ;;
  3500                           
  3501                           	psect	text18
  3502  001C12                     __ptext18:
  3503                           	opt stack 0
  3504  001C12                     _displayCharOnLCD:
  3505                           	opt stack 19
  3506                           
  3507                           ; BSR set to: 1
  3508                           ;incstack = 0
  3509                           ;displayCharOnLCD@character stored from wreg
  3510  001C12  0101               	movlb	1	; () banked
  3511  001C14  6F01               	movwf	displayCharOnLCD@character& (0+255),b
  3512                           
  3513                           ;SysRiego.c: 410: PORTD = character;
  3514  001C16  C101  FF83         	movff	displayCharOnLCD@character,3971	;volatile
  3515                           
  3516                           ;SysRiego.c: 411: PORTCbits.RC0 = 1;
  3517  001C1A  8082               	bsf	3970,0,c	;volatile
  3518                           
  3519                           ;SysRiego.c: 412: PORTCbits.RC1 = 0;
  3520  001C1C  9282               	bcf	3970,1,c	;volatile
  3521                           
  3522                           ;SysRiego.c: 413: PORTCbits.RC2 = 1;
  3523  001C1E  8482               	bsf	3970,2,c	;volatile
  3524                           
  3525                           ;SysRiego.c: 414: shortDelay();
  3526  001C20  EC1F  F00E         	call	_shortDelay	;wreg free
  3527                           
  3528                           ;SysRiego.c: 415: PORTCbits.RC2 = 0;
  3529  001C24  9482               	bcf	3970,2,c	;volatile
  3530  001C26  0012               	return		;funcret
  3531  001C28                     __end_of_displayCharOnLCD:
  3532                           	opt stack 0
  3533                           tblptru	equ	0xFF8
  3534                           tblptrh	equ	0xFF7
  3535                           tblptrl	equ	0xFF6
  3536                           tablat	equ	0xFF5
  3537                           prodh	equ	0xFF4
  3538                           prodl	equ	0xFF3
  3539                           intcon	equ	0xFF2
  3540                           intcon2	equ	0xFF1
  3541                           indf0	equ	0xFEF
  3542                           postinc0	equ	0xFEE
  3543                           fsr0h	equ	0xFEA
  3544                           fsr0l	equ	0xFE9
  3545                           postdec1	equ	0xFE5
  3546                           fsr1l	equ	0xFE1
  3547                           indf2	equ	0xFDF
  3548                           postinc2	equ	0xFDE
  3549                           postdec2	equ	0xFDD
  3550                           fsr2h	equ	0xFDA
  3551                           fsr2l	equ	0xFD9
  3552                           status	equ	0xFD8
  3553                           
  3554 ;; *************** function _disableIntRBIE *****************
  3555 ;; Defined at:
  3556 ;;		line 1176 in file "SysRiego.c"
  3557 ;; Parameters:    Size  Location     Type
  3558 ;;		None
  3559 ;; Auto vars:     Size  Location     Type
  3560 ;;		None
  3561 ;; Return value:  Size  Location     Type
  3562 ;;                  1    wreg      void 
  3563 ;; Registers used:
  3564 ;;		wreg, status,2
  3565 ;; Tracked objects:
  3566 ;;		On entry : 0/0
  3567 ;;		On exit  : 0/0
  3568 ;;		Unchanged: 0/0
  3569 ;; Data sizes:     COMRAM   BANK0   BANK1   BANK2   BANK3   BANK4   BANK5   BANK6   BANK7   BANK8   BANK9  BANK10  BANK1
      +1  BANK12
  3570 ;;      Params:         0       0       0       0       0       0       0       0       0       0       0       0       
      +0       0
  3571 ;;      Locals:         0       0       0       0       0       0       0       0       0       0       0       0       
      +0       0
  3572 ;;      Temps:          0       0       0       0       0       0       0       0       0       0       0       0       
      +0       0
  3573 ;;      Totals:         0       0       0       0       0       0       0       0       0       0       0       0       
      +0       0
  3574 ;;Total ram usage:        0 bytes
  3575 ;; Hardware stack levels used:    1
  3576 ;; Hardware stack levels required when called:    8
  3577 ;; This function calls:
  3578 ;;		Nothing
  3579 ;; This function is called by:
  3580 ;;		_automaticConfiguration
  3581 ;;		_timerConfiguration
  3582 ;;		_manualConfiguration
  3583 ;; This function uses a non-reentrant model
  3584 ;;
  3585                           
  3586                           	psect	text19
  3587  001CC6                     __ptext19:
  3588                           	opt stack 0
  3589  001CC6                     _disableIntRBIE:
  3590                           	opt stack 21
  3591                           
  3592                           ;SysRiego.c: 1178: LATB = 0X00;
  3593                           
  3594                           ;incstack = 0
  3595  001CC6  0E00               	movlw	0
  3596  001CC8  6E8A               	movwf	3978,c	;volatile
  3597                           
  3598                           ;SysRiego.c: 1179: INTCONbits.RBIF = 0;
  3599  001CCA  90F2               	bcf	intcon,0,c	;volatile
  3600                           
  3601                           ;SysRiego.c: 1180: INTCONbits.RBIE = 0;
  3602  001CCC  96F2               	bcf	intcon,3,c	;volatile
  3603  001CCE  0012               	return		;funcret
  3604  001CD0                     __end_of_disableIntRBIE:
  3605                           	opt stack 0
  3606                           tblptru	equ	0xFF8
  3607                           tblptrh	equ	0xFF7
  3608                           tblptrl	equ	0xFF6
  3609                           tablat	equ	0xFF5
  3610                           prodh	equ	0xFF4
  3611                           prodl	equ	0xFF3
  3612                           intcon	equ	0xFF2
  3613                           intcon2	equ	0xFF1
  3614                           indf0	equ	0xFEF
  3615                           postinc0	equ	0xFEE
  3616                           fsr0h	equ	0xFEA
  3617                           fsr0l	equ	0xFE9
  3618                           postdec1	equ	0xFE5
  3619                           fsr1l	equ	0xFE1
  3620                           indf2	equ	0xFDF
  3621                           postinc2	equ	0xFDE
  3622                           postdec2	equ	0xFDD
  3623                           fsr2h	equ	0xFDA
  3624                           fsr2l	equ	0xFD9
  3625                           status	equ	0xFD8
  3626                           
  3627 ;; *************** function _clearDisplay *****************
  3628 ;; Defined at:
  3629 ;;		line 425 in file "SysRiego.c"
  3630 ;; Parameters:    Size  Location     Type
  3631 ;;		None
  3632 ;; Auto vars:     Size  Location     Type
  3633 ;;		None
  3634 ;; Return value:  Size  Location     Type
  3635 ;;                  1    wreg      void 
  3636 ;; Registers used:
  3637 ;;		wreg, status,2, status,0, cstack
  3638 ;; Tracked objects:
  3639 ;;		On entry : 0/0
  3640 ;;		On exit  : 0/0
  3641 ;;		Unchanged: 0/0
  3642 ;; Data sizes:     COMRAM   BANK0   BANK1   BANK2   BANK3   BANK4   BANK5   BANK6   BANK7   BANK8   BANK9  BANK10  BANK1
      +1  BANK12
  3643 ;;      Params:         0       0       0       0       0       0       0       0       0       0       0       0       
      +0       0
  3644 ;;      Locals:         0       0       0       0       0       0       0       0       0       0       0       0       
      +0       0
  3645 ;;      Temps:          0       0       0       0       0       0       0       0       0       0       0       0       
      +0       0
  3646 ;;      Totals:         0       0       0       0       0       0       0       0       0       0       0       0       
      +0       0
  3647 ;;Total ram usage:        0 bytes
  3648 ;; Hardware stack levels used:    1
  3649 ;; Hardware stack levels required when called:   10
  3650 ;; This function calls:
  3651 ;;		_command
  3652 ;;		_isReady
  3653 ;;		_shortDelay
  3654 ;; This function is called by:
  3655 ;;		_automaticConfiguration
  3656 ;;		_timerConfiguration
  3657 ;;		_manualConfiguration
  3658 ;;		_workingAutomatic
  3659 ;;		_workingTimer
  3660 ;;		_workingManual
  3661 ;; This function uses a non-reentrant model
  3662 ;;
  3663                           
  3664                           	psect	text20
  3665  001C7A                     __ptext20:
  3666                           	opt stack 0
  3667  001C7A                     _clearDisplay:
  3668                           	opt stack 19
  3669                           
  3670                           ;SysRiego.c: 426: command(0x01);
  3671                           
  3672                           ;incstack = 0
  3673  001C7A  0E01               	movlw	1
  3674  001C7C  EC14  F00E         	call	_command
  3675                           
  3676                           ;SysRiego.c: 427: shortDelay();
  3677  001C80  EC1F  F00E         	call	_shortDelay	;wreg free
  3678                           
  3679                           ;SysRiego.c: 428: isReady();
  3680  001C84  ECC3  F00D         	call	_isReady	;wreg free
  3681  001C88  0012               	return		;funcret
  3682  001C8A                     __end_of_clearDisplay:
  3683                           	opt stack 0
  3684                           tblptru	equ	0xFF8
  3685                           tblptrh	equ	0xFF7
  3686                           tblptrl	equ	0xFF6
  3687                           tablat	equ	0xFF5
  3688                           prodh	equ	0xFF4
  3689                           prodl	equ	0xFF3
  3690                           intcon	equ	0xFF2
  3691                           intcon2	equ	0xFF1
  3692                           indf0	equ	0xFEF
  3693                           postinc0	equ	0xFEE
  3694                           fsr0h	equ	0xFEA
  3695                           fsr0l	equ	0xFE9
  3696                           postdec1	equ	0xFE5
  3697                           fsr1l	equ	0xFE1
  3698                           indf2	equ	0xFDF
  3699                           postinc2	equ	0xFDE
  3700                           postdec2	equ	0xFDD
  3701                           fsr2h	equ	0xFDA
  3702                           fsr2l	equ	0xFD9
  3703                           status	equ	0xFD8
  3704                           
  3705 ;; *************** function _LCDSetup *****************
  3706 ;; Defined at:
  3707 ;;		line 355 in file "SysRiego.c"
  3708 ;; Parameters:    Size  Location     Type
  3709 ;;		None
  3710 ;; Auto vars:     Size  Location     Type
  3711 ;;		None
  3712 ;; Return value:  Size  Location     Type
  3713 ;;                  1    wreg      void 
  3714 ;; Registers used:
  3715 ;;		wreg, status,2, status,0, cstack
  3716 ;; Tracked objects:
  3717 ;;		On entry : 0/0
  3718 ;;		On exit  : 0/0
  3719 ;;		Unchanged: 0/0
  3720 ;; Data sizes:     COMRAM   BANK0   BANK1   BANK2   BANK3   BANK4   BANK5   BANK6   BANK7   BANK8   BANK9  BANK10  BANK1
      +1  BANK12
  3721 ;;      Params:         0       0       0       0       0       0       0       0       0       0       0       0       
      +0       0
  3722 ;;      Locals:         0       0       0       0       0       0       0       0       0       0       0       0       
      +0       0
  3723 ;;      Temps:          0       0       0       0       0       0       0       0       0       0       0       0       
      +0       0
  3724 ;;      Totals:         0       0       0       0       0       0       0       0       0       0       0       0       
      +0       0
  3725 ;;Total ram usage:        0 bytes
  3726 ;; Hardware stack levels used:    1
  3727 ;; Hardware stack levels required when called:   10
  3728 ;; This function calls:
  3729 ;;		_command
  3730 ;;		_isReady
  3731 ;;		_longDelay
  3732 ;; This function is called by:
  3733 ;;		_main
  3734 ;; This function uses a non-reentrant model
  3735 ;;
  3736                           
  3737                           	psect	text21
  3738  001B26                     __ptext21:
  3739                           	opt stack 0
  3740  001B26                     _LCDSetup:
  3741                           	opt stack 20
  3742                           
  3743                           ;SysRiego.c: 356: PORTCbits.RC2 = 0;
  3744                           
  3745                           ;incstack = 0
  3746  001B26  9482               	bcf	3970,2,c	;volatile
  3747                           
  3748                           ;SysRiego.c: 357: longDelay();
  3749  001B28  ECD1  F00C         	call	_longDelay	;wreg free
  3750                           
  3751                           ;SysRiego.c: 358: command(0x38);
  3752  001B2C  0E38               	movlw	56
  3753  001B2E  EC14  F00E         	call	_command
  3754                           
  3755                           ;SysRiego.c: 359: longDelay();
  3756  001B32  ECD1  F00C         	call	_longDelay	;wreg free
  3757                           
  3758                           ;SysRiego.c: 360: command(0x0F);
  3759  001B36  0E0F               	movlw	15
  3760  001B38  EC14  F00E         	call	_command
  3761                           
  3762                           ;SysRiego.c: 361: isReady();
  3763  001B3C  ECC3  F00D         	call	_isReady	;wreg free
  3764                           
  3765                           ;SysRiego.c: 362: command(0x01);
  3766  001B40  0E01               	movlw	1
  3767  001B42  EC14  F00E         	call	_command
  3768                           
  3769                           ;SysRiego.c: 363: isReady();
  3770  001B46  ECC3  F00D         	call	_isReady	;wreg free
  3771  001B4A  0012               	return		;funcret
  3772  001B4C                     __end_of_LCDSetup:
  3773                           	opt stack 0
  3774                           tblptru	equ	0xFF8
  3775                           tblptrh	equ	0xFF7
  3776                           tblptrl	equ	0xFF6
  3777                           tablat	equ	0xFF5
  3778                           prodh	equ	0xFF4
  3779                           prodl	equ	0xFF3
  3780                           intcon	equ	0xFF2
  3781                           intcon2	equ	0xFF1
  3782                           indf0	equ	0xFEF
  3783                           postinc0	equ	0xFEE
  3784                           fsr0h	equ	0xFEA
  3785                           fsr0l	equ	0xFE9
  3786                           postdec1	equ	0xFE5
  3787                           fsr1l	equ	0xFE1
  3788                           indf2	equ	0xFDF
  3789                           postinc2	equ	0xFDE
  3790                           postdec2	equ	0xFDD
  3791                           fsr2h	equ	0xFDA
  3792                           fsr2l	equ	0xFD9
  3793                           status	equ	0xFD8
  3794                           
  3795 ;; *************** function _longDelay *****************
  3796 ;; Defined at:
  3797 ;;		line 373 in file "SysRiego.c"
  3798 ;; Parameters:    Size  Location     Type
  3799 ;;		None
  3800 ;; Auto vars:     Size  Location     Type
  3801 ;;  L3REG           1    2[BANK1 ] unsigned char 
  3802 ;;  L2REG           1    1[BANK1 ] unsigned char 
  3803 ;;  L1REG           1    0[BANK1 ] unsigned char 
  3804 ;; Return value:  Size  Location     Type
  3805 ;;                  1    wreg      void 
  3806 ;; Registers used:
  3807 ;;		wreg, status,2, status,0
  3808 ;; Tracked objects:
  3809 ;;		On entry : 0/0
  3810 ;;		On exit  : 0/0
  3811 ;;		Unchanged: 0/0
  3812 ;; Data sizes:     COMRAM   BANK0   BANK1   BANK2   BANK3   BANK4   BANK5   BANK6   BANK7   BANK8   BANK9  BANK10  BANK1
      +1  BANK12
  3813 ;;      Params:         0       0       0       0       0       0       0       0       0       0       0       0       
      +0       0
  3814 ;;      Locals:         0       0       3       0       0       0       0       0       0       0       0       0       
      +0       0
  3815 ;;      Temps:          0       0       0       0       0       0       0       0       0       0       0       0       
      +0       0
  3816 ;;      Totals:         0       0       3       0       0       0       0       0       0       0       0       0       
      +0       0
  3817 ;;Total ram usage:        3 bytes
  3818 ;; Hardware stack levels used:    1
  3819 ;; Hardware stack levels required when called:    8
  3820 ;; This function calls:
  3821 ;;		Nothing
  3822 ;; This function is called by:
  3823 ;;		_LCDSetup
  3824 ;; This function uses a non-reentrant model
  3825 ;;
  3826                           
  3827                           	psect	text22
  3828  0019A2                     __ptext22:
  3829                           	opt stack 0
  3830  0019A2                     _longDelay:
  3831                           	opt stack 21
  3832                           
  3833                           ;SysRiego.c: 374: unsigned char L1REG = 2;
  3834                           
  3835                           ;incstack = 0
  3836  0019A2  0E02               	movlw	2
  3837  0019A4  0101               	movlb	1	; () banked
  3838  0019A6  6F00               	movwf	longDelay@L1REG& (0+255),b
  3839                           
  3840                           ;SysRiego.c: 375: unsigned char L2REG = 162;
  3841  0019A8  0EA2               	movlw	162
  3842  0019AA  0101               	movlb	1	; () banked
  3843  0019AC  6F01               	movwf	longDelay@L2REG& (0+255),b
  3844                           
  3845                           ; BSR set to: 1
  3846                           ;SysRiego.c: 376: unsigned char L3REG = 255;
  3847  0019AE  0101               	movlb	1	; () banked
  3848  0019B0  6902               	setf	longDelay@L3REG& (0+255),b
  3849                           
  3850                           ;SysRiego.c: 378: while(L1REG-- > 0){
  3851  0019B2  D012               	goto	l3694
  3852  0019B4                     l3688:
  3853                           
  3854                           ; BSR set to: 1
  3855                           ;SysRiego.c: 379: L2REG = 162;
  3856  0019B4  0EA2               	movlw	162
  3857  0019B6  0101               	movlb	1	; () banked
  3858  0019B8  6F01               	movwf	longDelay@L2REG& (0+255),b
  3859                           
  3860                           ;SysRiego.c: 380: while(L2REG-- > 0){
  3861  0019BA  D008               	goto	l3692
  3862  0019BC                     l217:
  3863                           
  3864                           ; BSR set to: 1
  3865                           ;SysRiego.c: 381: L3REG = 255;
  3866  0019BC  0101               	movlb	1	; () banked
  3867  0019BE  6902               	setf	longDelay@L3REG& (0+255),b
  3868  0019C0                     l3690:
  3869                           
  3870                           ; BSR set to: 1
  3871  0019C0  0101               	movlb	1	; () banked
  3872  0019C2  0702               	decf	longDelay@L3REG& (0+255),f,b
  3873  0019C4  0101               	movlb	1	; () banked
  3874  0019C6  2902               	incf	longDelay@L3REG& (0+255),w,b
  3875  0019C8  A4D8               	btfss	status,2,c
  3876  0019CA  D7FA               	goto	l3690
  3877  0019CC                     l3692:
  3878                           
  3879                           ; BSR set to: 1
  3880  0019CC  0101               	movlb	1	; () banked
  3881  0019CE  0701               	decf	longDelay@L2REG& (0+255),f,b
  3882  0019D0  0101               	movlb	1	; () banked
  3883  0019D2  2901               	incf	longDelay@L2REG& (0+255),w,b
  3884  0019D4  A4D8               	btfss	status,2,c
  3885  0019D6  D7F2               	goto	l217
  3886  0019D8                     l3694:
  3887                           
  3888                           ; BSR set to: 1
  3889  0019D8  0101               	movlb	1	; () banked
  3890  0019DA  0700               	decf	longDelay@L1REG& (0+255),f,b
  3891  0019DC  0101               	movlb	1	; () banked
  3892  0019DE  2900               	incf	longDelay@L1REG& (0+255),w,b
  3893  0019E0  B4D8               	btfsc	status,2,c
  3894  0019E2  0012               	return	
  3895  0019E4  D7E7               	goto	l3688
  3896  0019E6                     __end_of_longDelay:
  3897                           	opt stack 0
  3898                           tblptru	equ	0xFF8
  3899                           tblptrh	equ	0xFF7
  3900                           tblptrl	equ	0xFF6
  3901                           tablat	equ	0xFF5
  3902                           prodh	equ	0xFF4
  3903                           prodl	equ	0xFF3
  3904                           intcon	equ	0xFF2
  3905                           intcon2	equ	0xFF1
  3906                           indf0	equ	0xFEF
  3907                           postinc0	equ	0xFEE
  3908                           fsr0h	equ	0xFEA
  3909                           fsr0l	equ	0xFE9
  3910                           postdec1	equ	0xFE5
  3911                           fsr1l	equ	0xFE1
  3912                           indf2	equ	0xFDF
  3913                           postinc2	equ	0xFDE
  3914                           postdec2	equ	0xFDD
  3915                           fsr2h	equ	0xFDA
  3916                           fsr2l	equ	0xFD9
  3917                           status	equ	0xFD8
  3918                           
  3919 ;; *************** function _isReady *****************
  3920 ;; Defined at:
  3921 ;;		line 396 in file "SysRiego.c"
  3922 ;; Parameters:    Size  Location     Type
  3923 ;;		None
  3924 ;; Auto vars:     Size  Location     Type
  3925 ;;		None
  3926 ;; Return value:  Size  Location     Type
  3927 ;;                  1    wreg      void 
  3928 ;; Registers used:
  3929 ;;		wreg, status,2, status,0, cstack
  3930 ;; Tracked objects:
  3931 ;;		On entry : 0/0
  3932 ;;		On exit  : 0/0
  3933 ;;		Unchanged: 0/0
  3934 ;; Data sizes:     COMRAM   BANK0   BANK1   BANK2   BANK3   BANK4   BANK5   BANK6   BANK7   BANK8   BANK9  BANK10  BANK1
      +1  BANK12
  3935 ;;      Params:         0       0       0       0       0       0       0       0       0       0       0       0       
      +0       0
  3936 ;;      Locals:         0       0       0       0       0       0       0       0       0       0       0       0       
      +0       0
  3937 ;;      Temps:          0       0       0       0       0       0       0       0       0       0       0       0       
      +0       0
  3938 ;;      Totals:         0       0       0       0       0       0       0       0       0       0       0       0       
      +0       0
  3939 ;;Total ram usage:        0 bytes
  3940 ;; Hardware stack levels used:    1
  3941 ;; Hardware stack levels required when called:    9
  3942 ;; This function calls:
  3943 ;;		_portDAsInput
  3944 ;;		_portDAsOutput
  3945 ;;		_shortDelay
  3946 ;; This function is called by:
  3947 ;;		_LCDSetup
  3948 ;;		_clearDisplay
  3949 ;;		_moveCurR
  3950 ;;		_moveCurL
  3951 ;; This function uses a non-reentrant model
  3952 ;;
  3953                           
  3954                           	psect	text23
  3955  001B86                     __ptext23:
  3956                           	opt stack 0
  3957  001B86                     _isReady:
  3958                           	opt stack 19
  3959                           
  3960                           ;SysRiego.c: 397: portDAsInput();
  3961                           
  3962                           ; BSR set to: 1
  3963                           ;incstack = 0
  3964  001B86  EC78  F00E         	call	_portDAsInput	;wreg free
  3965                           
  3966                           ;SysRiego.c: 398: PORTCbits.RC0 = 0;
  3967  001B8A  9082               	bcf	3970,0,c	;volatile
  3968                           
  3969                           ;SysRiego.c: 399: PORTCbits.RC1 = 1;
  3970  001B8C  8282               	bsf	3970,1,c	;volatile
  3971                           
  3972                           ;SysRiego.c: 401: while(PORTDbits.RD7 == 1){
  3973  001B8E  D004               	goto	l3646
  3974  001B90                     l230:
  3975                           
  3976                           ;SysRiego.c: 402: PORTCbits.RC2 = 1;
  3977  001B90  8482               	bsf	3970,2,c	;volatile
  3978                           
  3979                           ;SysRiego.c: 403: shortDelay();
  3980  001B92  EC1F  F00E         	call	_shortDelay	;wreg free
  3981                           
  3982                           ;SysRiego.c: 404: PORTCbits.RC2 = 0;
  3983  001B96  9482               	bcf	3970,2,c	;volatile
  3984  001B98                     l3646:
  3985  001B98  BE83               	btfsc	3971,7,c	;volatile
  3986  001B9A  D7FA               	goto	l230
  3987                           
  3988                           ;SysRiego.c: 405: }
  3989                           ;SysRiego.c: 406: portDAsOutput();
  3990  001B9C  EC72  F00E         	call	_portDAsOutput	;wreg free
  3991  001BA0  0012               	return		;funcret
  3992  001BA2                     __end_of_isReady:
  3993                           	opt stack 0
  3994                           tblptru	equ	0xFF8
  3995                           tblptrh	equ	0xFF7
  3996                           tblptrl	equ	0xFF6
  3997                           tablat	equ	0xFF5
  3998                           prodh	equ	0xFF4
  3999                           prodl	equ	0xFF3
  4000                           intcon	equ	0xFF2
  4001                           intcon2	equ	0xFF1
  4002                           indf0	equ	0xFEF
  4003                           postinc0	equ	0xFEE
  4004                           fsr0h	equ	0xFEA
  4005                           fsr0l	equ	0xFE9
  4006                           postdec1	equ	0xFE5
  4007                           fsr1l	equ	0xFE1
  4008                           indf2	equ	0xFDF
  4009                           postinc2	equ	0xFDE
  4010                           postdec2	equ	0xFDD
  4011                           fsr2h	equ	0xFDA
  4012                           fsr2l	equ	0xFD9
  4013                           status	equ	0xFD8
  4014                           
  4015 ;; *************** function _portDAsOutput *****************
  4016 ;; Defined at:
  4017 ;;		line 351 in file "SysRiego.c"
  4018 ;; Parameters:    Size  Location     Type
  4019 ;;		None
  4020 ;; Auto vars:     Size  Location     Type
  4021 ;;		None
  4022 ;; Return value:  Size  Location     Type
  4023 ;;                  1    wreg      void 
  4024 ;; Registers used:
  4025 ;;		wreg, status,2
  4026 ;; Tracked objects:
  4027 ;;		On entry : 0/0
  4028 ;;		On exit  : 0/0
  4029 ;;		Unchanged: 0/0
  4030 ;; Data sizes:     COMRAM   BANK0   BANK1   BANK2   BANK3   BANK4   BANK5   BANK6   BANK7   BANK8   BANK9  BANK10  BANK1
      +1  BANK12
  4031 ;;      Params:         0       0       0       0       0       0       0       0       0       0       0       0       
      +0       0
  4032 ;;      Locals:         0       0       0       0       0       0       0       0       0       0       0       0       
      +0       0
  4033 ;;      Temps:          0       0       0       0       0       0       0       0       0       0       0       0       
      +0       0
  4034 ;;      Totals:         0       0       0       0       0       0       0       0       0       0       0       0       
      +0       0
  4035 ;;Total ram usage:        0 bytes
  4036 ;; Hardware stack levels used:    1
  4037 ;; Hardware stack levels required when called:    8
  4038 ;; This function calls:
  4039 ;;		Nothing
  4040 ;; This function is called by:
  4041 ;;		_main
  4042 ;;		_isReady
  4043 ;; This function uses a non-reentrant model
  4044 ;;
  4045                           
  4046                           	psect	text24
  4047  001CE4                     __ptext24:
  4048                           	opt stack 0
  4049  001CE4                     _portDAsOutput:
  4050                           	opt stack 19
  4051                           
  4052                           ;SysRiego.c: 352: TRISD = 0x00;
  4053                           
  4054                           ;incstack = 0
  4055  001CE4  0E00               	movlw	0
  4056  001CE6  6E95               	movwf	3989,c	;volatile
  4057  001CE8  0012               	return		;funcret
  4058  001CEA                     __end_of_portDAsOutput:
  4059                           	opt stack 0
  4060                           tblptru	equ	0xFF8
  4061                           tblptrh	equ	0xFF7
  4062                           tblptrl	equ	0xFF6
  4063                           tablat	equ	0xFF5
  4064                           prodh	equ	0xFF4
  4065                           prodl	equ	0xFF3
  4066                           intcon	equ	0xFF2
  4067                           intcon2	equ	0xFF1
  4068                           indf0	equ	0xFEF
  4069                           postinc0	equ	0xFEE
  4070                           fsr0h	equ	0xFEA
  4071                           fsr0l	equ	0xFE9
  4072                           postdec1	equ	0xFE5
  4073                           fsr1l	equ	0xFE1
  4074                           indf2	equ	0xFDF
  4075                           postinc2	equ	0xFDE
  4076                           postdec2	equ	0xFDD
  4077                           fsr2h	equ	0xFDA
  4078                           fsr2l	equ	0xFD9
  4079                           status	equ	0xFD8
  4080                           
  4081 ;; *************** function _portDAsInput *****************
  4082 ;; Defined at:
  4083 ;;		line 347 in file "SysRiego.c"
  4084 ;; Parameters:    Size  Location     Type
  4085 ;;		None
  4086 ;; Auto vars:     Size  Location     Type
  4087 ;;		None
  4088 ;; Return value:  Size  Location     Type
  4089 ;;                  1    wreg      void 
  4090 ;; Registers used:
  4091 ;;		None
  4092 ;; Tracked objects:
  4093 ;;		On entry : 0/0
  4094 ;;		On exit  : 0/0
  4095 ;;		Unchanged: 0/0
  4096 ;; Data sizes:     COMRAM   BANK0   BANK1   BANK2   BANK3   BANK4   BANK5   BANK6   BANK7   BANK8   BANK9  BANK10  BANK1
      +1  BANK12
  4097 ;;      Params:         0       0       0       0       0       0       0       0       0       0       0       0       
      +0       0
  4098 ;;      Locals:         0       0       0       0       0       0       0       0       0       0       0       0       
      +0       0
  4099 ;;      Temps:          0       0       0       0       0       0       0       0       0       0       0       0       
      +0       0
  4100 ;;      Totals:         0       0       0       0       0       0       0       0       0       0       0       0       
      +0       0
  4101 ;;Total ram usage:        0 bytes
  4102 ;; Hardware stack levels used:    1
  4103 ;; Hardware stack levels required when called:    8
  4104 ;; This function calls:
  4105 ;;		Nothing
  4106 ;; This function is called by:
  4107 ;;		_isReady
  4108 ;; This function uses a non-reentrant model
  4109 ;;
  4110                           
  4111                           	psect	text25
  4112  001CF0                     __ptext25:
  4113                           	opt stack 0
  4114  001CF0                     _portDAsInput:
  4115                           	opt stack 19
  4116                           
  4117                           ;SysRiego.c: 348: TRISD = 0xFF;
  4118                           
  4119                           ;incstack = 0
  4120  001CF0  6895               	setf	3989,c	;volatile
  4121  001CF2  0012               	return		;funcret
  4122  001CF4                     __end_of_portDAsInput:
  4123                           	opt stack 0
  4124                           tblptru	equ	0xFF8
  4125                           tblptrh	equ	0xFF7
  4126                           tblptrl	equ	0xFF6
  4127                           tablat	equ	0xFF5
  4128                           prodh	equ	0xFF4
  4129                           prodl	equ	0xFF3
  4130                           intcon	equ	0xFF2
  4131                           intcon2	equ	0xFF1
  4132                           indf0	equ	0xFEF
  4133                           postinc0	equ	0xFEE
  4134                           fsr0h	equ	0xFEA
  4135                           fsr0l	equ	0xFE9
  4136                           postdec1	equ	0xFE5
  4137                           fsr1l	equ	0xFE1
  4138                           indf2	equ	0xFDF
  4139                           postinc2	equ	0xFDE
  4140                           postdec2	equ	0xFDD
  4141                           fsr2h	equ	0xFDA
  4142                           fsr2l	equ	0xFD9
  4143                           status	equ	0xFD8
  4144                           
  4145 ;; *************** function _command *****************
  4146 ;; Defined at:
  4147 ;;		line 387 in file "SysRiego.c"
  4148 ;; Parameters:    Size  Location     Type
  4149 ;;  x               1    wreg     unsigned char 
  4150 ;; Auto vars:     Size  Location     Type
  4151 ;;  x               1    1[BANK1 ] unsigned char 
  4152 ;; Return value:  Size  Location     Type
  4153 ;;                  1    wreg      void 
  4154 ;; Registers used:
  4155 ;;		wreg, status,2, status,0, cstack
  4156 ;; Tracked objects:
  4157 ;;		On entry : 0/0
  4158 ;;		On exit  : 0/0
  4159 ;;		Unchanged: 0/0
  4160 ;; Data sizes:     COMRAM   BANK0   BANK1   BANK2   BANK3   BANK4   BANK5   BANK6   BANK7   BANK8   BANK9  BANK10  BANK1
      +1  BANK12
  4161 ;;      Params:         0       0       0       0       0       0       0       0       0       0       0       0       
      +0       0
  4162 ;;      Locals:         0       0       1       0       0       0       0       0       0       0       0       0       
      +0       0
  4163 ;;      Temps:          0       0       0       0       0       0       0       0       0       0       0       0       
      +0       0
  4164 ;;      Totals:         0       0       1       0       0       0       0       0       0       0       0       0       
      +0       0
  4165 ;;Total ram usage:        1 bytes
  4166 ;; Hardware stack levels used:    1
  4167 ;; Hardware stack levels required when called:    9
  4168 ;; This function calls:
  4169 ;;		_shortDelay
  4170 ;; This function is called by:
  4171 ;;		_LCDSetup
  4172 ;;		_clearDisplay
  4173 ;;		_moveCurH
  4174 ;;		_moveCurR
  4175 ;;		_moveCurL
  4176 ;; This function uses a non-reentrant model
  4177 ;;
  4178                           
  4179                           	psect	text26
  4180  001C28                     __ptext26:
  4181                           	opt stack 0
  4182  001C28                     _command:
  4183                           	opt stack 19
  4184                           
  4185                           ;incstack = 0
  4186                           ;command@x stored from wreg
  4187  001C28  0101               	movlb	1	; () banked
  4188  001C2A  6F01               	movwf	command@x& (0+255),b
  4189                           
  4190                           ;SysRiego.c: 388: PORTD = x;
  4191  001C2C  C101  FF83         	movff	command@x,3971	;volatile
  4192                           
  4193                           ;SysRiego.c: 389: PORTCbits.RC0 = 0;
  4194  001C30  9082               	bcf	3970,0,c	;volatile
  4195                           
  4196                           ;SysRiego.c: 390: PORTCbits.RC1 = 0;
  4197  001C32  9282               	bcf	3970,1,c	;volatile
  4198                           
  4199                           ;SysRiego.c: 391: PORTCbits.RC2 = 1;
  4200  001C34  8482               	bsf	3970,2,c	;volatile
  4201                           
  4202                           ;SysRiego.c: 392: shortDelay();
  4203  001C36  EC1F  F00E         	call	_shortDelay	;wreg free
  4204                           
  4205                           ;SysRiego.c: 393: PORTCbits.RC2 = 0;
  4206  001C3A  9482               	bcf	3970,2,c	;volatile
  4207  001C3C  0012               	return		;funcret
  4208  001C3E                     __end_of_command:
  4209                           	opt stack 0
  4210                           tblptru	equ	0xFF8
  4211                           tblptrh	equ	0xFF7
  4212                           tblptrl	equ	0xFF6
  4213                           tablat	equ	0xFF5
  4214                           prodh	equ	0xFF4
  4215                           prodl	equ	0xFF3
  4216                           intcon	equ	0xFF2
  4217                           intcon2	equ	0xFF1
  4218                           indf0	equ	0xFEF
  4219                           postinc0	equ	0xFEE
  4220                           fsr0h	equ	0xFEA
  4221                           fsr0l	equ	0xFE9
  4222                           postdec1	equ	0xFE5
  4223                           fsr1l	equ	0xFE1
  4224                           indf2	equ	0xFDF
  4225                           postinc2	equ	0xFDE
  4226                           postdec2	equ	0xFDD
  4227                           fsr2h	equ	0xFDA
  4228                           fsr2l	equ	0xFD9
  4229                           status	equ	0xFD8
  4230                           
  4231 ;; *************** function _shortDelay *****************
  4232 ;; Defined at:
  4233 ;;		line 367 in file "SysRiego.c"
  4234 ;; Parameters:    Size  Location     Type
  4235 ;;		None
  4236 ;; Auto vars:     Size  Location     Type
  4237 ;;  L1REG           1    0[BANK1 ] unsigned char 
  4238 ;; Return value:  Size  Location     Type
  4239 ;;                  1    wreg      void 
  4240 ;; Registers used:
  4241 ;;		wreg, status,2, status,0
  4242 ;; Tracked objects:
  4243 ;;		On entry : 0/0
  4244 ;;		On exit  : 0/0
  4245 ;;		Unchanged: 0/0
  4246 ;; Data sizes:     COMRAM   BANK0   BANK1   BANK2   BANK3   BANK4   BANK5   BANK6   BANK7   BANK8   BANK9  BANK10  BANK1
      +1  BANK12
  4247 ;;      Params:         0       0       0       0       0       0       0       0       0       0       0       0       
      +0       0
  4248 ;;      Locals:         0       0       1       0       0       0       0       0       0       0       0       0       
      +0       0
  4249 ;;      Temps:          0       0       0       0       0       0       0       0       0       0       0       0       
      +0       0
  4250 ;;      Totals:         0       0       1       0       0       0       0       0       0       0       0       0       
      +0       0
  4251 ;;Total ram usage:        1 bytes
  4252 ;; Hardware stack levels used:    1
  4253 ;; Hardware stack levels required when called:    8
  4254 ;; This function calls:
  4255 ;;		Nothing
  4256 ;; This function is called by:
  4257 ;;		_command
  4258 ;;		_isReady
  4259 ;;		_displayCharOnLCD
  4260 ;;		_clearDisplay
  4261 ;;		_moveCurR
  4262 ;;		_moveCurL
  4263 ;; This function uses a non-reentrant model
  4264 ;;
  4265                           
  4266                           	psect	text27
  4267  001C3E                     __ptext27:
  4268                           	opt stack 0
  4269  001C3E                     _shortDelay:
  4270                           	opt stack 19
  4271                           
  4272                           ;SysRiego.c: 368: unsigned char L1REG = 2;
  4273                           
  4274                           ;incstack = 0
  4275  001C3E  0E02               	movlw	2
  4276  001C40  0101               	movlb	1	; () banked
  4277  001C42  6F00               	movwf	shortDelay@L1REG& (0+255),b
  4278  001C44                     l3600:
  4279                           
  4280                           ; BSR set to: 1
  4281  001C44  0101               	movlb	1	; () banked
  4282  001C46  0700               	decf	shortDelay@L1REG& (0+255),f,b
  4283  001C48  0101               	movlb	1	; () banked
  4284  001C4A  2900               	incf	shortDelay@L1REG& (0+255),w,b
  4285  001C4C  B4D8               	btfsc	status,2,c
  4286  001C4E  0012               	return	
  4287  001C50  D7F9               	goto	l3600
  4288  001C52                     __end_of_shortDelay:
  4289                           	opt stack 0
  4290                           tblptru	equ	0xFF8
  4291                           tblptrh	equ	0xFF7
  4292                           tblptrl	equ	0xFF6
  4293                           tablat	equ	0xFF5
  4294                           prodh	equ	0xFF4
  4295                           prodl	equ	0xFF3
  4296                           intcon	equ	0xFF2
  4297                           intcon2	equ	0xFF1
  4298                           indf0	equ	0xFEF
  4299                           postinc0	equ	0xFEE
  4300                           fsr0h	equ	0xFEA
  4301                           fsr0l	equ	0xFE9
  4302                           postdec1	equ	0xFE5
  4303                           fsr1l	equ	0xFE1
  4304                           indf2	equ	0xFDF
  4305                           postinc2	equ	0xFDE
  4306                           postdec2	equ	0xFDD
  4307                           fsr2h	equ	0xFDA
  4308                           fsr2l	equ	0xFD9
  4309                           status	equ	0xFD8
  4310                           
  4311 ;; *************** function _ISRL *****************
  4312 ;; Defined at:
  4313 ;;		line 655 in file "SysRiego.c"
  4314 ;; Parameters:    Size  Location     Type
  4315 ;;		None
  4316 ;; Auto vars:     Size  Location     Type
  4317 ;;		None
  4318 ;; Return value:  Size  Location     Type
  4319 ;;                  1    wreg      void 
  4320 ;; Registers used:
  4321 ;;		None
  4322 ;; Tracked objects:
  4323 ;;		On entry : 0/0
  4324 ;;		On exit  : 0/0
  4325 ;;		Unchanged: 0/0
  4326 ;; Data sizes:     COMRAM   BANK0   BANK1   BANK2   BANK3   BANK4   BANK5   BANK6   BANK7   BANK8   BANK9  BANK10  BANK1
      +1  BANK12
  4327 ;;      Params:         0       0       0       0       0       0       0       0       0       0       0       0       
      +0       0
  4328 ;;      Locals:         0       0       0       0       0       0       0       0       0       0       0       0       
      +0       0
  4329 ;;      Temps:          0      17       0       0       0       0       0       0       0       0       0       0       
      +0       0
  4330 ;;      Totals:         0      17       0       0       0       0       0       0       0       0       0       0       
      +0       0
  4331 ;;Total ram usage:       17 bytes
  4332 ;; Hardware stack levels used:    1
  4333 ;; Hardware stack levels required when called:    7
  4334 ;; This function calls:
  4335 ;;		Nothing
  4336 ;; This function is called by:
  4337 ;;		Interrupt level 1
  4338 ;; This function uses a non-reentrant model
  4339 ;;
  4340                           
  4341                           	psect	intcodelo
  4342  000018                     __pintcodelo:
  4343                           	opt stack 0
  4344  000018                     _ISRL:
  4345                           	opt stack 17
  4346                           
  4347                           ; BSR set to: 1
  4348                           ;incstack = 0
  4349  000018  804A               	bsf	btemp,0,c	;set compiler interrupt flag (level 1)
  4350  00001A  CFD8 F0E8          	movff	status,??_ISRL
  4351  00001E  CFE8 F0E9          	movff	wreg,??_ISRL+1
  4352  000022  CFE0 F0EA          	movff	bsr,??_ISRL+2
  4353  000026  CFFA F0EB          	movff	pclath,??_ISRL+3
  4354  00002A  CFFB F0EC          	movff	pclatu,??_ISRL+4
  4355  00002E  CFE9 F0ED          	movff	fsr0l,??_ISRL+5
  4356  000032  CFEA F0EE          	movff	fsr0h,??_ISRL+6
  4357  000036  CFE1 F0EF          	movff	fsr1l,??_ISRL+7
  4358  00003A  CFE2 F0F0          	movff	fsr1h,??_ISRL+8
  4359  00003E  CFD9 F0F1          	movff	fsr2l,??_ISRL+9
  4360  000042  CFDA F0F2          	movff	fsr2h,??_ISRL+10
  4361  000046  CFF3 F0F3          	movff	prodl,??_ISRL+11
  4362  00004A  CFF4 F0F4          	movff	prodh,??_ISRL+12
  4363  00004E  CFF6 F0F5          	movff	tblptrl,??_ISRL+13
  4364  000052  CFF7 F0F6          	movff	tblptrh,??_ISRL+14
  4365  000056  CFF8 F0F7          	movff	tblptru,??_ISRL+15
  4366  00005A  CFF5 F0F8          	movff	tablat,??_ISRL+16
  4367  00005E  C0F8  FFF5         	movff	??_ISRL+16,tablat
  4368  000062  C0F7  FFF8         	movff	??_ISRL+15,tblptru
  4369  000066  C0F6  FFF7         	movff	??_ISRL+14,tblptrh
  4370  00006A  C0F5  FFF6         	movff	??_ISRL+13,tblptrl
  4371  00006E  C0F4  FFF4         	movff	??_ISRL+12,prodh
  4372  000072  C0F3  FFF3         	movff	??_ISRL+11,prodl
  4373  000076  C0F2  FFDA         	movff	??_ISRL+10,fsr2h
  4374  00007A  C0F1  FFD9         	movff	??_ISRL+9,fsr2l
  4375  00007E  C0F0  FFE2         	movff	??_ISRL+8,fsr1h
  4376  000082  C0EF  FFE1         	movff	??_ISRL+7,fsr1l
  4377  000086  C0EE  FFEA         	movff	??_ISRL+6,fsr0h
  4378  00008A  C0ED  FFE9         	movff	??_ISRL+5,fsr0l
  4379  00008E  C0EC  FFFB         	movff	??_ISRL+4,pclatu
  4380  000092  C0EB  FFFA         	movff	??_ISRL+3,pclath
  4381  000096  C0EA  FFE0         	movff	??_ISRL+2,bsr
  4382  00009A  C0E9  FFE8         	movff	??_ISRL+1,wreg
  4383  00009E  C0E8  FFD8         	movff	??_ISRL,status
  4384  0000A2  904A               	bcf	btemp,0,c	;clear compiler interrupt flag (level 1)
  4385  0000A4  0010               	retfie	
  4386  0000A6                     __end_of_ISRL:
  4387                           	opt stack 0
  4388                           pclatu	equ	0xFFB
  4389                           pclath	equ	0xFFA
  4390                           tblptru	equ	0xFF8
  4391                           tblptrh	equ	0xFF7
  4392                           tblptrl	equ	0xFF6
  4393                           tablat	equ	0xFF5
  4394                           prodh	equ	0xFF4
  4395                           prodl	equ	0xFF3
  4396                           intcon	equ	0xFF2
  4397                           intcon2	equ	0xFF1
  4398                           indf0	equ	0xFEF
  4399                           postinc0	equ	0xFEE
  4400                           fsr0h	equ	0xFEA
  4401                           fsr0l	equ	0xFE9
  4402                           wreg	equ	0xFE8
  4403                           postdec1	equ	0xFE5
  4404                           fsr1h	equ	0xFE2
  4405                           fsr1l	equ	0xFE1
  4406                           bsr	equ	0xFE0
  4407                           indf2	equ	0xFDF
  4408                           postinc2	equ	0xFDE
  4409                           postdec2	equ	0xFDD
  4410                           fsr2h	equ	0xFDA
  4411                           fsr2l	equ	0xFD9
  4412                           status	equ	0xFD8
  4413                           
  4414 ;; *************** function _ISRH *****************
  4415 ;; Defined at:
  4416 ;;		line 660 in file "SysRiego.c"
  4417 ;; Parameters:    Size  Location     Type
  4418 ;;		None
  4419 ;; Auto vars:     Size  Location     Type
  4420 ;;		None
  4421 ;; Return value:  Size  Location     Type
  4422 ;;                  1    wreg      void 
  4423 ;; Registers used:
  4424 ;;		wreg, fsr0l, fsr0h, status,2, status,0, tblptrl, tblptrh, tblptru, prodl, prodh, cstack
  4425 ;; Tracked objects:
  4426 ;;		On entry : 0/0
  4427 ;;		On exit  : 0/0
  4428 ;;		Unchanged: 0/0
  4429 ;; Data sizes:     COMRAM   BANK0   BANK1   BANK2   BANK3   BANK4   BANK5   BANK6   BANK7   BANK8   BANK9  BANK10  BANK1
      +1  BANK12
  4430 ;;      Params:         0       0       0       0       0       0       0       0       0       0       0       0       
      +0       0
  4431 ;;      Locals:         0       0       0       0       0       0       0       0       0       0       0       0       
      +0       0
  4432 ;;      Temps:         14       0       0       0       0       0       0       0       0       0       0       0       
      +0       0
  4433 ;;      Totals:        14       0       0       0       0       0       0       0       0       0       0       0       
      +0       0
  4434 ;;Total ram usage:       14 bytes
  4435 ;; Hardware stack levels used:    1
  4436 ;; Hardware stack levels required when called:    6
  4437 ;; This function calls:
  4438 ;;		_oneShot
  4439 ;;		_resetOneShot
  4440 ;;		i2_groundAllRows
  4441 ;; This function is called by:
  4442 ;;		Interrupt level 2
  4443 ;; This function uses a non-reentrant model
  4444 ;;
  4445                           
  4446                           	psect	intcode
  4447  000008                     __pintcode:
  4448                           	opt stack 0
  4449  000008                     _ISRH:
  4450                           	opt stack 17
  4451                           
  4452                           ;incstack = 0
  4453  000008  824A               	bsf	btemp,1,c	;set compiler interrupt flag (level 2)
  4454  00000A  CFFA F036          	movff	pclath,??_ISRH
  4455  00000E  CFFB F037          	movff	pclatu,??_ISRH+1
  4456  000012  ED3C  F007         	call	int_func,f	;refresh shadow registers
  4457                           pclatu	equ	0xFFB
  4458                           pclath	equ	0xFFA
  4459                           tblptru	equ	0xFF8
  4460                           tblptrh	equ	0xFF7
  4461                           tblptrl	equ	0xFF6
  4462                           tablat	equ	0xFF5
  4463                           prodh	equ	0xFF4
  4464                           prodl	equ	0xFF3
  4465                           intcon	equ	0xFF2
  4466                           intcon2	equ	0xFF1
  4467                           indf0	equ	0xFEF
  4468                           postinc0	equ	0xFEE
  4469                           fsr0h	equ	0xFEA
  4470                           fsr0l	equ	0xFE9
  4471                           wreg	equ	0xFE8
  4472                           postdec1	equ	0xFE5
  4473                           fsr1h	equ	0xFE2
  4474                           fsr1l	equ	0xFE1
  4475                           bsr	equ	0xFE0
  4476                           indf2	equ	0xFDF
  4477                           postinc2	equ	0xFDE
  4478                           postdec2	equ	0xFDD
  4479                           fsr2h	equ	0xFDA
  4480                           fsr2l	equ	0xFD9
  4481                           status	equ	0xFD8
  4482                           
  4483                           	psect	intcode_body
  4484  000E78                     __pintcode_body:
  4485                           	opt stack 17
  4486  000E78                     int_func:
  4487                           	opt stack 17
  4488  000E78  0006               	pop		; remove dummy address from shadow register refresh
  4489  000E7A  CFE9 F038          	movff	fsr0l,??_ISRH+2
  4490  000E7E  CFEA F039          	movff	fsr0h,??_ISRH+3
  4491  000E82  CFE1 F03A          	movff	fsr1l,??_ISRH+4
  4492  000E86  CFE2 F03B          	movff	fsr1h,??_ISRH+5
  4493  000E8A  CFD9 F03C          	movff	fsr2l,??_ISRH+6
  4494  000E8E  CFDA F03D          	movff	fsr2h,??_ISRH+7
  4495  000E92  CFF3 F03E          	movff	prodl,??_ISRH+8
  4496  000E96  CFF4 F03F          	movff	prodh,??_ISRH+9
  4497  000E9A  CFF6 F040          	movff	tblptrl,??_ISRH+10
  4498  000E9E  CFF7 F041          	movff	tblptrh,??_ISRH+11
  4499  000EA2  CFF8 F042          	movff	tblptru,??_ISRH+12
  4500  000EA6  CFF5 F043          	movff	tablat,??_ISRH+13
  4501                           
  4502                           ;SysRiego.c: 662: if(INTCONbits.RBIF==1)
  4503  000EAA  B0F2               	btfsc	intcon,0,c	;volatile
  4504  000EAC  D00C               	goto	i2l3270
  4505  000EAE  D00E               	goto	i2l316
  4506  000EB0                     i2l3260:
  4507                           
  4508                           ;SysRiego.c: 666: groundAllRows();
  4509  000EB0  EC68  F00E         	call	i2_groundAllRows	;wreg free
  4510                           
  4511                           ;SysRiego.c: 668: if(PORTB != 0xF0){
  4512  000EB4  0EF0               	movlw	240
  4513  000EB6  1881               	xorwf	3969,w,c	;volatile
  4514  000EB8  A4D8               	btfss	status,2,c
  4515                           
  4516                           ;SysRiego.c: 669: oneShot();
  4517  000EBA  ECDF  F00D         	call	_oneShot	;wreg free
  4518                           
  4519                           ;SysRiego.c: 670: }
  4520                           ;SysRiego.c: 671: if(oneShotFlag == 1){
  4521  000EBE  0448               	decf	_oneShotFlag,w,c
  4522  000EC0  B4D8               	btfsc	status,2,c
  4523                           
  4524                           ;SysRiego.c: 672: resetOneShot();
  4525  000EC2  ECD1  F00D         	call	_resetOneShot	;wreg free
  4526  000EC6                     i2l3270:
  4527  000EC6  A0F2               	btfss	intcon,0,c	;volatile
  4528  000EC8  D062               	goto	i2l322
  4529  000ECA  D7F2               	goto	i2l3260
  4530  000ECC                     i2l316:
  4531                           
  4532                           ;SysRiego.c: 678: }
  4533                           ;SysRiego.c: 681: if(TMR0IE && TMR0IF)
  4534  000ECC  BAF2               	btfsc	intcon,5,c	;volatile
  4535  000ECE  A4F2               	btfss	intcon,2,c	;volatile
  4536  000ED0  D05E               	goto	i2l322
  4537                           
  4538                           ;SysRiego.c: 682: {
  4539                           ;SysRiego.c: 683: counterSEC++;
  4540  000ED2  2A0B               	incf	_counterSEC,f,c
  4541                           
  4542                           ;SysRiego.c: 684: if(counterSEC=='5')
  4543  000ED4  0E35               	movlw	53
  4544  000ED6  180B               	xorwf	_counterSEC,w,c
  4545  000ED8  A4D8               	btfss	status,2,c
  4546  000EDA  D054               	goto	i2l3316
  4547                           
  4548                           ;SysRiego.c: 685: {
  4549                           ;SysRiego.c: 686: counterSEC='0';
  4550  000EDC  0E30               	movlw	48
  4551  000EDE  6E0B               	movwf	_counterSEC,c
  4552                           
  4553                           ;SysRiego.c: 687: counterMIN[1]++;
  4554  000EE0  0100               	movlb	0	; () banked
  4555  000EE2  2BE6               	incf	(_counterMIN+1)& (0+255),f,b
  4556                           
  4557                           ; BSR set to: 0
  4558                           ;SysRiego.c: 688: if(counterMIN[1]==':')
  4559  000EE4  0E3A               	movlw	58
  4560  000EE6  0100               	movlb	0	; () banked
  4561  000EE8  19E6               	xorwf	(_counterMIN+1)& (0+255),w,b
  4562  000EEA  A4D8               	btfss	status,2,c
  4563  000EEC  D04B               	goto	i2l3316
  4564                           
  4565                           ; BSR set to: 0
  4566                           ;SysRiego.c: 689: {
  4567                           ;SysRiego.c: 690: counterMIN[1]='0';
  4568  000EEE  0E30               	movlw	48
  4569  000EF0  0100               	movlb	0	; () banked
  4570  000EF2  6FE6               	movwf	(_counterMIN+1)& (0+255),b
  4571                           
  4572                           ; BSR set to: 0
  4573                           ;SysRiego.c: 691: counterMIN[0]++;
  4574  000EF4  0100               	movlb	0	; () banked
  4575  000EF6  2BE5               	incf	_counterMIN& (0+255),f,b
  4576                           
  4577                           ; BSR set to: 0
  4578                           ;SysRiego.c: 692: if(counterMIN[0]=='6')
  4579  000EF8  0E36               	movlw	54
  4580  000EFA  0100               	movlb	0	; () banked
  4581  000EFC  19E5               	xorwf	_counterMIN& (0+255),w,b
  4582  000EFE  A4D8               	btfss	status,2,c
  4583  000F00  D041               	goto	i2l3316
  4584                           
  4585                           ; BSR set to: 0
  4586                           ;SysRiego.c: 693: {
  4587                           ;SysRiego.c: 695: if(counterHOUR[0] < '2') {
  4588  000F02  0E32               	movlw	50
  4589  000F04  0100               	movlb	0	; () banked
  4590  000F06  61E2               	cpfslt	_counterHOUR& (0+255),b
  4591  000F08  D010               	goto	i2l3302
  4592                           
  4593                           ; BSR set to: 0
  4594                           ;SysRiego.c: 697: counterMIN[0]='0';
  4595  000F0A  0E30               	movlw	48
  4596  000F0C  0100               	movlb	0	; () banked
  4597  000F0E  6FE5               	movwf	_counterMIN& (0+255),b
  4598                           
  4599                           ; BSR set to: 0
  4600                           ;SysRiego.c: 698: counterHOUR[1]++;
  4601  000F10  0100               	movlb	0	; () banked
  4602  000F12  2BE3               	incf	(_counterHOUR+1)& (0+255),f,b
  4603                           
  4604                           ; BSR set to: 0
  4605                           ;SysRiego.c: 700: if(counterHOUR[1] == ':') {
  4606  000F14  0E3A               	movlw	58
  4607  000F16  0100               	movlb	0	; () banked
  4608  000F18  19E3               	xorwf	(_counterHOUR+1)& (0+255),w,b
  4609  000F1A  A4D8               	btfss	status,2,c
  4610  000F1C  D033               	goto	i2l3316
  4611                           
  4612                           ; BSR set to: 0
  4613                           ;SysRiego.c: 701: counterHOUR[1] = '0';
  4614  000F1E  0E30               	movlw	48
  4615  000F20  0100               	movlb	0	; () banked
  4616  000F22  6FE3               	movwf	(_counterHOUR+1)& (0+255),b
  4617                           
  4618                           ; BSR set to: 0
  4619                           ;SysRiego.c: 702: counterHOUR[0]++;
  4620  000F24  0100               	movlb	0	; () banked
  4621  000F26  2BE2               	incf	_counterHOUR& (0+255),f,b
  4622                           
  4623                           ; BSR set to: 0
  4624                           ;SysRiego.c: 703: }
  4625                           ;SysRiego.c: 705: }
  4626  000F28  D02D               	goto	i2l3316
  4627  000F2A                     i2l3302:
  4628                           
  4629                           ; BSR set to: 0
  4630                           ;SysRiego.c: 707: else if( counterHOUR[1] < '3')
  4631  000F2A  0E33               	movlw	51
  4632  000F2C  0100               	movlb	0	; () banked
  4633  000F2E  61E3               	cpfslt	(_counterHOUR+1)& (0+255),b
  4634  000F30  D006               	goto	i2l3308
  4635                           
  4636                           ; BSR set to: 0
  4637                           ;SysRiego.c: 708: {
  4638                           ;SysRiego.c: 709: counterMIN[0]='0';
  4639  000F32  0E30               	movlw	48
  4640  000F34  0100               	movlb	0	; () banked
  4641  000F36  6FE5               	movwf	_counterMIN& (0+255),b
  4642                           
  4643                           ; BSR set to: 0
  4644                           ;SysRiego.c: 710: counterHOUR[1]++;
  4645  000F38  0100               	movlb	0	; () banked
  4646  000F3A  2BE3               	incf	(_counterHOUR+1)& (0+255),f,b
  4647                           
  4648                           ;SysRiego.c: 711: }
  4649  000F3C  D023               	goto	i2l3316
  4650  000F3E                     i2l3308:
  4651                           
  4652                           ; BSR set to: 0
  4653                           ;SysRiego.c: 713: else {
  4654                           ;SysRiego.c: 715: counterSEC = '0';
  4655  000F3E  0E30               	movlw	48
  4656  000F40  6E0B               	movwf	_counterSEC,c
  4657                           
  4658                           ;SysRiego.c: 716: counterMIN[0] = '0';
  4659  000F42  0E30               	movlw	48
  4660  000F44  0100               	movlb	0	; () banked
  4661  000F46  6FE5               	movwf	_counterMIN& (0+255),b
  4662                           
  4663                           ;SysRiego.c: 717: counterMIN[1] = '0';
  4664  000F48  0E30               	movlw	48
  4665  000F4A  0100               	movlb	0	; () banked
  4666  000F4C  6FE6               	movwf	(_counterMIN+1)& (0+255),b
  4667                           
  4668                           ;SysRiego.c: 718: counterHOUR[0] = '0';
  4669  000F4E  0E30               	movlw	48
  4670  000F50  0100               	movlb	0	; () banked
  4671  000F52  6FE2               	movwf	_counterHOUR& (0+255),b
  4672                           
  4673                           ;SysRiego.c: 719: counterHOUR[1] = '0';
  4674  000F54  0E30               	movlw	48
  4675  000F56  0100               	movlb	0	; () banked
  4676  000F58  6FE3               	movwf	(_counterHOUR+1)& (0+255),b
  4677                           
  4678                           ; BSR set to: 0
  4679                           ;SysRiego.c: 720: counterDAYS++;
  4680  000F5A  2A0A               	incf	_counterDAYS,f,c
  4681                           
  4682                           ; BSR set to: 0
  4683                           ;SysRiego.c: 722: if (counterDAYS == '7') {
  4684  000F5C  0E37               	movlw	55
  4685  000F5E  180A               	xorwf	_counterDAYS,w,c
  4686  000F60  A4D8               	btfss	status,2,c
  4687  000F62  D010               	goto	i2l3316
  4688                           
  4689                           ; BSR set to: 0
  4690                           ;SysRiego.c: 724: counterSEC = '0';
  4691  000F64  0E30               	movlw	48
  4692  000F66  6E0B               	movwf	_counterSEC,c
  4693                           
  4694                           ;SysRiego.c: 725: counterMIN[0] = '0';
  4695  000F68  0E30               	movlw	48
  4696  000F6A  0100               	movlb	0	; () banked
  4697  000F6C  6FE5               	movwf	_counterMIN& (0+255),b
  4698                           
  4699                           ;SysRiego.c: 726: counterMIN[1] = '0';
  4700  000F6E  0E30               	movlw	48
  4701  000F70  0100               	movlb	0	; () banked
  4702  000F72  6FE6               	movwf	(_counterMIN+1)& (0+255),b
  4703                           
  4704                           ;SysRiego.c: 727: counterHOUR[0] = '0';
  4705  000F74  0E30               	movlw	48
  4706  000F76  0100               	movlb	0	; () banked
  4707  000F78  6FE2               	movwf	_counterHOUR& (0+255),b
  4708                           
  4709                           ;SysRiego.c: 728: counterHOUR[1] = '0';
  4710  000F7A  0E30               	movlw	48
  4711  000F7C  0100               	movlb	0	; () banked
  4712  000F7E  6FE3               	movwf	(_counterHOUR+1)& (0+255),b
  4713                           
  4714                           ;SysRiego.c: 729: counterDAYS = '0';
  4715  000F80  0E30               	movlw	48
  4716  000F82  6E0A               	movwf	_counterDAYS,c
  4717  000F84                     i2l3316:
  4718                           
  4719                           ;SysRiego.c: 730: }
  4720                           ;SysRiego.c: 731: }
  4721                           ;SysRiego.c: 732: }
  4722                           ;SysRiego.c: 733: }
  4723                           ;SysRiego.c: 734: }
  4724                           ;SysRiego.c: 736: INTCONbits.TMR0IF = 0;
  4725  000F84  94F2               	bcf	intcon,2,c	;volatile
  4726                           
  4727                           ;SysRiego.c: 737: TMR0 = 0xFFF0;
  4728  000F86  0EFF               	movlw	255
  4729  000F88  6ED7               	movwf	4055,c	;volatile
  4730  000F8A  0EF0               	movlw	240
  4731  000F8C  6ED6               	movwf	4054,c	;volatile
  4732  000F8E                     i2l322:
  4733  000F8E  C043  FFF5         	movff	??_ISRH+13,tablat
  4734  000F92  C042  FFF8         	movff	??_ISRH+12,tblptru
  4735  000F96  C041  FFF7         	movff	??_ISRH+11,tblptrh
  4736  000F9A  C040  FFF6         	movff	??_ISRH+10,tblptrl
  4737  000F9E  C03F  FFF4         	movff	??_ISRH+9,prodh
  4738  000FA2  C03E  FFF3         	movff	??_ISRH+8,prodl
  4739  000FA6  C03D  FFDA         	movff	??_ISRH+7,fsr2h
  4740  000FAA  C03C  FFD9         	movff	??_ISRH+6,fsr2l
  4741  000FAE  C03B  FFE2         	movff	??_ISRH+5,fsr1h
  4742  000FB2  C03A  FFE1         	movff	??_ISRH+4,fsr1l
  4743  000FB6  C039  FFEA         	movff	??_ISRH+3,fsr0h
  4744  000FBA  C038  FFE9         	movff	??_ISRH+2,fsr0l
  4745  000FBE  C037  FFFB         	movff	??_ISRH+1,pclatu
  4746  000FC2  C036  FFFA         	movff	??_ISRH,pclath
  4747  000FC6  924A               	bcf	btemp,1,c	;clear compiler interrupt flag (level 2)
  4748  000FC8  0011               	retfie		f
  4749  000FCA                     __end_of_ISRH:
  4750                           	opt stack 0
  4751                           pclatu	equ	0xFFB
  4752                           pclath	equ	0xFFA
  4753                           tblptru	equ	0xFF8
  4754                           tblptrh	equ	0xFF7
  4755                           tblptrl	equ	0xFF6
  4756                           tablat	equ	0xFF5
  4757                           prodh	equ	0xFF4
  4758                           prodl	equ	0xFF3
  4759                           intcon	equ	0xFF2
  4760                           intcon2	equ	0xFF1
  4761                           indf0	equ	0xFEF
  4762                           postinc0	equ	0xFEE
  4763                           fsr0h	equ	0xFEA
  4764                           fsr0l	equ	0xFE9
  4765                           wreg	equ	0xFE8
  4766                           postdec1	equ	0xFE5
  4767                           fsr1h	equ	0xFE2
  4768                           fsr1l	equ	0xFE1
  4769                           bsr	equ	0xFE0
  4770                           indf2	equ	0xFDF
  4771                           postinc2	equ	0xFDE
  4772                           postdec2	equ	0xFDD
  4773                           fsr2h	equ	0xFDA
  4774                           fsr2l	equ	0xFD9
  4775                           status	equ	0xFD8
  4776                           
  4777 ;; *************** function i2_groundAllRows *****************
  4778 ;; Defined at:
  4779 ;;		line 775 in file "SysRiego.c"
  4780 ;; Parameters:    Size  Location     Type
  4781 ;;		None
  4782 ;; Auto vars:     Size  Location     Type
  4783 ;;		None
  4784 ;; Return value:  Size  Location     Type
  4785 ;;                  1    wreg      void 
  4786 ;; Registers used:
  4787 ;;		None
  4788 ;; Tracked objects:
  4789 ;;		On entry : 0/0
  4790 ;;		On exit  : 0/0
  4791 ;;		Unchanged: 0/0
  4792 ;; Data sizes:     COMRAM   BANK0   BANK1   BANK2   BANK3   BANK4   BANK5   BANK6   BANK7   BANK8   BANK9  BANK10  BANK1
      +1  BANK12
  4793 ;;      Params:         0       0       0       0       0       0       0       0       0       0       0       0       
      +0       0
  4794 ;;      Locals:         0       0       0       0       0       0       0       0       0       0       0       0       
      +0       0
  4795 ;;      Temps:          0       0       0       0       0       0       0       0       0       0       0       0       
      +0       0
  4796 ;;      Totals:         0       0       0       0       0       0       0       0       0       0       0       0       
      +0       0
  4797 ;;Total ram usage:        0 bytes
  4798 ;; Hardware stack levels used:    1
  4799 ;; This function calls:
  4800 ;;		Nothing
  4801 ;; This function is called by:
  4802 ;;		_ISRH
  4803 ;; This function uses a non-reentrant model
  4804 ;;
  4805                           
  4806                           	psect	text30
  4807  001CD0                     __ptext30:
  4808                           	opt stack 0
  4809  001CD0                     i2_groundAllRows:
  4810                           	opt stack 22
  4811                           
  4812                           ;SysRiego.c: 776: PORTBbits.RB0 = 0;
  4813                           
  4814                           ;incstack = 0
  4815  001CD0  9081               	bcf	3969,0,c	;volatile
  4816                           
  4817                           ;SysRiego.c: 777: PORTBbits.RB1 = 0;
  4818  001CD2  9281               	bcf	3969,1,c	;volatile
  4819                           
  4820                           ;SysRiego.c: 778: PORTBbits.RB2 = 0;
  4821  001CD4  9481               	bcf	3969,2,c	;volatile
  4822                           
  4823                           ;SysRiego.c: 779: PORTBbits.RB3 = 0;
  4824  001CD6  9681               	bcf	3969,3,c	;volatile
  4825  001CD8  0012               	return		;funcret
  4826  001CDA                     __end_ofi2_groundAllRows:
  4827                           	opt stack 0
  4828                           pclatu	equ	0xFFB
  4829                           pclath	equ	0xFFA
  4830                           tblptru	equ	0xFF8
  4831                           tblptrh	equ	0xFF7
  4832                           tblptrl	equ	0xFF6
  4833                           tablat	equ	0xFF5
  4834                           prodh	equ	0xFF4
  4835                           prodl	equ	0xFF3
  4836                           intcon	equ	0xFF2
  4837                           intcon2	equ	0xFF1
  4838                           indf0	equ	0xFEF
  4839                           postinc0	equ	0xFEE
  4840                           fsr0h	equ	0xFEA
  4841                           fsr0l	equ	0xFE9
  4842                           wreg	equ	0xFE8
  4843                           postdec1	equ	0xFE5
  4844                           fsr1h	equ	0xFE2
  4845                           fsr1l	equ	0xFE1
  4846                           bsr	equ	0xFE0
  4847                           indf2	equ	0xFDF
  4848                           postinc2	equ	0xFDE
  4849                           postdec2	equ	0xFDD
  4850                           fsr2h	equ	0xFDA
  4851                           fsr2l	equ	0xFD9
  4852                           status	equ	0xFD8
  4853                           
  4854 ;; *************** function _resetOneShot *****************
  4855 ;; Defined at:
  4856 ;;		line 802 in file "SysRiego.c"
  4857 ;; Parameters:    Size  Location     Type
  4858 ;;		None
  4859 ;; Auto vars:     Size  Location     Type
  4860 ;;		None
  4861 ;; Return value:  Size  Location     Type
  4862 ;;                  1    wreg      void 
  4863 ;; Registers used:
  4864 ;;		wreg, status,2, status,0, cstack
  4865 ;; Tracked objects:
  4866 ;;		On entry : 0/0
  4867 ;;		On exit  : 0/0
  4868 ;;		Unchanged: 0/0
  4869 ;; Data sizes:     COMRAM   BANK0   BANK1   BANK2   BANK3   BANK4   BANK5   BANK6   BANK7   BANK8   BANK9  BANK10  BANK1
      +1  BANK12
  4870 ;;      Params:         0       0       0       0       0       0       0       0       0       0       0       0       
      +0       0
  4871 ;;      Locals:         0       0       0       0       0       0       0       0       0       0       0       0       
      +0       0
  4872 ;;      Temps:          0       0       0       0       0       0       0       0       0       0       0       0       
      +0       0
  4873 ;;      Totals:         0       0       0       0       0       0       0       0       0       0       0       0       
      +0       0
  4874 ;;Total ram usage:        0 bytes
  4875 ;; Hardware stack levels used:    1
  4876 ;; Hardware stack levels required when called:    1
  4877 ;; This function calls:
  4878 ;;		i2_delay
  4879 ;; This function is called by:
  4880 ;;		_ISRH
  4881 ;; This function uses a non-reentrant model
  4882 ;;
  4883                           
  4884                           	psect	text31
  4885  001BA2                     __ptext31:
  4886                           	opt stack 0
  4887  001BA2                     _resetOneShot:
  4888                           	opt stack 21
  4889                           
  4890                           ;SysRiego.c: 803: if (PORTB == 0xF0)
  4891                           
  4892                           ;incstack = 0
  4893  001BA2  0EF0               	movlw	240
  4894  001BA4  1881               	xorwf	3969,w,c	;volatile
  4895  001BA6  A4D8               	btfss	status,2,c
  4896  001BA8  0012               	return	
  4897                           
  4898                           ;SysRiego.c: 804: delay();
  4899  001BAA  ECED  F00D         	call	i2_delay	;wreg free
  4900                           
  4901                           ;SysRiego.c: 807: if (PORTB == 0XF0){
  4902                           
  4903                           ;SysRiego.c: 805: else
  4904                           ;SysRiego.c: 806: return;
  4905  001BAE  0EF0               	movlw	240
  4906  001BB0  1881               	xorwf	3969,w,c	;volatile
  4907  001BB2  A4D8               	btfss	status,2,c
  4908  001BB4  0012               	return	
  4909                           
  4910                           ;SysRiego.c: 808: INTCONbits.RBIF=0;
  4911  001BB6  90F2               	bcf	intcon,0,c	;volatile
  4912                           
  4913                           ;SysRiego.c: 809: oneShotFlag = 0;
  4914  001BB8  0E00               	movlw	0
  4915  001BBA  6E48               	movwf	_oneShotFlag,c
  4916  001BBC  0012               	return	
  4917  001BBE                     __end_of_resetOneShot:
  4918                           	opt stack 0
  4919                           pclatu	equ	0xFFB
  4920                           pclath	equ	0xFFA
  4921                           tblptru	equ	0xFF8
  4922                           tblptrh	equ	0xFF7
  4923                           tblptrl	equ	0xFF6
  4924                           tablat	equ	0xFF5
  4925                           prodh	equ	0xFF4
  4926                           prodl	equ	0xFF3
  4927                           intcon	equ	0xFF2
  4928                           intcon2	equ	0xFF1
  4929                           indf0	equ	0xFEF
  4930                           postinc0	equ	0xFEE
  4931                           fsr0h	equ	0xFEA
  4932                           fsr0l	equ	0xFE9
  4933                           wreg	equ	0xFE8
  4934                           postdec1	equ	0xFE5
  4935                           fsr1h	equ	0xFE2
  4936                           fsr1l	equ	0xFE1
  4937                           bsr	equ	0xFE0
  4938                           indf2	equ	0xFDF
  4939                           postinc2	equ	0xFDE
  4940                           postdec2	equ	0xFDD
  4941                           fsr2h	equ	0xFDA
  4942                           fsr2l	equ	0xFD9
  4943                           status	equ	0xFD8
  4944                           
  4945 ;; *************** function _oneShot *****************
  4946 ;; Defined at:
  4947 ;;		line 782 in file "SysRiego.c"
  4948 ;; Parameters:    Size  Location     Type
  4949 ;;		None
  4950 ;; Auto vars:     Size  Location     Type
  4951 ;;		None
  4952 ;; Return value:  Size  Location     Type
  4953 ;;                  1    wreg      void 
  4954 ;; Registers used:
  4955 ;;		wreg, fsr0l, fsr0h, status,2, status,0, tblptrl, tblptrh, tblptru, prodl, prodh, cstack
  4956 ;; Tracked objects:
  4957 ;;		On entry : 0/0
  4958 ;;		On exit  : 0/0
  4959 ;;		Unchanged: 0/0
  4960 ;; Data sizes:     COMRAM   BANK0   BANK1   BANK2   BANK3   BANK4   BANK5   BANK6   BANK7   BANK8   BANK9  BANK10  BANK1
      +1  BANK12
  4961 ;;      Params:         0       0       0       0       0       0       0       0       0       0       0       0       
      +0       0
  4962 ;;      Locals:         0       0       0       0       0       0       0       0       0       0       0       0       
      +0       0
  4963 ;;      Temps:          0       0       0       0       0       0       0       0       0       0       0       0       
      +0       0
  4964 ;;      Totals:         0       0       0       0       0       0       0       0       0       0       0       0       
      +0       0
  4965 ;;Total ram usage:        0 bytes
  4966 ;; Hardware stack levels used:    1
  4967 ;; Hardware stack levels required when called:    5
  4968 ;; This function calls:
  4969 ;;		_pressedKey
  4970 ;;		i2_delay
  4971 ;; This function is called by:
  4972 ;;		_ISRH
  4973 ;; This function uses a non-reentrant model
  4974 ;;
  4975                           
  4976                           	psect	text32
  4977  001BBE                     __ptext32:
  4978                           	opt stack 0
  4979  001BBE                     _oneShot:
  4980                           	opt stack 17
  4981                           
  4982                           ;SysRiego.c: 783: if (oneShotFlag == 1)
  4983                           
  4984                           ;incstack = 0
  4985  001BBE  0448               	decf	_oneShotFlag,w,c
  4986  001BC0  B4D8               	btfsc	status,2,c
  4987  001BC2  0012               	return	
  4988                           
  4989                           ;SysRiego.c: 785: delay();
  4990                           
  4991                           ;SysRiego.c: 784: return;
  4992  001BC4  ECED  F00D         	call	i2_delay	;wreg free
  4993                           
  4994                           ;SysRiego.c: 786: if (PORTB != 0xF0){
  4995  001BC8  0EF0               	movlw	240
  4996  001BCA  1881               	xorwf	3969,w,c	;volatile
  4997  001BCC  B4D8               	btfsc	status,2,c
  4998  001BCE  0012               	return	
  4999                           
  5000                           ;SysRiego.c: 787: pressedKey();
  5001  001BD0  ECAE  F00C         	call	_pressedKey	;wreg free
  5002                           
  5003                           ;SysRiego.c: 788: oneShotFlag = 1;
  5004  001BD4  0E01               	movlw	1
  5005  001BD6  6E48               	movwf	_oneShotFlag,c
  5006  001BD8  0012               	return	
  5007  001BDA                     __end_of_oneShot:
  5008                           	opt stack 0
  5009                           pclatu	equ	0xFFB
  5010                           pclath	equ	0xFFA
  5011                           tblptru	equ	0xFF8
  5012                           tblptrh	equ	0xFF7
  5013                           tblptrl	equ	0xFF6
  5014                           tablat	equ	0xFF5
  5015                           prodh	equ	0xFF4
  5016                           prodl	equ	0xFF3
  5017                           intcon	equ	0xFF2
  5018                           intcon2	equ	0xFF1
  5019                           indf0	equ	0xFEF
  5020                           postinc0	equ	0xFEE
  5021                           fsr0h	equ	0xFEA
  5022                           fsr0l	equ	0xFE9
  5023                           wreg	equ	0xFE8
  5024                           postdec1	equ	0xFE5
  5025                           fsr1h	equ	0xFE2
  5026                           fsr1l	equ	0xFE1
  5027                           bsr	equ	0xFE0
  5028                           indf2	equ	0xFDF
  5029                           postinc2	equ	0xFDE
  5030                           postdec2	equ	0xFDD
  5031                           fsr2h	equ	0xFDA
  5032                           fsr2l	equ	0xFD9
  5033                           status	equ	0xFD8
  5034                           
  5035 ;; *************** function i2_delay *****************
  5036 ;; Defined at:
  5037 ;;		line 793 in file "SysRiego.c"
  5038 ;; Parameters:    Size  Location     Type
  5039 ;;		None
  5040 ;; Auto vars:     Size  Location     Type
  5041 ;;  delay           1    2[COMRAM] unsigned char 
  5042 ;;  delay           1    1[COMRAM] unsigned char 
  5043 ;; Return value:  Size  Location     Type
  5044 ;;                  1    wreg      void 
  5045 ;; Registers used:
  5046 ;;		wreg, status,2, status,0
  5047 ;; Tracked objects:
  5048 ;;		On entry : 0/0
  5049 ;;		On exit  : 0/0
  5050 ;;		Unchanged: 0/0
  5051 ;; Data sizes:     COMRAM   BANK0   BANK1   BANK2   BANK3   BANK4   BANK5   BANK6   BANK7   BANK8   BANK9  BANK10  BANK1
      +1  BANK12
  5052 ;;      Params:         0       0       0       0       0       0       0       0       0       0       0       0       
      +0       0
  5053 ;;      Locals:         2       0       0       0       0       0       0       0       0       0       0       0       
      +0       0
  5054 ;;      Temps:          1       0       0       0       0       0       0       0       0       0       0       0       
      +0       0
  5055 ;;      Totals:         3       0       0       0       0       0       0       0       0       0       0       0       
      +0       0
  5056 ;;Total ram usage:        3 bytes
  5057 ;; Hardware stack levels used:    1
  5058 ;; This function calls:
  5059 ;;		Nothing
  5060 ;; This function is called by:
  5061 ;;		_oneShot
  5062 ;;		_resetOneShot
  5063 ;; This function uses a non-reentrant model
  5064 ;;
  5065                           
  5066                           	psect	text33
  5067  001BDA                     __ptext33:
  5068                           	opt stack 0
  5069  001BDA                     i2_delay:
  5070                           	opt stack 21
  5071                           
  5072                           ;SysRiego.c: 794: unsigned char L1REG = 0;
  5073                           
  5074                           ;incstack = 0
  5075  001BDA  0E00               	movlw	0
  5076  001BDC  6E29               	movwf	i2delay@L1REG,c
  5077                           
  5078                           ;SysRiego.c: 795: unsigned char L2REG;
  5079                           ;SysRiego.c: 796: while(L1REG++ < 13){
  5080  001BDE  D004               	goto	i2l3002
  5081  001BE0                     i2l3000:
  5082                           
  5083                           ;SysRiego.c: 797: L2REG = 0;
  5084  001BE0  0E00               	movlw	0
  5085  001BE2  6E2A               	movwf	i2delay@L2REG,c
  5086  001BE4                     i2l353:
  5087  001BE4  3E2A               	incfsz	i2delay@L2REG,f,c
  5088  001BE6  D7FE               	goto	i2l353
  5089  001BE8                     i2l3002:
  5090  001BE8  2A29               	incf	i2delay@L1REG,f,c
  5091  001BEA  0429               	decf	i2delay@L1REG,w,c
  5092  001BEC  6E28               	movwf	??i2_delay& (0+255),c
  5093  001BEE  0E0C               	movlw	12
  5094  001BF0  6428               	cpfsgt	??i2_delay,c
  5095  001BF2  D7F6               	goto	i2l3000
  5096  001BF4  0012               	return	
  5097  001BF6                     __end_ofi2_delay:
  5098                           	opt stack 0
  5099                           pclatu	equ	0xFFB
  5100                           pclath	equ	0xFFA
  5101                           tblptru	equ	0xFF8
  5102                           tblptrh	equ	0xFF7
  5103                           tblptrl	equ	0xFF6
  5104                           tablat	equ	0xFF5
  5105                           prodh	equ	0xFF4
  5106                           prodl	equ	0xFF3
  5107                           intcon	equ	0xFF2
  5108                           intcon2	equ	0xFF1
  5109                           indf0	equ	0xFEF
  5110                           postinc0	equ	0xFEE
  5111                           fsr0h	equ	0xFEA
  5112                           fsr0l	equ	0xFE9
  5113                           wreg	equ	0xFE8
  5114                           postdec1	equ	0xFE5
  5115                           fsr1h	equ	0xFE2
  5116                           fsr1l	equ	0xFE1
  5117                           bsr	equ	0xFE0
  5118                           indf2	equ	0xFDF
  5119                           postinc2	equ	0xFDE
  5120                           postdec2	equ	0xFDD
  5121                           fsr2h	equ	0xFDA
  5122                           fsr2l	equ	0xFD9
  5123                           status	equ	0xFD8
  5124                           
  5125 ;; *************** function _pressedKey *****************
  5126 ;; Defined at:
  5127 ;;		line 813 in file "SysRiego.c"
  5128 ;; Parameters:    Size  Location     Type
  5129 ;;		None
  5130 ;; Auto vars:     Size  Location     Type
  5131 ;;		None
  5132 ;; Return value:  Size  Location     Type
  5133 ;;                  1    wreg      void 
  5134 ;; Registers used:
  5135 ;;		wreg, fsr0l, fsr0h, status,2, status,0, tblptrl, tblptrh, tblptru, prodl, prodh, cstack
  5136 ;; Tracked objects:
  5137 ;;		On entry : 0/0
  5138 ;;		On exit  : 0/0
  5139 ;;		Unchanged: 0/0
  5140 ;; Data sizes:     COMRAM   BANK0   BANK1   BANK2   BANK3   BANK4   BANK5   BANK6   BANK7   BANK8   BANK9  BANK10  BANK1
      +1  BANK12
  5141 ;;      Params:         0       0       0       0       0       0       0       0       0       0       0       0       
      +0       0
  5142 ;;      Locals:         0       0       0       0       0       0       0       0       0       0       0       0       
      +0       0
  5143 ;;      Temps:          0       0       0       0       0       0       0       0       0       0       0       0       
      +0       0
  5144 ;;      Totals:         0       0       0       0       0       0       0       0       0       0       0       0       
      +0       0
  5145 ;;Total ram usage:        0 bytes
  5146 ;; Hardware stack levels used:    1
  5147 ;; Hardware stack levels required when called:    4
  5148 ;; This function calls:
  5149 ;;		_pressedKeyAction
  5150 ;;		i2_determinePressedRow
  5151 ;;		i2_getKeyCode
  5152 ;; This function is called by:
  5153 ;;		_oneShot
  5154 ;; This function uses a non-reentrant model
  5155 ;;
  5156                           
  5157                           	psect	text34
  5158  00195C                     __ptext34:
  5159                           	opt stack 0
  5160  00195C                     _pressedKey:
  5161                           	opt stack 17
  5162                           
  5163                           ;SysRiego.c: 815: switch(PORTB){
  5164                           
  5165                           ;incstack = 0
  5166  00195C  D00B               	goto	i2l2992
  5167  00195E                     i2l2982:
  5168  00195E  0E01               	movlw	1
  5169  001960  D007               	goto	L9
  5170  001962                     i2l2984:
  5171  001962  0E02               	movlw	2
  5172  001964  D005               	goto	L9
  5173  001966                     i2l2986:
  5174  001966  0E03               	movlw	3
  5175  001968  D003               	goto	L9
  5176  00196A                     i2l2988:
  5177  00196A  0E04               	movlw	4
  5178  00196C  D001               	goto	L9
  5179  00196E                     i2l2990:
  5180  00196E  0E64               	movlw	100
  5181  001970                     L9:
  5182  001970  6E44               	movwf	_columnSelected,c
  5183                           
  5184                           ;SysRiego.c: 821: }
  5185  001972  D00E               	goto	i2l2994
  5186  001974                     i2l2992:
  5187  001974  5081               	movf	3969,w,c	;volatile
  5188                           
  5189                           ; Switch size 1, requested type "space"
  5190                           ; Number of cases is 4, Range of values is 112 to 224
  5191                           ; switch strategies available:
  5192                           ; Name         Instructions Cycles
  5193                           ; simple_byte           13     7 (average)
  5194                           ;	Chosen strategy is simple_byte
  5195  001976  0A70               	xorlw	112	; case 112
  5196  001978  B4D8               	btfsc	status,2,c
  5197  00197A  D7F7               	goto	i2l2988
  5198  00197C  0AC0               	xorlw	192	; case 176
  5199  00197E  B4D8               	btfsc	status,2,c
  5200  001980  D7F2               	goto	i2l2986
  5201  001982  0A60               	xorlw	96	; case 208
  5202  001984  B4D8               	btfsc	status,2,c
  5203  001986  D7ED               	goto	i2l2984
  5204  001988  0A30               	xorlw	48	; case 224
  5205  00198A  B4D8               	btfsc	status,2,c
  5206  00198C  D7E8               	goto	i2l2982
  5207  00198E  D7EF               	goto	i2l2990
  5208  001990                     i2l2994:
  5209                           
  5210                           ;SysRiego.c: 822: determinePressedRow();
  5211  001990  EC7E  F008         	call	i2_determinePressedRow	;wreg free
  5212                           
  5213                           ;SysRiego.c: 823: keyCode = getKeyCode();
  5214  001994  EC7E  F00A         	call	i2_getKeyCode	;wreg free
  5215  001998  6E47               	movwf	_keyCode,c
  5216                           
  5217                           ;SysRiego.c: 824: pressedKeyAction(keyCode);
  5218  00199A  5047               	movf	_keyCode,w,c
  5219  00199C  EC86  F006         	call	_pressedKeyAction
  5220  0019A0  0012               	return		;funcret
  5221  0019A2                     __end_of_pressedKey:
  5222                           	opt stack 0
  5223                           pclatu	equ	0xFFB
  5224                           pclath	equ	0xFFA
  5225                           tblptru	equ	0xFF8
  5226                           tblptrh	equ	0xFF7
  5227                           tblptrl	equ	0xFF6
  5228                           tablat	equ	0xFF5
  5229                           prodh	equ	0xFF4
  5230                           prodl	equ	0xFF3
  5231                           intcon	equ	0xFF2
  5232                           intcon2	equ	0xFF1
  5233                           indf0	equ	0xFEF
  5234                           postinc0	equ	0xFEE
  5235                           fsr0h	equ	0xFEA
  5236                           fsr0l	equ	0xFE9
  5237                           wreg	equ	0xFE8
  5238                           postdec1	equ	0xFE5
  5239                           fsr1h	equ	0xFE2
  5240                           fsr1l	equ	0xFE1
  5241                           bsr	equ	0xFE0
  5242                           indf2	equ	0xFDF
  5243                           postinc2	equ	0xFDE
  5244                           postdec2	equ	0xFDD
  5245                           fsr2h	equ	0xFDA
  5246                           fsr2l	equ	0xFD9
  5247                           status	equ	0xFD8
  5248                           
  5249 ;; *************** function i2_getKeyCode *****************
  5250 ;; Defined at:
  5251 ;;		line 917 in file "SysRiego.c"
  5252 ;; Parameters:    Size  Location     Type
  5253 ;;		None
  5254 ;; Auto vars:     Size  Location     Type
  5255 ;;		None
  5256 ;; Return value:  Size  Location     Type
  5257 ;;                  1    wreg      unsigned char 
  5258 ;; Registers used:
  5259 ;;		wreg, status,2, status,0
  5260 ;; Tracked objects:
  5261 ;;		On entry : 0/0
  5262 ;;		On exit  : 0/0
  5263 ;;		Unchanged: 0/0
  5264 ;; Data sizes:     COMRAM   BANK0   BANK1   BANK2   BANK3   BANK4   BANK5   BANK6   BANK7   BANK8   BANK9  BANK10  BANK1
      +1  BANK12
  5265 ;;      Params:         0       0       0       0       0       0       0       0       0       0       0       0       
      +0       0
  5266 ;;      Locals:         0       0       0       0       0       0       0       0       0       0       0       0       
      +0       0
  5267 ;;      Temps:          0       0       0       0       0       0       0       0       0       0       0       0       
      +0       0
  5268 ;;      Totals:         0       0       0       0       0       0       0       0       0       0       0       0       
      +0       0
  5269 ;;Total ram usage:        0 bytes
  5270 ;; Hardware stack levels used:    1
  5271 ;; This function calls:
  5272 ;;		Nothing
  5273 ;; This function is called by:
  5274 ;;		_pressedKey
  5275 ;; This function uses a non-reentrant model
  5276 ;;
  5277                           
  5278                           	psect	text35
  5279  0014FC                     __ptext35:
  5280                           	opt stack 0
  5281  0014FC                     i2_getKeyCode:
  5282                           	opt stack 20
  5283                           
  5284                           ;SysRiego.c: 918: if(rowSelected == 1){
  5285                           
  5286                           ;incstack = 0
  5287  0014FC  0449               	decf	_rowSelected,w,c
  5288  0014FE  B4D8               	btfsc	status,2,c
  5289  001500  D009               	goto	i2l2850
  5290  001502  D016               	goto	i2l2852
  5291  001504                     i2l2832:
  5292  001504  0E31               	movlw	49
  5293  001506  0012               	return	
  5294  001508                     i2l2836:
  5295  001508  0E32               	movlw	50
  5296  00150A  0012               	return	
  5297  00150C                     i2l2840:
  5298  00150C  0E33               	movlw	51
  5299  00150E  0012               	return	
  5300  001510                     i2l2844:
  5301  001510  0E41               	movlw	65
  5302  001512  0012               	return	
  5303  001514                     i2l2850:
  5304  001514  5044               	movf	_columnSelected,w,c
  5305                           
  5306                           ; Switch size 1, requested type "space"
  5307                           ; Number of cases is 4, Range of values is 1 to 4
  5308                           ; switch strategies available:
  5309                           ; Name         Instructions Cycles
  5310                           ; simple_byte           13     7 (average)
  5311                           ;	Chosen strategy is simple_byte
  5312  001516  0A01               	xorlw	1	; case 1
  5313  001518  B4D8               	btfsc	status,2,c
  5314  00151A  D7F4               	goto	i2l2832
  5315  00151C  0A03               	xorlw	3	; case 2
  5316  00151E  B4D8               	btfsc	status,2,c
  5317  001520  D7F3               	goto	i2l2836
  5318  001522  0A01               	xorlw	1	; case 3
  5319  001524  B4D8               	btfsc	status,2,c
  5320  001526  D7F2               	goto	i2l2840
  5321  001528  0A07               	xorlw	7	; case 4
  5322  00152A  B4D8               	btfsc	status,2,c
  5323  00152C  D7F1               	goto	i2l2844
  5324                           
  5325                           ;SysRiego.c: 925: }
  5326  00152E  D050               	goto	i2l2924
  5327  001530                     i2l2852:
  5328                           
  5329                           ;SysRiego.c: 926: else if(rowSelected == 2){
  5330  001530  0E02               	movlw	2
  5331  001532  1849               	xorwf	_rowSelected,w,c
  5332  001534  B4D8               	btfsc	status,2,c
  5333  001536  D009               	goto	i2l2874
  5334  001538  D016               	goto	i2l2876
  5335  00153A                     i2l2856:
  5336  00153A  0E34               	movlw	52
  5337  00153C  0012               	return	
  5338  00153E                     i2l2860:
  5339  00153E  0E35               	movlw	53
  5340  001540  0012               	return	
  5341  001542                     i2l2864:
  5342  001542  0E36               	movlw	54
  5343  001544  0012               	return	
  5344  001546                     i2l2868:
  5345  001546  0E42               	movlw	66
  5346  001548  0012               	return	
  5347  00154A                     i2l2874:
  5348  00154A  5044               	movf	_columnSelected,w,c
  5349                           
  5350                           ; Switch size 1, requested type "space"
  5351                           ; Number of cases is 4, Range of values is 1 to 4
  5352                           ; switch strategies available:
  5353                           ; Name         Instructions Cycles
  5354                           ; simple_byte           13     7 (average)
  5355                           ;	Chosen strategy is simple_byte
  5356  00154C  0A01               	xorlw	1	; case 1
  5357  00154E  B4D8               	btfsc	status,2,c
  5358  001550  D7F4               	goto	i2l2856
  5359  001552  0A03               	xorlw	3	; case 2
  5360  001554  B4D8               	btfsc	status,2,c
  5361  001556  D7F3               	goto	i2l2860
  5362  001558  0A01               	xorlw	1	; case 3
  5363  00155A  B4D8               	btfsc	status,2,c
  5364  00155C  D7F2               	goto	i2l2864
  5365  00155E  0A07               	xorlw	7	; case 4
  5366  001560  B4D8               	btfsc	status,2,c
  5367  001562  D7F1               	goto	i2l2868
  5368                           
  5369                           ;SysRiego.c: 933: }
  5370  001564  D035               	goto	i2l2924
  5371  001566                     i2l2876:
  5372                           
  5373                           ;SysRiego.c: 934: else if(rowSelected == 3){
  5374  001566  0E03               	movlw	3
  5375  001568  1849               	xorwf	_rowSelected,w,c
  5376  00156A  B4D8               	btfsc	status,2,c
  5377  00156C  D009               	goto	i2l2898
  5378  00156E  D016               	goto	i2l2900
  5379  001570                     i2l2880:
  5380  001570  0E37               	movlw	55
  5381  001572  0012               	return	
  5382  001574                     i2l2884:
  5383  001574  0E38               	movlw	56
  5384  001576  0012               	return	
  5385  001578                     i2l2888:
  5386  001578  0E39               	movlw	57
  5387  00157A  0012               	return	
  5388  00157C                     i2l2892:
  5389  00157C  0E43               	movlw	67
  5390  00157E  0012               	return	
  5391  001580                     i2l2898:
  5392  001580  5044               	movf	_columnSelected,w,c
  5393                           
  5394                           ; Switch size 1, requested type "space"
  5395                           ; Number of cases is 4, Range of values is 1 to 4
  5396                           ; switch strategies available:
  5397                           ; Name         Instructions Cycles
  5398                           ; simple_byte           13     7 (average)
  5399                           ;	Chosen strategy is simple_byte
  5400  001582  0A01               	xorlw	1	; case 1
  5401  001584  B4D8               	btfsc	status,2,c
  5402  001586  D7F4               	goto	i2l2880
  5403  001588  0A03               	xorlw	3	; case 2
  5404  00158A  B4D8               	btfsc	status,2,c
  5405  00158C  D7F3               	goto	i2l2884
  5406  00158E  0A01               	xorlw	1	; case 3
  5407  001590  B4D8               	btfsc	status,2,c
  5408  001592  D7F2               	goto	i2l2888
  5409  001594  0A07               	xorlw	7	; case 4
  5410  001596  B4D8               	btfsc	status,2,c
  5411  001598  D7F1               	goto	i2l2892
  5412                           
  5413                           ;SysRiego.c: 941: }
  5414  00159A  D01A               	goto	i2l2924
  5415  00159C                     i2l2900:
  5416                           
  5417                           ;SysRiego.c: 942: else if(rowSelected == 4){
  5418  00159C  0E04               	movlw	4
  5419  00159E  1849               	xorwf	_rowSelected,w,c
  5420  0015A0  B4D8               	btfsc	status,2,c
  5421  0015A2  D009               	goto	i2l2922
  5422  0015A4  D015               	goto	i2l2924
  5423  0015A6                     i2l2904:
  5424  0015A6  0E2A               	movlw	42
  5425  0015A8  0012               	return	
  5426  0015AA                     i2l2908:
  5427  0015AA  0E30               	movlw	48
  5428  0015AC  0012               	return	
  5429  0015AE                     i2l2912:
  5430  0015AE  0E23               	movlw	35
  5431  0015B0  0012               	return	
  5432  0015B2                     i2l2916:
  5433  0015B2  0E44               	movlw	68
  5434  0015B4  0012               	return	
  5435  0015B6                     i2l2922:
  5436  0015B6  5044               	movf	_columnSelected,w,c
  5437                           
  5438                           ; Switch size 1, requested type "space"
  5439                           ; Number of cases is 4, Range of values is 1 to 4
  5440                           ; switch strategies available:
  5441                           ; Name         Instructions Cycles
  5442                           ; simple_byte           13     7 (average)
  5443                           ;	Chosen strategy is simple_byte
  5444  0015B8  0A01               	xorlw	1	; case 1
  5445  0015BA  B4D8               	btfsc	status,2,c
  5446  0015BC  D7F4               	goto	i2l2904
  5447  0015BE  0A03               	xorlw	3	; case 2
  5448  0015C0  B4D8               	btfsc	status,2,c
  5449  0015C2  D7F3               	goto	i2l2908
  5450  0015C4  0A01               	xorlw	1	; case 3
  5451  0015C6  B4D8               	btfsc	status,2,c
  5452  0015C8  D7F2               	goto	i2l2912
  5453  0015CA  0A07               	xorlw	7	; case 4
  5454  0015CC  B4D8               	btfsc	status,2,c
  5455  0015CE  D7F1               	goto	i2l2916
  5456  0015D0                     i2l2924:
  5457                           
  5458                           ;SysRiego.c: 949: }
  5459                           ;SysRiego.c: 950: return -1;
  5460  0015D0  0EFF               	movlw	255
  5461  0015D2  0012               	return	
  5462  0015D4                     __end_ofi2_getKeyCode:
  5463                           	opt stack 0
  5464                           pclatu	equ	0xFFB
  5465                           pclath	equ	0xFFA
  5466                           tblptru	equ	0xFF8
  5467                           tblptrh	equ	0xFF7
  5468                           tblptrl	equ	0xFF6
  5469                           tablat	equ	0xFF5
  5470                           prodh	equ	0xFF4
  5471                           prodl	equ	0xFF3
  5472                           intcon	equ	0xFF2
  5473                           intcon2	equ	0xFF1
  5474                           indf0	equ	0xFEF
  5475                           postinc0	equ	0xFEE
  5476                           fsr0h	equ	0xFEA
  5477                           fsr0l	equ	0xFE9
  5478                           wreg	equ	0xFE8
  5479                           postdec1	equ	0xFE5
  5480                           fsr1h	equ	0xFE2
  5481                           fsr1l	equ	0xFE1
  5482                           bsr	equ	0xFE0
  5483                           indf2	equ	0xFDF
  5484                           postinc2	equ	0xFDE
  5485                           postdec2	equ	0xFDD
  5486                           fsr2h	equ	0xFDA
  5487                           fsr2l	equ	0xFD9
  5488                           status	equ	0xFD8
  5489                           
  5490 ;; *************** function i2_determinePressedRow *****************
  5491 ;; Defined at:
  5492 ;;		line 828 in file "SysRiego.c"
  5493 ;; Parameters:    Size  Location     Type
  5494 ;;		None
  5495 ;; Auto vars:     Size  Location     Type
  5496 ;;  determinePre    1    0[COMRAM] unsigned char 
  5497 ;; Return value:  Size  Location     Type
  5498 ;;                  1    wreg      void 
  5499 ;; Registers used:
  5500 ;;		wreg, status,2, status,0, cstack
  5501 ;; Tracked objects:
  5502 ;;		On entry : 0/0
  5503 ;;		On exit  : 0/0
  5504 ;;		Unchanged: 0/0
  5505 ;; Data sizes:     COMRAM   BANK0   BANK1   BANK2   BANK3   BANK4   BANK5   BANK6   BANK7   BANK8   BANK9  BANK10  BANK1
      +1  BANK12
  5506 ;;      Params:         0       0       0       0       0       0       0       0       0       0       0       0       
      +0       0
  5507 ;;      Locals:         1       0       0       0       0       0       0       0       0       0       0       0       
      +0       0
  5508 ;;      Temps:          0       0       0       0       0       0       0       0       0       0       0       0       
      +0       0
  5509 ;;      Totals:         1       0       0       0       0       0       0       0       0       0       0       0       
      +0       0
  5510 ;;Total ram usage:        1 bytes
  5511 ;; Hardware stack levels used:    1
  5512 ;; Hardware stack levels required when called:    1
  5513 ;; This function calls:
  5514 ;;		i2_turnOnAllRows
  5515 ;; This function is called by:
  5516 ;;		_pressedKey
  5517 ;; This function uses a non-reentrant model
  5518 ;;
  5519                           
  5520                           	psect	text36
  5521  0010FC                     __ptext36:
  5522                           	opt stack 0
  5523  0010FC                     i2_determinePressedRow:
  5524                           	opt stack 19
  5525                           
  5526                           ;SysRiego.c: 829: char i;
  5527                           ;SysRiego.c: 830: for(i=0; i<4; i++){
  5528                           
  5529                           ;incstack = 0
  5530  0010FC  0E00               	movlw	0
  5531  0010FE  6E28               	movwf	i2determinePressedRow@i,c
  5532  001100                     i2l2686:
  5533  001100  0E03               	movlw	3
  5534  001102  6428               	cpfsgt	i2determinePressedRow@i,c
  5535  001104  D001               	goto	i2l2690
  5536  001106  0012               	return	
  5537  001108                     i2l2690:
  5538                           
  5539                           ;SysRiego.c: 831: turnOnAllRows();
  5540  001108  EC6D  F00E         	call	i2_turnOnAllRows	;wreg free
  5541                           
  5542                           ;SysRiego.c: 832: switch(i){
  5543  00110C  D07D               	goto	i2l2822
  5544  00110E                     i2l379:
  5545                           
  5546                           ;SysRiego.c: 835: PORTBbits.RB0 = 0;
  5547  00110E  9081               	bcf	3969,0,c	;volatile
  5548                           
  5549                           ;SysRiego.c: 837: if( (columnSelected == 1) && (PORTBbits.RB4 == 0)){
  5550  001110  0444               	decf	_columnSelected,w,c
  5551  001112  B4D8               	btfsc	status,2,c
  5552  001114  B881               	btfsc	3969,4,c	;volatile
  5553  001116  D003               	goto	i2l2700
  5554                           
  5555                           ;SysRiego.c: 838: rowSelected = 1;
  5556  001118  0E01               	movlw	1
  5557  00111A  6E49               	movwf	_rowSelected,c
  5558                           
  5559                           ;SysRiego.c: 839: return;
  5560  00111C  0012               	return	
  5561  00111E                     i2l2700:
  5562                           
  5563                           ;SysRiego.c: 840: }
  5564                           ;SysRiego.c: 841: if( (columnSelected == 2) && (PORTBbits.RB5 == 0)){
  5565  00111E  0E02               	movlw	2
  5566  001120  1844               	xorwf	_columnSelected,w,c
  5567  001122  B4D8               	btfsc	status,2,c
  5568  001124  BA81               	btfsc	3969,5,c	;volatile
  5569  001126  D003               	goto	i2l2708
  5570                           
  5571                           ;SysRiego.c: 842: rowSelected = 1;
  5572  001128  0E01               	movlw	1
  5573  00112A  6E49               	movwf	_rowSelected,c
  5574                           
  5575                           ;SysRiego.c: 843: return;
  5576  00112C  0012               	return	
  5577  00112E                     i2l2708:
  5578                           
  5579                           ;SysRiego.c: 844: }
  5580                           ;SysRiego.c: 845: if( (columnSelected == 3) && (PORTBbits.RB6 == 0)){
  5581  00112E  0E03               	movlw	3
  5582  001130  1844               	xorwf	_columnSelected,w,c
  5583  001132  B4D8               	btfsc	status,2,c
  5584  001134  BC81               	btfsc	3969,6,c	;volatile
  5585  001136  D003               	goto	i2l2716
  5586                           
  5587                           ;SysRiego.c: 846: rowSelected = 1;
  5588  001138  0E01               	movlw	1
  5589  00113A  6E49               	movwf	_rowSelected,c
  5590                           
  5591                           ;SysRiego.c: 847: return;
  5592  00113C  0012               	return	
  5593  00113E                     i2l2716:
  5594                           
  5595                           ;SysRiego.c: 848: }
  5596                           ;SysRiego.c: 849: if( (columnSelected == 4) && (PORTBbits.RB7 == 0)){
  5597  00113E  0E04               	movlw	4
  5598  001140  1844               	xorwf	_columnSelected,w,c
  5599  001142  B4D8               	btfsc	status,2,c
  5600  001144  BE81               	btfsc	3969,7,c	;volatile
  5601  001146  D06D               	goto	i2l2824
  5602                           
  5603                           ;SysRiego.c: 850: rowSelected = 1;
  5604  001148  0E01               	movlw	1
  5605  00114A                     L10:
  5606  00114A  6E49               	movwf	_rowSelected,c
  5607                           
  5608                           ;SysRiego.c: 851: return;
  5609  00114C  0012               	return	
  5610  00114E                     i2l386:
  5611                           
  5612                           ;SysRiego.c: 855: PORTBbits.RB1 = 0;
  5613  00114E  9281               	bcf	3969,1,c	;volatile
  5614                           
  5615                           ;SysRiego.c: 856: if( (columnSelected == 1) && (PORTBbits.RB4 == 0)){
  5616  001150  0444               	decf	_columnSelected,w,c
  5617  001152  B4D8               	btfsc	status,2,c
  5618  001154  B881               	btfsc	3969,4,c	;volatile
  5619  001156  D003               	goto	i2l2732
  5620                           
  5621                           ;SysRiego.c: 857: rowSelected = 2;
  5622  001158  0E02               	movlw	2
  5623  00115A  6E49               	movwf	_rowSelected,c
  5624                           
  5625                           ;SysRiego.c: 858: return;
  5626  00115C  0012               	return	
  5627  00115E                     i2l2732:
  5628                           
  5629                           ;SysRiego.c: 859: }
  5630                           ;SysRiego.c: 860: if( (columnSelected == 2) && (PORTBbits.RB5 == 0)){
  5631  00115E  0E02               	movlw	2
  5632  001160  1844               	xorwf	_columnSelected,w,c
  5633  001162  B4D8               	btfsc	status,2,c
  5634  001164  BA81               	btfsc	3969,5,c	;volatile
  5635  001166  D003               	goto	i2l2740
  5636                           
  5637                           ;SysRiego.c: 861: rowSelected = 2;
  5638  001168  0E02               	movlw	2
  5639  00116A  6E49               	movwf	_rowSelected,c
  5640                           
  5641                           ;SysRiego.c: 862: return;
  5642  00116C  0012               	return	
  5643  00116E                     i2l2740:
  5644                           
  5645                           ;SysRiego.c: 863: }
  5646                           ;SysRiego.c: 864: if( (columnSelected == 3) && (PORTBbits.RB6 == 0)){
  5647  00116E  0E03               	movlw	3
  5648  001170  1844               	xorwf	_columnSelected,w,c
  5649  001172  B4D8               	btfsc	status,2,c
  5650  001174  BC81               	btfsc	3969,6,c	;volatile
  5651  001176  D003               	goto	i2l2748
  5652                           
  5653                           ;SysRiego.c: 865: rowSelected = 2;
  5654  001178  0E02               	movlw	2
  5655  00117A  6E49               	movwf	_rowSelected,c
  5656                           
  5657                           ;SysRiego.c: 866: return;
  5658  00117C  0012               	return	
  5659  00117E                     i2l2748:
  5660                           
  5661                           ;SysRiego.c: 867: }
  5662                           ;SysRiego.c: 868: if( (columnSelected == 4) && (PORTBbits.RB7 == 0)){
  5663  00117E  0E04               	movlw	4
  5664  001180  1844               	xorwf	_columnSelected,w,c
  5665  001182  B4D8               	btfsc	status,2,c
  5666  001184  BE81               	btfsc	3969,7,c	;volatile
  5667  001186  D04D               	goto	i2l2824
  5668                           
  5669                           ;SysRiego.c: 869: rowSelected = 2;
  5670  001188  0E02               	movlw	2
  5671  00118A  D7DF               	goto	L10
  5672  00118C                     i2l391:
  5673                           
  5674                           ;SysRiego.c: 874: PORTBbits.RB2 = 0;
  5675  00118C  9481               	bcf	3969,2,c	;volatile
  5676                           
  5677                           ;SysRiego.c: 875: if( (columnSelected == 1) && (PORTBbits.RB4 == 0)){
  5678  00118E  0444               	decf	_columnSelected,w,c
  5679  001190  B4D8               	btfsc	status,2,c
  5680  001192  B881               	btfsc	3969,4,c	;volatile
  5681  001194  D003               	goto	i2l2764
  5682                           
  5683                           ;SysRiego.c: 876: rowSelected = 3;
  5684  001196  0E03               	movlw	3
  5685  001198  6E49               	movwf	_rowSelected,c
  5686                           
  5687                           ;SysRiego.c: 877: return;
  5688  00119A  0012               	return	
  5689  00119C                     i2l2764:
  5690                           
  5691                           ;SysRiego.c: 878: }
  5692                           ;SysRiego.c: 879: if( (columnSelected == 2) && (PORTBbits.RB5 == 0)){
  5693  00119C  0E02               	movlw	2
  5694  00119E  1844               	xorwf	_columnSelected,w,c
  5695  0011A0  B4D8               	btfsc	status,2,c
  5696  0011A2  BA81               	btfsc	3969,5,c	;volatile
  5697  0011A4  D003               	goto	i2l2772
  5698                           
  5699                           ;SysRiego.c: 880: rowSelected = 3;
  5700  0011A6  0E03               	movlw	3
  5701  0011A8  6E49               	movwf	_rowSelected,c
  5702                           
  5703                           ;SysRiego.c: 881: return;
  5704  0011AA  0012               	return	
  5705  0011AC                     i2l2772:
  5706                           
  5707                           ;SysRiego.c: 882: }
  5708                           ;SysRiego.c: 883: if( (columnSelected == 3) && (PORTBbits.RB6 == 0)){
  5709  0011AC  0E03               	movlw	3
  5710  0011AE  1844               	xorwf	_columnSelected,w,c
  5711  0011B0  B4D8               	btfsc	status,2,c
  5712  0011B2  BC81               	btfsc	3969,6,c	;volatile
  5713  0011B4  D003               	goto	i2l2780
  5714                           
  5715                           ;SysRiego.c: 884: rowSelected = 3;
  5716  0011B6  0E03               	movlw	3
  5717  0011B8  6E49               	movwf	_rowSelected,c
  5718                           
  5719                           ;SysRiego.c: 885: return;
  5720  0011BA  0012               	return	
  5721  0011BC                     i2l2780:
  5722                           
  5723                           ;SysRiego.c: 886: }
  5724                           ;SysRiego.c: 887: if( (columnSelected == 4) && (PORTBbits.RB7 == 0)){
  5725  0011BC  0E04               	movlw	4
  5726  0011BE  1844               	xorwf	_columnSelected,w,c
  5727  0011C0  B4D8               	btfsc	status,2,c
  5728  0011C2  BE81               	btfsc	3969,7,c	;volatile
  5729  0011C4  D02E               	goto	i2l2824
  5730                           
  5731                           ;SysRiego.c: 888: rowSelected = 3;
  5732  0011C6  0E03               	movlw	3
  5733  0011C8  D7C0               	goto	L10
  5734  0011CA                     i2l396:
  5735                           
  5736                           ;SysRiego.c: 894: PORTBbits.RB3 = 0;
  5737  0011CA  9681               	bcf	3969,3,c	;volatile
  5738                           
  5739                           ;SysRiego.c: 895: if( (columnSelected == 1) && (PORTBbits.RB4 == 0)){
  5740  0011CC  0444               	decf	_columnSelected,w,c
  5741  0011CE  B4D8               	btfsc	status,2,c
  5742  0011D0  B881               	btfsc	3969,4,c	;volatile
  5743  0011D2  D003               	goto	i2l2796
  5744                           
  5745                           ;SysRiego.c: 896: rowSelected = 4;
  5746  0011D4  0E04               	movlw	4
  5747  0011D6  6E49               	movwf	_rowSelected,c
  5748                           
  5749                           ;SysRiego.c: 897: return;
  5750  0011D8  0012               	return	
  5751  0011DA                     i2l2796:
  5752                           
  5753                           ;SysRiego.c: 898: }
  5754                           ;SysRiego.c: 899: if( (columnSelected == 2) && (PORTBbits.RB5 == 0)){
  5755  0011DA  0E02               	movlw	2
  5756  0011DC  1844               	xorwf	_columnSelected,w,c
  5757  0011DE  B4D8               	btfsc	status,2,c
  5758  0011E0  BA81               	btfsc	3969,5,c	;volatile
  5759  0011E2  D003               	goto	i2l2804
  5760                           
  5761                           ;SysRiego.c: 900: rowSelected = 4;
  5762  0011E4  0E04               	movlw	4
  5763  0011E6  6E49               	movwf	_rowSelected,c
  5764                           
  5765                           ;SysRiego.c: 901: return;
  5766  0011E8  0012               	return	
  5767  0011EA                     i2l2804:
  5768                           
  5769                           ;SysRiego.c: 902: }
  5770                           ;SysRiego.c: 903: if( (columnSelected == 3) && (PORTBbits.RB6 == 0)){
  5771  0011EA  0E03               	movlw	3
  5772  0011EC  1844               	xorwf	_columnSelected,w,c
  5773  0011EE  B4D8               	btfsc	status,2,c
  5774  0011F0  BC81               	btfsc	3969,6,c	;volatile
  5775  0011F2  D003               	goto	i2l2812
  5776                           
  5777                           ;SysRiego.c: 904: rowSelected = 4;
  5778  0011F4  0E04               	movlw	4
  5779  0011F6  6E49               	movwf	_rowSelected,c
  5780                           
  5781                           ;SysRiego.c: 905: return;
  5782  0011F8  0012               	return	
  5783  0011FA                     i2l2812:
  5784                           
  5785                           ;SysRiego.c: 906: }
  5786                           ;SysRiego.c: 907: if( (columnSelected == 4) && (PORTBbits.RB7 == 0)){
  5787  0011FA  0E04               	movlw	4
  5788  0011FC  1844               	xorwf	_columnSelected,w,c
  5789  0011FE  B4D8               	btfsc	status,2,c
  5790  001200  BE81               	btfsc	3969,7,c	;volatile
  5791  001202  D00F               	goto	i2l2824
  5792                           
  5793                           ;SysRiego.c: 908: rowSelected = 4;
  5794  001204  0E04               	movlw	4
  5795  001206  D7A1               	goto	L10
  5796  001208                     i2l2822:
  5797  001208  5028               	movf	i2determinePressedRow@i,w,c
  5798                           
  5799                           ; Switch size 1, requested type "space"
  5800                           ; Number of cases is 4, Range of values is 0 to 3
  5801                           ; switch strategies available:
  5802                           ; Name         Instructions Cycles
  5803                           ; simple_byte           13     7 (average)
  5804                           ;	Chosen strategy is simple_byte
  5805  00120A  0A00               	xorlw	0	; case 0
  5806  00120C  B4D8               	btfsc	status,2,c
  5807  00120E  D77F               	goto	i2l379
  5808  001210  0A01               	xorlw	1	; case 1
  5809  001212  B4D8               	btfsc	status,2,c
  5810  001214  D79C               	goto	i2l386
  5811  001216  0A03               	xorlw	3	; case 2
  5812  001218  B4D8               	btfsc	status,2,c
  5813  00121A  D7B8               	goto	i2l391
  5814  00121C  0A01               	xorlw	1	; case 3
  5815  00121E  B4D8               	btfsc	status,2,c
  5816  001220  D7D4               	goto	i2l396
  5817  001222                     i2l2824:
  5818  001222  2A28               	incf	i2determinePressedRow@i,f,c
  5819  001224  D76D               	goto	i2l2686
  5820  001226                     __end_ofi2_determinePressedRow:
  5821                           	opt stack 0
  5822                           pclatu	equ	0xFFB
  5823                           pclath	equ	0xFFA
  5824                           tblptru	equ	0xFF8
  5825                           tblptrh	equ	0xFF7
  5826                           tblptrl	equ	0xFF6
  5827                           tablat	equ	0xFF5
  5828                           prodh	equ	0xFF4
  5829                           prodl	equ	0xFF3
  5830                           intcon	equ	0xFF2
  5831                           intcon2	equ	0xFF1
  5832                           indf0	equ	0xFEF
  5833                           postinc0	equ	0xFEE
  5834                           fsr0h	equ	0xFEA
  5835                           fsr0l	equ	0xFE9
  5836                           wreg	equ	0xFE8
  5837                           postdec1	equ	0xFE5
  5838                           fsr1h	equ	0xFE2
  5839                           fsr1l	equ	0xFE1
  5840                           bsr	equ	0xFE0
  5841                           indf2	equ	0xFDF
  5842                           postinc2	equ	0xFDE
  5843                           postdec2	equ	0xFDD
  5844                           fsr2h	equ	0xFDA
  5845                           fsr2l	equ	0xFD9
  5846                           status	equ	0xFD8
  5847                           
  5848 ;; *************** function i2_turnOnAllRows *****************
  5849 ;; Defined at:
  5850 ;;		line 1132 in file "SysRiego.c"
  5851 ;; Parameters:    Size  Location     Type
  5852 ;;		None
  5853 ;; Auto vars:     Size  Location     Type
  5854 ;;		None
  5855 ;; Return value:  Size  Location     Type
  5856 ;;                  1    wreg      void 
  5857 ;; Registers used:
  5858 ;;		None
  5859 ;; Tracked objects:
  5860 ;;		On entry : 0/0
  5861 ;;		On exit  : 0/0
  5862 ;;		Unchanged: 0/0
  5863 ;; Data sizes:     COMRAM   BANK0   BANK1   BANK2   BANK3   BANK4   BANK5   BANK6   BANK7   BANK8   BANK9  BANK10  BANK1
      +1  BANK12
  5864 ;;      Params:         0       0       0       0       0       0       0       0       0       0       0       0       
      +0       0
  5865 ;;      Locals:         0       0       0       0       0       0       0       0       0       0       0       0       
      +0       0
  5866 ;;      Temps:          0       0       0       0       0       0       0       0       0       0       0       0       
      +0       0
  5867 ;;      Totals:         0       0       0       0       0       0       0       0       0       0       0       0       
      +0       0
  5868 ;;Total ram usage:        0 bytes
  5869 ;; Hardware stack levels used:    1
  5870 ;; This function calls:
  5871 ;;		Nothing
  5872 ;; This function is called by:
  5873 ;;		i2_determinePressedRow
  5874 ;; This function uses a non-reentrant model
  5875 ;;
  5876                           
  5877                           	psect	text37
  5878  001CDA                     __ptext37:
  5879                           	opt stack 0
  5880  001CDA                     i2_turnOnAllRows:
  5881                           	opt stack 19
  5882                           
  5883                           ;SysRiego.c: 1133: PORTBbits.RB0 = 1;
  5884                           
  5885                           ;incstack = 0
  5886  001CDA  8081               	bsf	3969,0,c	;volatile
  5887                           
  5888                           ;SysRiego.c: 1134: PORTBbits.RB1 = 1;
  5889  001CDC  8281               	bsf	3969,1,c	;volatile
  5890                           
  5891                           ;SysRiego.c: 1135: PORTBbits.RB2 = 1;
  5892  001CDE  8481               	bsf	3969,2,c	;volatile
  5893                           
  5894                           ;SysRiego.c: 1136: PORTBbits.RB3 = 1;
  5895  001CE0  8681               	bsf	3969,3,c	;volatile
  5896  001CE2  0012               	return		;funcret
  5897  001CE4                     __end_ofi2_turnOnAllRows:
  5898                           	opt stack 0
  5899                           pclatu	equ	0xFFB
  5900                           pclath	equ	0xFFA
  5901                           tblptru	equ	0xFF8
  5902                           tblptrh	equ	0xFF7
  5903                           tblptrl	equ	0xFF6
  5904                           tablat	equ	0xFF5
  5905                           prodh	equ	0xFF4
  5906                           prodl	equ	0xFF3
  5907                           intcon	equ	0xFF2
  5908                           intcon2	equ	0xFF1
  5909                           indf0	equ	0xFEF
  5910                           postinc0	equ	0xFEE
  5911                           fsr0h	equ	0xFEA
  5912                           fsr0l	equ	0xFE9
  5913                           wreg	equ	0xFE8
  5914                           postdec1	equ	0xFE5
  5915                           fsr1h	equ	0xFE2
  5916                           fsr1l	equ	0xFE1
  5917                           bsr	equ	0xFE0
  5918                           indf2	equ	0xFDF
  5919                           postinc2	equ	0xFDE
  5920                           postdec2	equ	0xFDD
  5921                           fsr2h	equ	0xFDA
  5922                           fsr2l	equ	0xFD9
  5923                           status	equ	0xFD8
  5924                           
  5925 ;; *************** function _pressedKeyAction *****************
  5926 ;; Defined at:
  5927 ;;		line 953 in file "SysRiego.c"
  5928 ;; Parameters:    Size  Location     Type
  5929 ;;  keyCode         1    wreg     unsigned char 
  5930 ;; Auto vars:     Size  Location     Type
  5931 ;;  keyCode         1   13[COMRAM] unsigned char 
  5932 ;; Return value:  Size  Location     Type
  5933 ;;                  1    wreg      void 
  5934 ;; Registers used:
  5935 ;;		wreg, fsr0l, fsr0h, status,2, status,0, tblptrl, tblptrh, tblptru, prodl, prodh, cstack
  5936 ;; Tracked objects:
  5937 ;;		On entry : 0/0
  5938 ;;		On exit  : 0/0
  5939 ;;		Unchanged: 0/0
  5940 ;; Data sizes:     COMRAM   BANK0   BANK1   BANK2   BANK3   BANK4   BANK5   BANK6   BANK7   BANK8   BANK9  BANK10  BANK1
      +1  BANK12
  5941 ;;      Params:         0       0       0       0       0       0       0       0       0       0       0       0       
      +0       0
  5942 ;;      Locals:         1       0       0       0       0       0       0       0       0       0       0       0       
      +0       0
  5943 ;;      Temps:          0       0       0       0       0       0       0       0       0       0       0       0       
      +0       0
  5944 ;;      Totals:         1       0       0       0       0       0       0       0       0       0       0       0       
      +0       0
  5945 ;;Total ram usage:        1 bytes
  5946 ;; Hardware stack levels used:    1
  5947 ;; Hardware stack levels required when called:    3
  5948 ;; This function calls:
  5949 ;;		i2_clearDisplay
  5950 ;;		i2_displayCharOnLCD
  5951 ;;		i2_displayLineOnLCD
  5952 ;; This function is called by:
  5953 ;;		_pressedKey
  5954 ;; This function uses a non-reentrant model
  5955 ;;
  5956                           
  5957                           	psect	text38
  5958  000D0C                     __ptext38:
  5959                           	opt stack 0
  5960  000D0C                     _pressedKeyAction:
  5961                           	opt stack 17
  5962                           
  5963                           ;incstack = 0
  5964                           ;pressedKeyAction@keyCode stored from wreg
  5965  000D0C  6E35               	movwf	pressedKeyAction@keyCode,c
  5966                           
  5967                           ;SysRiego.c: 955: switch(keyCode){
  5968  000D0E  D082               	goto	i2l2682
  5969  000D10                     i2l2634:
  5970                           
  5971                           ;SysRiego.c: 966: clearDisplay();
  5972  000D10  EC45  F00E         	call	i2_clearDisplay	;wreg free
  5973                           
  5974                           ;SysRiego.c: 968: displayLineOnLCD(zoneTimes[0], 5);
  5975  000D14  C060  F02A         	movff	_zoneTimes,i2displayLineOnLCD@array
  5976  000D18  C061  F02B         	movff	_zoneTimes+1,i2displayLineOnLCD@array+1
  5977  000D1C  0E05               	movlw	5
  5978  000D1E  6E2C               	movwf	i2displayLineOnLCD@sizeOfArray,c
  5979  000D20  EC43  F00C         	call	i2_displayLineOnLCD	;wreg free
  5980                           
  5981                           ;SysRiego.c: 988: break;
  5982  000D24  0012               	return	
  5983  000D26                     i2l2638:
  5984                           
  5985                           ;SysRiego.c: 992: clearDisplay();
  5986  000D26  EC45  F00E         	call	i2_clearDisplay	;wreg free
  5987                           
  5988                           ;SysRiego.c: 994: displayLineOnLCD(zoneTimes[1], 5);
  5989  000D2A  C062  F02A         	movff	_zoneTimes+2,i2displayLineOnLCD@array
  5990  000D2E  C063  F02B         	movff	_zoneTimes+3,i2displayLineOnLCD@array+1
  5991  000D32  0E05               	movlw	5
  5992  000D34  6E2C               	movwf	i2displayLineOnLCD@sizeOfArray,c
  5993  000D36  EC43  F00C         	call	i2_displayLineOnLCD	;wreg free
  5994                           
  5995                           ;SysRiego.c: 1011: break;
  5996  000D3A  0012               	return	
  5997  000D3C                     i2l2642:
  5998                           
  5999                           ;SysRiego.c: 1015: clearDisplay();
  6000  000D3C  EC45  F00E         	call	i2_clearDisplay	;wreg free
  6001                           
  6002                           ;SysRiego.c: 1017: displayLineOnLCD(zoneTimes[2], 5);
  6003  000D40  C064  F02A         	movff	_zoneTimes+4,i2displayLineOnLCD@array
  6004  000D44  C065  F02B         	movff	_zoneTimes+5,i2displayLineOnLCD@array+1
  6005  000D48  0E05               	movlw	5
  6006  000D4A  6E2C               	movwf	i2displayLineOnLCD@sizeOfArray,c
  6007  000D4C  EC43  F00C         	call	i2_displayLineOnLCD	;wreg free
  6008                           
  6009                           ;SysRiego.c: 1033: break;
  6010  000D50  0012               	return	
  6011  000D52                     i2l443:
  6012  000D52  8482               	bsf	3970,2,c	;volatile
  6013                           
  6014                           ;SysRiego.c: 1037: clearDisplay();
  6015  000D54  EC45  F00E         	call	i2_clearDisplay	;wreg free
  6016                           
  6017                           ;SysRiego.c: 1039: displayLineOnLCD(zoneTimes[3], 5);
  6018  000D58  C066  F02A         	movff	_zoneTimes+6,i2displayLineOnLCD@array
  6019  000D5C  C067  F02B         	movff	_zoneTimes+7,i2displayLineOnLCD@array+1
  6020  000D60  0E05               	movlw	5
  6021  000D62  6E2C               	movwf	i2displayLineOnLCD@sizeOfArray,c
  6022  000D64  EC43  F00C         	call	i2_displayLineOnLCD	;wreg free
  6023                           
  6024                           ;SysRiego.c: 1041: break;
  6025  000D68  0012               	return	
  6026  000D6A                     i2l2650:
  6027                           
  6028                           ;SysRiego.c: 1045: clearDisplay();
  6029  000D6A  EC45  F00E         	call	i2_clearDisplay	;wreg free
  6030                           
  6031                           ;SysRiego.c: 1047: displayLineOnLCD(zoneTimes[4], 5);
  6032  000D6E  C068  F02A         	movff	_zoneTimes+8,i2displayLineOnLCD@array
  6033  000D72  C069  F02B         	movff	_zoneTimes+9,i2displayLineOnLCD@array+1
  6034  000D76  0E05               	movlw	5
  6035  000D78  6E2C               	movwf	i2displayLineOnLCD@sizeOfArray,c
  6036  000D7A  EC43  F00C         	call	i2_displayLineOnLCD	;wreg free
  6037                           
  6038                           ;SysRiego.c: 1049: break;
  6039  000D7E  0012               	return	
  6040  000D80                     i2l2654:
  6041                           
  6042                           ;SysRiego.c: 1053: clearDisplay();
  6043  000D80  EC45  F00E         	call	i2_clearDisplay	;wreg free
  6044                           
  6045                           ;SysRiego.c: 1055: displayLineOnLCD(zoneTimes[5], 5);
  6046  000D84  C06A  F02A         	movff	_zoneTimes+10,i2displayLineOnLCD@array
  6047  000D88  C06B  F02B         	movff	_zoneTimes+11,i2displayLineOnLCD@array+1
  6048  000D8C  0E05               	movlw	5
  6049  000D8E  6E2C               	movwf	i2displayLineOnLCD@sizeOfArray,c
  6050  000D90  EC43  F00C         	call	i2_displayLineOnLCD	;wreg free
  6051                           
  6052                           ;SysRiego.c: 1057: break;
  6053  000D94  0012               	return	
  6054  000D96                     i2l2658:
  6055                           
  6056                           ;SysRiego.c: 1062: clearDisplay();
  6057  000D96  EC45  F00E         	call	i2_clearDisplay	;wreg free
  6058                           
  6059                           ;SysRiego.c: 1064: displayLineOnLCD(zoneTimes[6], 5);
  6060  000D9A  C06C  F02A         	movff	_zoneTimes+12,i2displayLineOnLCD@array
  6061  000D9E  C06D  F02B         	movff	_zoneTimes+13,i2displayLineOnLCD@array+1
  6062  000DA2  0E05               	movlw	5
  6063  000DA4  6E2C               	movwf	i2displayLineOnLCD@sizeOfArray,c
  6064  000DA6  EC43  F00C         	call	i2_displayLineOnLCD	;wreg free
  6065                           
  6066                           ;SysRiego.c: 1066: break;
  6067  000DAA  0012               	return	
  6068  000DAC                     i2l2662:
  6069                           
  6070                           ;SysRiego.c: 1070: clearDisplay();
  6071  000DAC  EC45  F00E         	call	i2_clearDisplay	;wreg free
  6072                           
  6073                           ;SysRiego.c: 1072: displayLineOnLCD(zoneTimes[7], 5);
  6074  000DB0  C06E  F02A         	movff	_zoneTimes+14,i2displayLineOnLCD@array
  6075  000DB4  C06F  F02B         	movff	_zoneTimes+15,i2displayLineOnLCD@array+1
  6076  000DB8  0E05               	movlw	5
  6077  000DBA  6E2C               	movwf	i2displayLineOnLCD@sizeOfArray,c
  6078  000DBC  EC43  F00C         	call	i2_displayLineOnLCD	;wreg free
  6079                           
  6080                           ;SysRiego.c: 1076: break;
  6081  000DC0  0012               	return	
  6082  000DC2                     i2l2666:
  6083                           
  6084                           ;SysRiego.c: 1080: clearDisplay();
  6085  000DC2  EC45  F00E         	call	i2_clearDisplay	;wreg free
  6086                           
  6087                           ;SysRiego.c: 1082: displayLineOnLCD(zoneTimes[8], 5);
  6088  000DC6  C070  F02A         	movff	_zoneTimes+16,i2displayLineOnLCD@array
  6089  000DCA  C071  F02B         	movff	_zoneTimes+17,i2displayLineOnLCD@array+1
  6090  000DCE  0E05               	movlw	5
  6091  000DD0  6E2C               	movwf	i2displayLineOnLCD@sizeOfArray,c
  6092  000DD2  EC43  F00C         	call	i2_displayLineOnLCD	;wreg free
  6093                           
  6094                           ;SysRiego.c: 1086: break;
  6095  000DD6  0012               	return	
  6096  000DD8                     i2l2670:
  6097                           
  6098                           ;SysRiego.c: 1091: modeSelected = 0;
  6099  000DD8  0E00               	movlw	0
  6100  000DDA  0100               	movlb	0	; () banked
  6101  000DDC  6FFB               	movwf	_modeSelected& (0+255),b
  6102                           
  6103                           ;SysRiego.c: 1094: break;
  6104  000DDE  0012               	return	
  6105  000DE0                     i2l2672:
  6106                           
  6107                           ;SysRiego.c: 1098: modeSelected = 1;
  6108  000DE0  0E01               	movlw	1
  6109  000DE2  0100               	movlb	0	; () banked
  6110  000DE4  6FFB               	movwf	_modeSelected& (0+255),b
  6111                           
  6112                           ;SysRiego.c: 1100: break;
  6113  000DE6  0012               	return	
  6114  000DE8                     i2l2674:
  6115                           
  6116                           ;SysRiego.c: 1104: modeSelected = 2;
  6117  000DE8  0E02               	movlw	2
  6118  000DEA  0100               	movlb	0	; () banked
  6119  000DEC  6FFB               	movwf	_modeSelected& (0+255),b
  6120                           
  6121                           ;SysRiego.c: 1106: break;
  6122  000DEE  0012               	return	
  6123  000DF0                     i2l452:
  6124  000DF0  8682               	bsf	3970,3,c	;volatile
  6125  000DF2  8082               	bsf	3970,0,c	;volatile
  6126  000DF4  8482               	bsf	3970,2,c	;volatile
  6127  000DF6  0012               	return	
  6128  000DF8                     i2l2676:
  6129                           
  6130                           ;SysRiego.c: 1110: displayCharOnLCD(keyCode);
  6131  000DF8  5035               	movf	pressedKeyAction@keyCode,w,c
  6132  000DFA  EC29  F00E         	call	i2_displayCharOnLCD
  6133                           
  6134                           ;SysRiego.c: 1111: break;
  6135  000DFE  0012               	return	
  6136  000E00                     i2l2678:
  6137                           
  6138                           ;SysRiego.c: 1114: if (modeSelected == 1) {
  6139  000E00  0100               	movlb	0	; () banked
  6140  000E02  05FB               	decf	_modeSelected& (0+255),w,b
  6141  000E04  A4D8               	btfss	status,2,c
  6142  000E06  0012               	return	
  6143                           
  6144                           ; BSR set to: 0
  6145                           ;SysRiego.c: 1115: hourConfiguration = 1;
  6146  000E08  0E01               	movlw	1
  6147  000E0A  6E46               	movwf	_hourConfiguration,c
  6148                           
  6149                           ;SysRiego.c: 1116: statusConfiguration = 1;
  6150  000E0C  0E01               	movlw	1
  6151  000E0E  0100               	movlb	0	; () banked
  6152  000E10  6FFC               	movwf	_statusConfiguration& (0+255),b
  6153                           
  6154                           ; BSR set to: 0
  6155                           ;SysRiego.c: 1129: }
  6156                           
  6157                           ;SysRiego.c: 1120: default: ;
  6158                           
  6159                           ; BSR set to: 0
  6160                           ;SysRiego.c: 1117: }
  6161                           ;SysRiego.c: 1119: break;
  6162  000E12  0012               	return	
  6163  000E14                     i2l2682:
  6164  000E14  5035               	movf	pressedKeyAction@keyCode,w,c
  6165                           
  6166                           ; Switch size 1, requested type "space"
  6167                           ; Number of cases is 16, Range of values is 35 to 68
  6168                           ; switch strategies available:
  6169                           ; Name         Instructions Cycles
  6170                           ; simple_byte           49    25 (average)
  6171                           ;	Chosen strategy is simple_byte
  6172  000E16  0A23               	xorlw	35	; case 35
  6173  000E18  B4D8               	btfsc	status,2,c
  6174  000E1A  D7F2               	goto	i2l2678
  6175  000E1C  0A09               	xorlw	9	; case 42
  6176  000E1E  B4D8               	btfsc	status,2,c
  6177  000E20  D7EB               	goto	i2l2676
  6178  000E22  0A1A               	xorlw	26	; case 48
  6179  000E24  B4D8               	btfsc	status,2,c
  6180  000E26  0012               	return	
  6181  000E28  0A01               	xorlw	1	; case 49
  6182  000E2A  B4D8               	btfsc	status,2,c
  6183  000E2C  D771               	goto	i2l2634
  6184  000E2E  0A03               	xorlw	3	; case 50
  6185  000E30  B4D8               	btfsc	status,2,c
  6186  000E32  D779               	goto	i2l2638
  6187  000E34  0A01               	xorlw	1	; case 51
  6188  000E36  B4D8               	btfsc	status,2,c
  6189  000E38  D781               	goto	i2l2642
  6190  000E3A  0A07               	xorlw	7	; case 52
  6191  000E3C  B4D8               	btfsc	status,2,c
  6192  000E3E  D789               	goto	i2l443
  6193  000E40  0A01               	xorlw	1	; case 53
  6194  000E42  B4D8               	btfsc	status,2,c
  6195  000E44  D792               	goto	i2l2650
  6196  000E46  0A03               	xorlw	3	; case 54
  6197  000E48  B4D8               	btfsc	status,2,c
  6198  000E4A  D79A               	goto	i2l2654
  6199  000E4C  0A01               	xorlw	1	; case 55
  6200  000E4E  B4D8               	btfsc	status,2,c
  6201  000E50  D7A2               	goto	i2l2658
  6202  000E52  0A0F               	xorlw	15	; case 56
  6203  000E54  B4D8               	btfsc	status,2,c
  6204  000E56  D7AA               	goto	i2l2662
  6205  000E58  0A01               	xorlw	1	; case 57
  6206  000E5A  B4D8               	btfsc	status,2,c
  6207  000E5C  D7B2               	goto	i2l2666
  6208  000E5E  0A78               	xorlw	120	; case 65
  6209  000E60  B4D8               	btfsc	status,2,c
  6210  000E62  D7BA               	goto	i2l2670
  6211  000E64  0A03               	xorlw	3	; case 66
  6212  000E66  B4D8               	btfsc	status,2,c
  6213  000E68  D7BB               	goto	i2l2672
  6214  000E6A  0A01               	xorlw	1	; case 67
  6215  000E6C  B4D8               	btfsc	status,2,c
  6216  000E6E  D7BC               	goto	i2l2674
  6217  000E70  0A07               	xorlw	7	; case 68
  6218  000E72  A4D8               	btfss	status,2,c
  6219  000E74  0012               	return	
  6220  000E76  D7BC               	goto	i2l452
  6221  000E78                     __end_of_pressedKeyAction:
  6222                           	opt stack 0
  6223                           pclatu	equ	0xFFB
  6224                           pclath	equ	0xFFA
  6225                           tblptru	equ	0xFF8
  6226                           tblptrh	equ	0xFF7
  6227                           tblptrl	equ	0xFF6
  6228                           tablat	equ	0xFF5
  6229                           prodh	equ	0xFF4
  6230                           prodl	equ	0xFF3
  6231                           intcon	equ	0xFF2
  6232                           intcon2	equ	0xFF1
  6233                           indf0	equ	0xFEF
  6234                           postinc0	equ	0xFEE
  6235                           fsr0h	equ	0xFEA
  6236                           fsr0l	equ	0xFE9
  6237                           wreg	equ	0xFE8
  6238                           postdec1	equ	0xFE5
  6239                           fsr1h	equ	0xFE2
  6240                           fsr1l	equ	0xFE1
  6241                           bsr	equ	0xFE0
  6242                           indf2	equ	0xFDF
  6243                           postinc2	equ	0xFDE
  6244                           postdec2	equ	0xFDD
  6245                           fsr2h	equ	0xFDA
  6246                           fsr2l	equ	0xFD9
  6247                           status	equ	0xFD8
  6248                           
  6249 ;; *************** function i2_displayLineOnLCD *****************
  6250 ;; Defined at:
  6251 ;;		line 418 in file "SysRiego.c"
  6252 ;; Parameters:    Size  Location     Type
  6253 ;;  array           2    2[COMRAM] PTR unsigned char 
  6254 ;;		 -> dayName(4), manualMessage(12), STR_1(10), counterMIN(3), 
  6255 ;;		 -> counterHOUR(3), timerMessage(11), automaticMessage(15), manualInactiveMessage(9), 
  6256 ;;		 -> manualActiveMessage(7), configAutoMessage(11), time3Zn3(5), time2Zn3(5), 
  6257 ;;		 -> time1Zn3(5), time3Zn2(5), time2Zn2(5), time1Zn2(5), 
  6258 ;;		 -> time3Zn1(5), time2Zn1(5), time1Zn1(5), 
  6259 ;;  sizeOfArray     1    4[COMRAM] unsigned char 
  6260 ;; Auto vars:     Size  Location     Type
  6261 ;;  displayLineO    1   12[COMRAM] unsigned char 
  6262 ;; Return value:  Size  Location     Type
  6263 ;;                  1    wreg      void 
  6264 ;; Registers used:
  6265 ;;		wreg, fsr0l, fsr0h, status,2, status,0, tblptrl, tblptrh, tblptru, prodl, prodh, cstack
  6266 ;; Tracked objects:
  6267 ;;		On entry : 0/0
  6268 ;;		On exit  : 0/0
  6269 ;;		Unchanged: 0/0
  6270 ;; Data sizes:     COMRAM   BANK0   BANK1   BANK2   BANK3   BANK4   BANK5   BANK6   BANK7   BANK8   BANK9  BANK10  BANK1
      +1  BANK12
  6271 ;;      Params:         3       0       0       0       0       0       0       0       0       0       0       0       
      +0       0
  6272 ;;      Locals:         1       0       0       0       0       0       0       0       0       0       0       0       
      +0       0
  6273 ;;      Temps:          7       0       0       0       0       0       0       0       0       0       0       0       
      +0       0
  6274 ;;      Totals:        11       0       0       0       0       0       0       0       0       0       0       0       
      +0       0
  6275 ;;Total ram usage:       11 bytes
  6276 ;; Hardware stack levels used:    1
  6277 ;; Hardware stack levels required when called:    2
  6278 ;; This function calls:
  6279 ;;		i2_displayCharOnLCD
  6280 ;; This function is called by:
  6281 ;;		_pressedKeyAction
  6282 ;; This function uses a non-reentrant model
  6283 ;;
  6284                           
  6285                           	psect	text39
  6286  001886                     __ptext39:
  6287                           	opt stack 0
  6288  001886                     i2_displayLineOnLCD:
  6289                           	opt stack 17
  6290                           
  6291                           ;SysRiego.c: 419: unsigned char i;
  6292                           ;SysRiego.c: 420: for(i=0; i<sizeOfArray-1; i++){
  6293                           
  6294                           ;incstack = 0
  6295  001886  0E00               	movlw	0
  6296  001888  6E34               	movwf	i2displayLineOnLCD@i,c
  6297  00188A  D01D               	goto	i2l2566
  6298  00188C                     i2l2562:
  6299                           
  6300                           ;SysRiego.c: 421: displayCharOnLCD(array[i]);
  6301  00188C  5034               	movf	i2displayLineOnLCD@i,w,c
  6302  00188E  0D01               	mullw	1
  6303  001890  C02A  F02D         	movff	i2displayLineOnLCD@array,??i2_displayLineOnLCD
  6304  001894  C02B  F02E         	movff	i2displayLineOnLCD@array+1,??i2_displayLineOnLCD+1
  6305  001898  50F3               	movf	prodl,w,c
  6306  00189A  262D               	addwf	??i2_displayLineOnLCD,f,c
  6307  00189C  50F4               	movf	prodh,w,c
  6308  00189E  222E               	addwfc	??i2_displayLineOnLCD+1,f,c
  6309  0018A0  C02D  FFF6         	movff	??i2_displayLineOnLCD,tblptrl
  6310  0018A4  C02E  FFF7         	movff	??i2_displayLineOnLCD+1,tblptrh
  6311  0018A8  6AF8               	clrf	tblptru,c
  6312  0018AA  0E0C               	movlw	(high __ramtop+-1)
  6313  0018AC  64F7               	cpfsgt	tblptrh,c
  6314  0018AE  D003               	bra	i2u179_47
  6315  0018B0  0008               	tblrd		*
  6316  0018B2  50F5               	movf	tablat,w,c
  6317  0018B4  D005               	bra	i2u179_40
  6318  0018B6                     i2u179_47:
  6319  0018B6  CFF6 FFE9          	movff	tblptrl,fsr0l
  6320  0018BA  CFF7 FFEA          	movff	tblptrh,fsr0h
  6321  0018BE  50EF               	movf	indf0,w,c
  6322  0018C0                     i2u179_40:
  6323  0018C0  EC29  F00E         	call	i2_displayCharOnLCD
  6324  0018C4  2A34               	incf	i2displayLineOnLCD@i,f,c
  6325  0018C6                     i2l2566:
  6326  0018C6  0EFF               	movlw	255
  6327  0018C8  6E2D               	movwf	??i2_displayLineOnLCD& (0+255),c
  6328  0018CA  0EFF               	movlw	255
  6329  0018CC  6E2E               	movwf	(??i2_displayLineOnLCD+1)& (0+255),c
  6330  0018CE  502C               	movf	i2displayLineOnLCD@sizeOfArray,w,c
  6331  0018D0  6E2F               	movwf	(??i2_displayLineOnLCD+2)& (0+255),c
  6332  0018D2  6A30               	clrf	(??i2_displayLineOnLCD+3)& (0+255),c
  6333  0018D4  502D               	movf	??i2_displayLineOnLCD,w,c
  6334  0018D6  262F               	addwf	??i2_displayLineOnLCD+2,f,c
  6335  0018D8  502E               	movf	??i2_displayLineOnLCD+1,w,c
  6336  0018DA  2230               	addwfc	??i2_displayLineOnLCD+3,f,c
  6337  0018DC  5034               	movf	i2displayLineOnLCD@i,w,c
  6338  0018DE  6E31               	movwf	(??i2_displayLineOnLCD+4)& (0+255),c
  6339  0018E0  6A32               	clrf	(??i2_displayLineOnLCD+5)& (0+255),c
  6340  0018E2  502F               	movf	??i2_displayLineOnLCD+2,w,c
  6341  0018E4  5C31               	subwf	??i2_displayLineOnLCD+4,w,c
  6342  0018E6  5032               	movf	??i2_displayLineOnLCD+5,w,c
  6343  0018E8  0A80               	xorlw	128
  6344  0018EA  6E33               	movwf	(??i2_displayLineOnLCD+6)& (0+255),c
  6345  0018EC  5030               	movf	??i2_displayLineOnLCD+3,w,c
  6346  0018EE  0A80               	xorlw	128
  6347  0018F0  5833               	subwfb	(??i2_displayLineOnLCD+6)& (0+255),w,c
  6348  0018F2  B0D8               	btfsc	status,0,c
  6349  0018F4  0012               	return	
  6350  0018F6  D7CA               	goto	i2l2562
  6351  0018F8                     __end_ofi2_displayLineOnLCD:
  6352                           	opt stack 0
  6353                           pclatu	equ	0xFFB
  6354                           pclath	equ	0xFFA
  6355                           tblptru	equ	0xFF8
  6356                           tblptrh	equ	0xFF7
  6357                           tblptrl	equ	0xFF6
  6358                           tablat	equ	0xFF5
  6359                           prodh	equ	0xFF4
  6360                           prodl	equ	0xFF3
  6361                           intcon	equ	0xFF2
  6362                           intcon2	equ	0xFF1
  6363                           indf0	equ	0xFEF
  6364                           postinc0	equ	0xFEE
  6365                           fsr0h	equ	0xFEA
  6366                           fsr0l	equ	0xFE9
  6367                           wreg	equ	0xFE8
  6368                           postdec1	equ	0xFE5
  6369                           fsr1h	equ	0xFE2
  6370                           fsr1l	equ	0xFE1
  6371                           bsr	equ	0xFE0
  6372                           indf2	equ	0xFDF
  6373                           postinc2	equ	0xFDE
  6374                           postdec2	equ	0xFDD
  6375                           fsr2h	equ	0xFDA
  6376                           fsr2l	equ	0xFD9
  6377                           status	equ	0xFD8
  6378                           
  6379 ;; *************** function i2_displayCharOnLCD *****************
  6380 ;; Defined at:
  6381 ;;		line 409 in file "SysRiego.c"
  6382 ;; Parameters:    Size  Location     Type
  6383 ;;  character       1    wreg     unsigned char 
  6384 ;; Auto vars:     Size  Location     Type
  6385 ;;  character       1    1[COMRAM] unsigned char 
  6386 ;; Return value:  Size  Location     Type
  6387 ;;                  1    wreg      void 
  6388 ;; Registers used:
  6389 ;;		wreg, status,2, status,0, cstack
  6390 ;; Tracked objects:
  6391 ;;		On entry : 0/0
  6392 ;;		On exit  : 0/0
  6393 ;;		Unchanged: 0/0
  6394 ;; Data sizes:     COMRAM   BANK0   BANK1   BANK2   BANK3   BANK4   BANK5   BANK6   BANK7   BANK8   BANK9  BANK10  BANK1
      +1  BANK12
  6395 ;;      Params:         0       0       0       0       0       0       0       0       0       0       0       0       
      +0       0
  6396 ;;      Locals:         1       0       0       0       0       0       0       0       0       0       0       0       
      +0       0
  6397 ;;      Temps:          0       0       0       0       0       0       0       0       0       0       0       0       
      +0       0
  6398 ;;      Totals:         1       0       0       0       0       0       0       0       0       0       0       0       
      +0       0
  6399 ;;Total ram usage:        1 bytes
  6400 ;; Hardware stack levels used:    1
  6401 ;; Hardware stack levels required when called:    1
  6402 ;; This function calls:
  6403 ;;		i2_shortDelay
  6404 ;; This function is called by:
  6405 ;;		_pressedKeyAction
  6406 ;;		i2_displayLineOnLCD
  6407 ;; This function uses a non-reentrant model
  6408 ;;
  6409                           
  6410                           	psect	text40
  6411  001C52                     __ptext40:
  6412                           	opt stack 0
  6413  001C52                     i2_displayCharOnLCD:
  6414                           	opt stack 17
  6415                           
  6416                           ;incstack = 0
  6417                           ;i2displayCharOnLCD@character stored from wreg
  6418  001C52  6E29               	movwf	i2displayCharOnLCD@character,c
  6419                           
  6420                           ;SysRiego.c: 410: PORTD = character;
  6421  001C54  C029  FF83         	movff	i2displayCharOnLCD@character,3971	;volatile
  6422                           
  6423                           ;SysRiego.c: 411: PORTCbits.RC0 = 1;
  6424  001C58  8082               	bsf	3970,0,c	;volatile
  6425                           
  6426                           ;SysRiego.c: 412: PORTCbits.RC1 = 0;
  6427  001C5A  9282               	bcf	3970,1,c	;volatile
  6428                           
  6429                           ;SysRiego.c: 413: PORTCbits.RC2 = 1;
  6430  001C5C  8482               	bsf	3970,2,c	;volatile
  6431                           
  6432                           ;SysRiego.c: 414: shortDelay();
  6433  001C5E  EC4D  F00E         	call	i2_shortDelay	;wreg free
  6434                           
  6435                           ;SysRiego.c: 415: PORTCbits.RC2 = 0;
  6436  001C62  9482               	bcf	3970,2,c	;volatile
  6437  001C64  0012               	return		;funcret
  6438  001C66                     __end_ofi2_displayCharOnLCD:
  6439                           	opt stack 0
  6440                           pclatu	equ	0xFFB
  6441                           pclath	equ	0xFFA
  6442                           tblptru	equ	0xFF8
  6443                           tblptrh	equ	0xFF7
  6444                           tblptrl	equ	0xFF6
  6445                           tablat	equ	0xFF5
  6446                           prodh	equ	0xFF4
  6447                           prodl	equ	0xFF3
  6448                           intcon	equ	0xFF2
  6449                           intcon2	equ	0xFF1
  6450                           indf0	equ	0xFEF
  6451                           postinc0	equ	0xFEE
  6452                           fsr0h	equ	0xFEA
  6453                           fsr0l	equ	0xFE9
  6454                           wreg	equ	0xFE8
  6455                           postdec1	equ	0xFE5
  6456                           fsr1h	equ	0xFE2
  6457                           fsr1l	equ	0xFE1
  6458                           bsr	equ	0xFE0
  6459                           indf2	equ	0xFDF
  6460                           postinc2	equ	0xFDE
  6461                           postdec2	equ	0xFDD
  6462                           fsr2h	equ	0xFDA
  6463                           fsr2l	equ	0xFD9
  6464                           status	equ	0xFD8
  6465                           
  6466 ;; *************** function i2_clearDisplay *****************
  6467 ;; Defined at:
  6468 ;;		line 425 in file "SysRiego.c"
  6469 ;; Parameters:    Size  Location     Type
  6470 ;;		None
  6471 ;; Auto vars:     Size  Location     Type
  6472 ;;		None
  6473 ;; Return value:  Size  Location     Type
  6474 ;;                  1    wreg      void 
  6475 ;; Registers used:
  6476 ;;		wreg, status,2, status,0, cstack
  6477 ;; Tracked objects:
  6478 ;;		On entry : 0/0
  6479 ;;		On exit  : 0/0
  6480 ;;		Unchanged: 0/0
  6481 ;; Data sizes:     COMRAM   BANK0   BANK1   BANK2   BANK3   BANK4   BANK5   BANK6   BANK7   BANK8   BANK9  BANK10  BANK1
      +1  BANK12
  6482 ;;      Params:         0       0       0       0       0       0       0       0       0       0       0       0       
      +0       0
  6483 ;;      Locals:         0       0       0       0       0       0       0       0       0       0       0       0       
      +0       0
  6484 ;;      Temps:          0       0       0       0       0       0       0       0       0       0       0       0       
      +0       0
  6485 ;;      Totals:         0       0       0       0       0       0       0       0       0       0       0       0       
      +0       0
  6486 ;;Total ram usage:        0 bytes
  6487 ;; Hardware stack levels used:    1
  6488 ;; Hardware stack levels required when called:    2
  6489 ;; This function calls:
  6490 ;;		i2_command
  6491 ;;		i2_isReady
  6492 ;;		i2_shortDelay
  6493 ;; This function is called by:
  6494 ;;		_pressedKeyAction
  6495 ;; This function uses a non-reentrant model
  6496 ;;
  6497                           
  6498                           	psect	text41
  6499  001C8A                     __ptext41:
  6500                           	opt stack 0
  6501  001C8A                     i2_clearDisplay:
  6502                           	opt stack 17
  6503                           
  6504                           ;SysRiego.c: 426: command(0x01);
  6505                           
  6506                           ;incstack = 0
  6507  001C8A  0E01               	movlw	1
  6508  001C8C  EC33  F00E         	call	i2_command
  6509                           
  6510                           ;SysRiego.c: 427: shortDelay();
  6511  001C90  EC4D  F00E         	call	i2_shortDelay	;wreg free
  6512                           
  6513                           ;SysRiego.c: 428: isReady();
  6514  001C94  ECFB  F00D         	call	i2_isReady	;wreg free
  6515  001C98  0012               	return		;funcret
  6516  001C9A                     __end_ofi2_clearDisplay:
  6517                           	opt stack 0
  6518                           pclatu	equ	0xFFB
  6519                           pclath	equ	0xFFA
  6520                           tblptru	equ	0xFF8
  6521                           tblptrh	equ	0xFF7
  6522                           tblptrl	equ	0xFF6
  6523                           tablat	equ	0xFF5
  6524                           prodh	equ	0xFF4
  6525                           prodl	equ	0xFF3
  6526                           intcon	equ	0xFF2
  6527                           intcon2	equ	0xFF1
  6528                           indf0	equ	0xFEF
  6529                           postinc0	equ	0xFEE
  6530                           fsr0h	equ	0xFEA
  6531                           fsr0l	equ	0xFE9
  6532                           wreg	equ	0xFE8
  6533                           postdec1	equ	0xFE5
  6534                           fsr1h	equ	0xFE2
  6535                           fsr1l	equ	0xFE1
  6536                           bsr	equ	0xFE0
  6537                           indf2	equ	0xFDF
  6538                           postinc2	equ	0xFDE
  6539                           postdec2	equ	0xFDD
  6540                           fsr2h	equ	0xFDA
  6541                           fsr2l	equ	0xFD9
  6542                           status	equ	0xFD8
  6543                           
  6544 ;; *************** function i2_isReady *****************
  6545 ;; Defined at:
  6546 ;;		line 396 in file "SysRiego.c"
  6547 ;; Parameters:    Size  Location     Type
  6548 ;;		None
  6549 ;; Auto vars:     Size  Location     Type
  6550 ;;		None
  6551 ;; Return value:  Size  Location     Type
  6552 ;;                  1    wreg      void 
  6553 ;; Registers used:
  6554 ;;		wreg, status,2, status,0, cstack
  6555 ;; Tracked objects:
  6556 ;;		On entry : 0/0
  6557 ;;		On exit  : 0/0
  6558 ;;		Unchanged: 0/0
  6559 ;; Data sizes:     COMRAM   BANK0   BANK1   BANK2   BANK3   BANK4   BANK5   BANK6   BANK7   BANK8   BANK9  BANK10  BANK1
      +1  BANK12
  6560 ;;      Params:         0       0       0       0       0       0       0       0       0       0       0       0       
      +0       0
  6561 ;;      Locals:         0       0       0       0       0       0       0       0       0       0       0       0       
      +0       0
  6562 ;;      Temps:          0       0       0       0       0       0       0       0       0       0       0       0       
      +0       0
  6563 ;;      Totals:         0       0       0       0       0       0       0       0       0       0       0       0       
      +0       0
  6564 ;;Total ram usage:        0 bytes
  6565 ;; Hardware stack levels used:    1
  6566 ;; Hardware stack levels required when called:    1
  6567 ;; This function calls:
  6568 ;;		i2_portDAsInput
  6569 ;;		i2_portDAsOutput
  6570 ;;		i2_shortDelay
  6571 ;; This function is called by:
  6572 ;;		i2_clearDisplay
  6573 ;; This function uses a non-reentrant model
  6574 ;;
  6575                           
  6576                           	psect	text42
  6577  001BF6                     __ptext42:
  6578                           	opt stack 0
  6579  001BF6                     i2_isReady:
  6580                           	opt stack 17
  6581                           
  6582                           ;SysRiego.c: 397: portDAsInput();
  6583                           
  6584                           ;incstack = 0
  6585  001BF6  EC7A  F00E         	call	i2_portDAsInput	;wreg free
  6586                           
  6587                           ;SysRiego.c: 398: PORTCbits.RC0 = 0;
  6588  001BFA  9082               	bcf	3970,0,c	;volatile
  6589                           
  6590                           ;SysRiego.c: 399: PORTCbits.RC1 = 1;
  6591  001BFC  8282               	bsf	3970,1,c	;volatile
  6592                           
  6593                           ;SysRiego.c: 401: while(PORTDbits.RD7 == 1){
  6594  001BFE  D004               	goto	i2l2514
  6595  001C00                     i2l230:
  6596                           
  6597                           ;SysRiego.c: 402: PORTCbits.RC2 = 1;
  6598  001C00  8482               	bsf	3970,2,c	;volatile
  6599                           
  6600                           ;SysRiego.c: 403: shortDelay();
  6601  001C02  EC4D  F00E         	call	i2_shortDelay	;wreg free
  6602                           
  6603                           ;SysRiego.c: 404: PORTCbits.RC2 = 0;
  6604  001C06  9482               	bcf	3970,2,c	;volatile
  6605  001C08                     i2l2514:
  6606  001C08  BE83               	btfsc	3971,7,c	;volatile
  6607  001C0A  D7FA               	goto	i2l230
  6608                           
  6609                           ;SysRiego.c: 405: }
  6610                           ;SysRiego.c: 406: portDAsOutput();
  6611  001C0C  EC75  F00E         	call	i2_portDAsOutput	;wreg free
  6612  001C10  0012               	return		;funcret
  6613  001C12                     __end_ofi2_isReady:
  6614                           	opt stack 0
  6615                           pclatu	equ	0xFFB
  6616                           pclath	equ	0xFFA
  6617                           tblptru	equ	0xFF8
  6618                           tblptrh	equ	0xFF7
  6619                           tblptrl	equ	0xFF6
  6620                           tablat	equ	0xFF5
  6621                           prodh	equ	0xFF4
  6622                           prodl	equ	0xFF3
  6623                           intcon	equ	0xFF2
  6624                           intcon2	equ	0xFF1
  6625                           indf0	equ	0xFEF
  6626                           postinc0	equ	0xFEE
  6627                           fsr0h	equ	0xFEA
  6628                           fsr0l	equ	0xFE9
  6629                           wreg	equ	0xFE8
  6630                           postdec1	equ	0xFE5
  6631                           fsr1h	equ	0xFE2
  6632                           fsr1l	equ	0xFE1
  6633                           bsr	equ	0xFE0
  6634                           indf2	equ	0xFDF
  6635                           postinc2	equ	0xFDE
  6636                           postdec2	equ	0xFDD
  6637                           fsr2h	equ	0xFDA
  6638                           fsr2l	equ	0xFD9
  6639                           status	equ	0xFD8
  6640                           
  6641 ;; *************** function i2_portDAsOutput *****************
  6642 ;; Defined at:
  6643 ;;		line 351 in file "SysRiego.c"
  6644 ;; Parameters:    Size  Location     Type
  6645 ;;		None
  6646 ;; Auto vars:     Size  Location     Type
  6647 ;;		None
  6648 ;; Return value:  Size  Location     Type
  6649 ;;                  1    wreg      void 
  6650 ;; Registers used:
  6651 ;;		wreg, status,2
  6652 ;; Tracked objects:
  6653 ;;		On entry : 0/0
  6654 ;;		On exit  : 0/0
  6655 ;;		Unchanged: 0/0
  6656 ;; Data sizes:     COMRAM   BANK0   BANK1   BANK2   BANK3   BANK4   BANK5   BANK6   BANK7   BANK8   BANK9  BANK10  BANK1
      +1  BANK12
  6657 ;;      Params:         0       0       0       0       0       0       0       0       0       0       0       0       
      +0       0
  6658 ;;      Locals:         0       0       0       0       0       0       0       0       0       0       0       0       
      +0       0
  6659 ;;      Temps:          0       0       0       0       0       0       0       0       0       0       0       0       
      +0       0
  6660 ;;      Totals:         0       0       0       0       0       0       0       0       0       0       0       0       
      +0       0
  6661 ;;Total ram usage:        0 bytes
  6662 ;; Hardware stack levels used:    1
  6663 ;; This function calls:
  6664 ;;		Nothing
  6665 ;; This function is called by:
  6666 ;;		i2_isReady
  6667 ;; This function uses a non-reentrant model
  6668 ;;
  6669                           
  6670                           	psect	text43
  6671  001CEA                     __ptext43:
  6672                           	opt stack 0
  6673  001CEA                     i2_portDAsOutput:
  6674                           	opt stack 17
  6675                           
  6676                           ;SysRiego.c: 352: TRISD = 0x00;
  6677                           
  6678                           ;incstack = 0
  6679  001CEA  0E00               	movlw	0
  6680  001CEC  6E95               	movwf	3989,c	;volatile
  6681  001CEE  0012               	return		;funcret
  6682  001CF0                     __end_ofi2_portDAsOutput:
  6683                           	opt stack 0
  6684                           pclatu	equ	0xFFB
  6685                           pclath	equ	0xFFA
  6686                           tblptru	equ	0xFF8
  6687                           tblptrh	equ	0xFF7
  6688                           tblptrl	equ	0xFF6
  6689                           tablat	equ	0xFF5
  6690                           prodh	equ	0xFF4
  6691                           prodl	equ	0xFF3
  6692                           intcon	equ	0xFF2
  6693                           intcon2	equ	0xFF1
  6694                           indf0	equ	0xFEF
  6695                           postinc0	equ	0xFEE
  6696                           fsr0h	equ	0xFEA
  6697                           fsr0l	equ	0xFE9
  6698                           wreg	equ	0xFE8
  6699                           postdec1	equ	0xFE5
  6700                           fsr1h	equ	0xFE2
  6701                           fsr1l	equ	0xFE1
  6702                           bsr	equ	0xFE0
  6703                           indf2	equ	0xFDF
  6704                           postinc2	equ	0xFDE
  6705                           postdec2	equ	0xFDD
  6706                           fsr2h	equ	0xFDA
  6707                           fsr2l	equ	0xFD9
  6708                           status	equ	0xFD8
  6709                           
  6710 ;; *************** function i2_portDAsInput *****************
  6711 ;; Defined at:
  6712 ;;		line 347 in file "SysRiego.c"
  6713 ;; Parameters:    Size  Location     Type
  6714 ;;		None
  6715 ;; Auto vars:     Size  Location     Type
  6716 ;;		None
  6717 ;; Return value:  Size  Location     Type
  6718 ;;                  1    wreg      void 
  6719 ;; Registers used:
  6720 ;;		None
  6721 ;; Tracked objects:
  6722 ;;		On entry : 0/0
  6723 ;;		On exit  : 0/0
  6724 ;;		Unchanged: 0/0
  6725 ;; Data sizes:     COMRAM   BANK0   BANK1   BANK2   BANK3   BANK4   BANK5   BANK6   BANK7   BANK8   BANK9  BANK10  BANK1
      +1  BANK12
  6726 ;;      Params:         0       0       0       0       0       0       0       0       0       0       0       0       
      +0       0
  6727 ;;      Locals:         0       0       0       0       0       0       0       0       0       0       0       0       
      +0       0
  6728 ;;      Temps:          0       0       0       0       0       0       0       0       0       0       0       0       
      +0       0
  6729 ;;      Totals:         0       0       0       0       0       0       0       0       0       0       0       0       
      +0       0
  6730 ;;Total ram usage:        0 bytes
  6731 ;; Hardware stack levels used:    1
  6732 ;; This function calls:
  6733 ;;		Nothing
  6734 ;; This function is called by:
  6735 ;;		i2_isReady
  6736 ;; This function uses a non-reentrant model
  6737 ;;
  6738                           
  6739                           	psect	text44
  6740  001CF4                     __ptext44:
  6741                           	opt stack 0
  6742  001CF4                     i2_portDAsInput:
  6743                           	opt stack 17
  6744                           
  6745                           ;SysRiego.c: 348: TRISD = 0xFF;
  6746                           
  6747                           ;incstack = 0
  6748  001CF4  6895               	setf	3989,c	;volatile
  6749  001CF6  0012               	return		;funcret
  6750  001CF8                     __end_ofi2_portDAsInput:
  6751                           	opt stack 0
  6752                           pclatu	equ	0xFFB
  6753                           pclath	equ	0xFFA
  6754                           tblptru	equ	0xFF8
  6755                           tblptrh	equ	0xFF7
  6756                           tblptrl	equ	0xFF6
  6757                           tablat	equ	0xFF5
  6758                           prodh	equ	0xFF4
  6759                           prodl	equ	0xFF3
  6760                           intcon	equ	0xFF2
  6761                           intcon2	equ	0xFF1
  6762                           indf0	equ	0xFEF
  6763                           postinc0	equ	0xFEE
  6764                           fsr0h	equ	0xFEA
  6765                           fsr0l	equ	0xFE9
  6766                           wreg	equ	0xFE8
  6767                           postdec1	equ	0xFE5
  6768                           fsr1h	equ	0xFE2
  6769                           fsr1l	equ	0xFE1
  6770                           bsr	equ	0xFE0
  6771                           indf2	equ	0xFDF
  6772                           postinc2	equ	0xFDE
  6773                           postdec2	equ	0xFDD
  6774                           fsr2h	equ	0xFDA
  6775                           fsr2l	equ	0xFD9
  6776                           status	equ	0xFD8
  6777                           
  6778 ;; *************** function i2_command *****************
  6779 ;; Defined at:
  6780 ;;		line 387 in file "SysRiego.c"
  6781 ;; Parameters:    Size  Location     Type
  6782 ;;  x               1    wreg     unsigned char 
  6783 ;; Auto vars:     Size  Location     Type
  6784 ;;  x               1    1[COMRAM] unsigned char 
  6785 ;; Return value:  Size  Location     Type
  6786 ;;                  1    wreg      void 
  6787 ;; Registers used:
  6788 ;;		wreg, status,2, status,0, cstack
  6789 ;; Tracked objects:
  6790 ;;		On entry : 0/0
  6791 ;;		On exit  : 0/0
  6792 ;;		Unchanged: 0/0
  6793 ;; Data sizes:     COMRAM   BANK0   BANK1   BANK2   BANK3   BANK4   BANK5   BANK6   BANK7   BANK8   BANK9  BANK10  BANK1
      +1  BANK12
  6794 ;;      Params:         0       0       0       0       0       0       0       0       0       0       0       0       
      +0       0
  6795 ;;      Locals:         1       0       0       0       0       0       0       0       0       0       0       0       
      +0       0
  6796 ;;      Temps:          0       0       0       0       0       0       0       0       0       0       0       0       
      +0       0
  6797 ;;      Totals:         1       0       0       0       0       0       0       0       0       0       0       0       
      +0       0
  6798 ;;Total ram usage:        1 bytes
  6799 ;; Hardware stack levels used:    1
  6800 ;; Hardware stack levels required when called:    1
  6801 ;; This function calls:
  6802 ;;		i2_shortDelay
  6803 ;; This function is called by:
  6804 ;;		i2_clearDisplay
  6805 ;; This function uses a non-reentrant model
  6806 ;;
  6807                           
  6808                           	psect	text45
  6809  001C66                     __ptext45:
  6810                           	opt stack 0
  6811  001C66                     i2_command:
  6812                           	opt stack 17
  6813                           
  6814                           ;incstack = 0
  6815                           ;i2command@x stored from wreg
  6816  001C66  6E29               	movwf	i2command@x,c
  6817                           
  6818                           ;SysRiego.c: 388: PORTD = x;
  6819  001C68  C029  FF83         	movff	i2command@x,3971	;volatile
  6820                           
  6821                           ;SysRiego.c: 389: PORTCbits.RC0 = 0;
  6822  001C6C  9082               	bcf	3970,0,c	;volatile
  6823                           
  6824                           ;SysRiego.c: 390: PORTCbits.RC1 = 0;
  6825  001C6E  9282               	bcf	3970,1,c	;volatile
  6826                           
  6827                           ;SysRiego.c: 391: PORTCbits.RC2 = 1;
  6828  001C70  8482               	bsf	3970,2,c	;volatile
  6829                           
  6830                           ;SysRiego.c: 392: shortDelay();
  6831  001C72  EC4D  F00E         	call	i2_shortDelay	;wreg free
  6832                           
  6833                           ;SysRiego.c: 393: PORTCbits.RC2 = 0;
  6834  001C76  9482               	bcf	3970,2,c	;volatile
  6835  001C78  0012               	return		;funcret
  6836  001C7A                     __end_ofi2_command:
  6837                           	opt stack 0
  6838                           pclatu	equ	0xFFB
  6839                           pclath	equ	0xFFA
  6840                           tblptru	equ	0xFF8
  6841                           tblptrh	equ	0xFF7
  6842                           tblptrl	equ	0xFF6
  6843                           tablat	equ	0xFF5
  6844                           prodh	equ	0xFF4
  6845                           prodl	equ	0xFF3
  6846                           intcon	equ	0xFF2
  6847                           intcon2	equ	0xFF1
  6848                           indf0	equ	0xFEF
  6849                           postinc0	equ	0xFEE
  6850                           fsr0h	equ	0xFEA
  6851                           fsr0l	equ	0xFE9
  6852                           wreg	equ	0xFE8
  6853                           postdec1	equ	0xFE5
  6854                           fsr1h	equ	0xFE2
  6855                           fsr1l	equ	0xFE1
  6856                           bsr	equ	0xFE0
  6857                           indf2	equ	0xFDF
  6858                           postinc2	equ	0xFDE
  6859                           postdec2	equ	0xFDD
  6860                           fsr2h	equ	0xFDA
  6861                           fsr2l	equ	0xFD9
  6862                           status	equ	0xFD8
  6863                           
  6864 ;; *************** function i2_shortDelay *****************
  6865 ;; Defined at:
  6866 ;;		line 367 in file "SysRiego.c"
  6867 ;; Parameters:    Size  Location     Type
  6868 ;;		None
  6869 ;; Auto vars:     Size  Location     Type
  6870 ;;  shortDelay      1    0[COMRAM] unsigned char 
  6871 ;; Return value:  Size  Location     Type
  6872 ;;                  1    wreg      void 
  6873 ;; Registers used:
  6874 ;;		wreg, status,2, status,0
  6875 ;; Tracked objects:
  6876 ;;		On entry : 0/0
  6877 ;;		On exit  : 0/0
  6878 ;;		Unchanged: 0/0
  6879 ;; Data sizes:     COMRAM   BANK0   BANK1   BANK2   BANK3   BANK4   BANK5   BANK6   BANK7   BANK8   BANK9  BANK10  BANK1
      +1  BANK12
  6880 ;;      Params:         0       0       0       0       0       0       0       0       0       0       0       0       
      +0       0
  6881 ;;      Locals:         1       0       0       0       0       0       0       0       0       0       0       0       
      +0       0
  6882 ;;      Temps:          0       0       0       0       0       0       0       0       0       0       0       0       
      +0       0
  6883 ;;      Totals:         1       0       0       0       0       0       0       0       0       0       0       0       
      +0       0
  6884 ;;Total ram usage:        1 bytes
  6885 ;; Hardware stack levels used:    1
  6886 ;; This function calls:
  6887 ;;		Nothing
  6888 ;; This function is called by:
  6889 ;;		i2_command
  6890 ;;		i2_isReady
  6891 ;;		i2_displayCharOnLCD
  6892 ;;		i2_clearDisplay
  6893 ;; This function uses a non-reentrant model
  6894 ;;
  6895                           
  6896                           	psect	text46
  6897  001C9A                     __ptext46:
  6898                           	opt stack 0
  6899  001C9A                     i2_shortDelay:
  6900                           	opt stack 17
  6901                           
  6902                           ;SysRiego.c: 368: unsigned char L1REG = 2;
  6903                           
  6904                           ;incstack = 0
  6905  001C9A  0E02               	movlw	2
  6906  001C9C  6E28               	movwf	i2shortDelay@L1REG,c
  6907  001C9E                     i2l2246:
  6908  001C9E  0628               	decf	i2shortDelay@L1REG,f,c
  6909  001CA0  2828               	incf	i2shortDelay@L1REG,w,c
  6910  001CA2  B4D8               	btfsc	status,2,c
  6911  001CA4  0012               	return	
  6912  001CA6  D7FB               	goto	i2l2246
  6913  001CA8                     __end_ofi2_shortDelay:
  6914                           	opt stack 0
  6915                           pclatu	equ	0xFFB
  6916                           pclath	equ	0xFFA
  6917                           tblptru	equ	0xFF8
  6918                           tblptrh	equ	0xFF7
  6919                           tblptrl	equ	0xFF6
  6920                           tablat	equ	0xFF5
  6921                           prodh	equ	0xFF4
  6922                           prodl	equ	0xFF3
  6923                           intcon	equ	0xFF2
  6924                           intcon2	equ	0xFF1
  6925                           indf0	equ	0xFEF
  6926                           postinc0	equ	0xFEE
  6927                           fsr0h	equ	0xFEA
  6928                           fsr0l	equ	0xFE9
  6929                           wreg	equ	0xFE8
  6930                           postdec1	equ	0xFE5
  6931                           fsr1h	equ	0xFE2
  6932                           fsr1l	equ	0xFE1
  6933                           bsr	equ	0xFE0
  6934                           indf2	equ	0xFDF
  6935                           postinc2	equ	0xFDE
  6936                           postdec2	equ	0xFDD
  6937                           fsr2h	equ	0xFDA
  6938                           fsr2l	equ	0xFD9
  6939                           status	equ	0xFD8
  6940                           pclatu	equ	0xFFB
  6941                           pclath	equ	0xFFA
  6942                           tblptru	equ	0xFF8
  6943                           tblptrh	equ	0xFF7
  6944                           tblptrl	equ	0xFF6
  6945                           tablat	equ	0xFF5
  6946                           prodh	equ	0xFF4
  6947                           prodl	equ	0xFF3
  6948                           intcon	equ	0xFF2
  6949                           intcon2	equ	0xFF1
  6950                           indf0	equ	0xFEF
  6951                           postinc0	equ	0xFEE
  6952                           fsr0h	equ	0xFEA
  6953                           fsr0l	equ	0xFE9
  6954                           wreg	equ	0xFE8
  6955                           postdec1	equ	0xFE5
  6956                           fsr1h	equ	0xFE2
  6957                           fsr1l	equ	0xFE1
  6958                           bsr	equ	0xFE0
  6959                           indf2	equ	0xFDF
  6960                           postinc2	equ	0xFDE
  6961                           postdec2	equ	0xFDD
  6962                           fsr2h	equ	0xFDA
  6963                           fsr2l	equ	0xFD9
  6964                           status	equ	0xFD8
  6965                           
  6966                           	psect	rparam
  6967  0000                     pclatu	equ	0xFFB
  6968                           pclath	equ	0xFFA
  6969                           tblptru	equ	0xFF8
  6970                           tblptrh	equ	0xFF7
  6971                           tblptrl	equ	0xFF6
  6972                           tablat	equ	0xFF5
  6973                           prodh	equ	0xFF4
  6974                           prodl	equ	0xFF3
  6975                           intcon	equ	0xFF2
  6976                           intcon2	equ	0xFF1
  6977                           indf0	equ	0xFEF
  6978                           postinc0	equ	0xFEE
  6979                           fsr0h	equ	0xFEA
  6980                           fsr0l	equ	0xFE9
  6981                           wreg	equ	0xFE8
  6982                           postdec1	equ	0xFE5
  6983                           fsr1h	equ	0xFE2
  6984                           fsr1l	equ	0xFE1
  6985                           bsr	equ	0xFE0
  6986                           indf2	equ	0xFDF
  6987                           postinc2	equ	0xFDE
  6988                           postdec2	equ	0xFDD
  6989                           fsr2h	equ	0xFDA
  6990                           fsr2l	equ	0xFD9
  6991                           status	equ	0xFD8
  6992                           
  6993                           	psect	temp
  6994  00004A                     btemp:
  6995                           	opt stack 0
  6996  00004A                     	ds	1
  6997  0000                     int$flags	set	btemp
  6998                           pclatu	equ	0xFFB
  6999                           pclath	equ	0xFFA
  7000                           tblptru	equ	0xFF8
  7001                           tblptrh	equ	0xFF7
  7002                           tblptrl	equ	0xFF6
  7003                           tablat	equ	0xFF5
  7004                           prodh	equ	0xFF4
  7005                           prodl	equ	0xFF3
  7006                           intcon	equ	0xFF2
  7007                           intcon2	equ	0xFF1
  7008                           indf0	equ	0xFEF
  7009                           postinc0	equ	0xFEE
  7010                           fsr0h	equ	0xFEA
  7011                           fsr0l	equ	0xFE9
  7012                           wreg	equ	0xFE8
  7013                           postdec1	equ	0xFE5
  7014                           fsr1h	equ	0xFE2
  7015                           fsr1l	equ	0xFE1
  7016                           bsr	equ	0xFE0
  7017                           indf2	equ	0xFDF
  7018                           postinc2	equ	0xFDE
  7019                           postdec2	equ	0xFDD
  7020                           fsr2h	equ	0xFDA
  7021                           fsr2l	equ	0xFD9
  7022                           status	equ	0xFD8


Data Sizes:
    Strings     10
    Constant    0
    Data        175
    BSS         10
    Persistent  0
    Stack       0

Auto Spaces:
    Space          Size  Autos    Used
    COMRAM           94     28      73
    BANK0           160     17     157
    BANK1           256     17      17
    BANK2           256      0       0
    BANK3           256      0       0
    BANK4           256      0       0
    BANK5           256      0       0
    BANK6           256      0       0
    BANK7           256      0       0
    BANK8           256      0       0
    BANK9           256      0       0
    BANK10          256      0       0
    BANK11          256      0       0
    BANK12          256      0       0

Pointer List with Targets:

    workingTimer@selectedTime	PTR unsigned char  size(2) Largest target is 5
		 -> time3Zn3(BANK0[5]), time2Zn3(BANK0[5]), time1Zn3(BANK0[5]), time3Zn2(BANK0[5]), 
		 -> time2Zn2(COMRAM[5]), time1Zn2(COMRAM[5]), time3Zn1(COMRAM[5]), time2Zn1(COMRAM[5]), 
		 -> time1Zn1(COMRAM[5]), 

    zoneSelected	PTR unsigned char  size(2) Largest target is 0
		 -> NULL(NULL[0]), 

    displayLineOnLCD@array	PTR unsigned char  size(2) Largest target is 15
		 -> dayName(BANK0[4]), manualMessage(BANK0[12]), STR_1(CODE[10]), counterMIN(BANK0[3]), 
		 -> counterHOUR(BANK0[3]), timerMessage(BANK0[11]), automaticMessage(BANK0[15]), manualInactiveMessage(BANK0[9]), 
		 -> manualActiveMessage(BANK0[7]), configAutoMessage(BANK0[11]), time3Zn3(BANK0[5]), time2Zn3(BANK0[5]), 
		 -> time1Zn3(BANK0[5]), time3Zn2(BANK0[5]), time2Zn2(COMRAM[5]), time1Zn2(COMRAM[5]), 
		 -> time3Zn1(COMRAM[5]), time2Zn1(COMRAM[5]), time1Zn1(COMRAM[5]), 

    zoneTimes	PTR unsigned char [9] size(2) Largest target is 5
		 -> time3Zn3(BANK0[5]), time2Zn3(BANK0[5]), time1Zn3(BANK0[5]), time3Zn2(BANK0[5]), 
		 -> time2Zn2(COMRAM[5]), time1Zn2(COMRAM[5]), time3Zn1(COMRAM[5]), time2Zn1(COMRAM[5]), 
		 -> time1Zn1(COMRAM[5]), 


Critical Paths under _main in COMRAM

    None.

Critical Paths under _ISRL in COMRAM

    None.

Critical Paths under _ISRH in COMRAM

    _resetOneShot->i2_delay
    _pressedKey->_pressedKeyAction
    _pressedKeyAction->i2_displayLineOnLCD
    i2_displayLineOnLCD->i2_displayCharOnLCD
    i2_displayCharOnLCD->i2_shortDelay
    i2_clearDisplay->i2_command
    i2_isReady->i2_shortDelay
    i2_command->i2_shortDelay

Critical Paths under _main in BANK0

    None.

Critical Paths under _ISRL in BANK0

    None.

Critical Paths under _ISRH in BANK0

    None.

Critical Paths under _main in BANK1

    _main->_workingTimer
    _workingTimer->_displayLineOnLCD
    _workingManual->_displayLineOnLCD
    _workingAutomatic->_displayLineOnLCD
    _manualConfiguration->_displayLineOnLCD
    _automaticConfiguration->_displayLineOnLCD
    _resetReadInput->_delay
    _readInput->_delay
    _readKey->_determinePressedRow
    _displayLineOnLCD->_displayCharOnLCD
    _displayCharOnLCD->_shortDelay
    _clearDisplay->_command
    _LCDSetup->_longDelay
    _isReady->_shortDelay
    _command->_shortDelay

Critical Paths under _ISRL in BANK1

    None.

Critical Paths under _ISRH in BANK1

    None.

Critical Paths under _main in BANK2

    None.

Critical Paths under _ISRL in BANK2

    None.

Critical Paths under _ISRH in BANK2

    None.

Critical Paths under _main in BANK3

    None.

Critical Paths under _ISRL in BANK3

    None.

Critical Paths under _ISRH in BANK3

    None.

Critical Paths under _main in BANK4

    None.

Critical Paths under _ISRL in BANK4

    None.

Critical Paths under _ISRH in BANK4

    None.

Critical Paths under _main in BANK5

    None.

Critical Paths under _ISRL in BANK5

    None.

Critical Paths under _ISRH in BANK5

    None.

Critical Paths under _main in BANK6

    None.

Critical Paths under _ISRL in BANK6

    None.

Critical Paths under _ISRH in BANK6

    None.

Critical Paths under _main in BANK7

    None.

Critical Paths under _ISRL in BANK7

    None.

Critical Paths under _ISRH in BANK7

    None.

Critical Paths under _main in BANK8

    None.

Critical Paths under _ISRL in BANK8

    None.

Critical Paths under _ISRH in BANK8

    None.

Critical Paths under _main in BANK9

    None.

Critical Paths under _ISRL in BANK9

    None.

Critical Paths under _ISRH in BANK9

    None.

Critical Paths under _main in BANK10

    None.

Critical Paths under _ISRL in BANK10

    None.

Critical Paths under _ISRH in BANK10

    None.

Critical Paths under _main in BANK11

    None.

Critical Paths under _ISRL in BANK11

    None.

Critical Paths under _ISRH in BANK11

    None.

Critical Paths under _main in BANK12

    None.

Critical Paths under _ISRL in BANK12

    None.

Critical Paths under _ISRH in BANK12

    None.

Call Graph Tables:

 ---------------------------------------------------------------------------------
 (Depth) Function   	        Calls       Base Space   Used Autos Params    Refs
 ---------------------------------------------------------------------------------
 (0) _main                                                 0     0      0   18609
                           _LCDSetup
             _automaticConfiguration
                _manualConfiguration
                      _portDAsOutput
                 _timerConfiguration
                   _workingAutomatic
                      _workingManual
                       _workingTimer
 ---------------------------------------------------------------------------------
 (1) _workingTimer                                         4     4      0    3682
                                             13 BANK1      4     4      0
                       _clearDisplay
                   _displayLineOnLCD
 ---------------------------------------------------------------------------------
 (1) _workingManual                                        0     0      0    3394
                       _clearDisplay
                   _displayLineOnLCD
 ---------------------------------------------------------------------------------
 (1) _workingAutomatic                                     0     0      0    3394
                       _clearDisplay
                   _displayLineOnLCD
 ---------------------------------------------------------------------------------
 (1) _timerConfiguration                                   1     1      0     374
                                              3 BANK1      1     1      0
                       _clearDisplay
                     _disableIntRBIE
                      _enableIntRBIE
                           _getInput
 ---------------------------------------------------------------------------------
 (1) _manualConfiguration                                  2     2      0    3728
                                             13 BANK1      2     2      0
                       _clearDisplay
                     _disableIntRBIE
                   _displayLineOnLCD
                      _enableIntRBIE
                           _getInput
 ---------------------------------------------------------------------------------
 (1) _automaticConfiguration                               3     3      0    3830
                                             13 BANK1      3     3      0
                       _clearDisplay
                     _disableIntRBIE
                   _displayCharOnLCD
                   _displayLineOnLCD
                      _enableIntRBIE
                           _getInput
 ---------------------------------------------------------------------------------
 (2) _getInput                                             0     0      0     235
                      _groundAllRows
                          _readInput
                     _resetReadInput
 ---------------------------------------------------------------------------------
 (3) _resetReadInput                                       0     0      0      68
                              _delay
 ---------------------------------------------------------------------------------
 (3) _readInput                                            0     0      0     167
                              _delay
                            _readKey
 ---------------------------------------------------------------------------------
 (4) _readKey                                              0     0      0      99
                _determinePressedRow
                         _getKeyCode
 ---------------------------------------------------------------------------------
 (5) _getKeyCode                                           0     0      0       0
 ---------------------------------------------------------------------------------
 (5) _determinePressedRow                                  1     1      0      99
                                              0 BANK1      1     1      0
                      _turnOnAllRows
 ---------------------------------------------------------------------------------
 (6) _turnOnAllRows                                        0     0      0       0
 ---------------------------------------------------------------------------------
 (4) _delay                                                3     3      0      68
                                              0 BANK1      3     3      0
 ---------------------------------------------------------------------------------
 (3) _groundAllRows                                        0     0      0       0
 ---------------------------------------------------------------------------------
 (2) _enableIntRBIE                                        0     0      0       0
 ---------------------------------------------------------------------------------
 (2) _displayLineOnLCD                                    11     8      3    3261
                                              2 BANK1     11     8      3
                   _displayCharOnLCD
 ---------------------------------------------------------------------------------
 (3) _displayCharOnLCD                                     1     1      0      65
                                              1 BANK1      1     1      0
                         _shortDelay
 ---------------------------------------------------------------------------------
 (2) _disableIntRBIE                                       0     0      0       0
 ---------------------------------------------------------------------------------
 (2) _clearDisplay                                         0     0      0     133
                            _command
                            _isReady
                         _shortDelay
 ---------------------------------------------------------------------------------
 (1) _LCDSetup                                             0     0      0     207
                            _command
                            _isReady
                          _longDelay
 ---------------------------------------------------------------------------------
 (2) _longDelay                                            3     3      0     108
                                              0 BANK1      3     3      0
 ---------------------------------------------------------------------------------
 (3) _isReady                                              0     0      0      34
                       _portDAsInput
                      _portDAsOutput
                         _shortDelay
 ---------------------------------------------------------------------------------
 (4) _portDAsOutput                                        0     0      0       0
 ---------------------------------------------------------------------------------
 (4) _portDAsInput                                         0     0      0       0
 ---------------------------------------------------------------------------------
 (3) _command                                              1     1      0      65
                                              1 BANK1      1     1      0
                         _shortDelay
 ---------------------------------------------------------------------------------
 (4) _shortDelay                                           1     1      0      34
                                              0 BANK1      1     1      0
 ---------------------------------------------------------------------------------
 Estimated maximum stack depth 6
 ---------------------------------------------------------------------------------
 (Depth) Function   	        Calls       Base Space   Used Autos Params    Refs
 ---------------------------------------------------------------------------------
 (7) _ISRL                                                17    17      0       0
                                              0 BANK0     17    17      0
 ---------------------------------------------------------------------------------
 Estimated maximum stack depth 7
 ---------------------------------------------------------------------------------
 (Depth) Function   	        Calls       Base Space   Used Autos Params    Refs
 ---------------------------------------------------------------------------------
 (8) _ISRH                                                14    14      0     943
                                             14 COMRAM    14    14      0
                            _oneShot
                       _resetOneShot
                    i2_groundAllRows
 ---------------------------------------------------------------------------------
 (9) i2_groundAllRows                                      0     0      0       0
 ---------------------------------------------------------------------------------
 (9) _resetOneShot                                         0     0      0      46
                            i2_delay
 ---------------------------------------------------------------------------------
 (9) _oneShot                                              0     0      0     897
                         _pressedKey
                            i2_delay
 ---------------------------------------------------------------------------------
 (10) i2_delay                                             3     3      0      46
                                              0 COMRAM     3     3      0
 ---------------------------------------------------------------------------------
 (10) _pressedKey                                          0     0      0     851
                   _pressedKeyAction
              i2_determinePressedRow
                       i2_getKeyCode
 ---------------------------------------------------------------------------------
 (11) i2_getKeyCode                                        0     0      0       0
 ---------------------------------------------------------------------------------
 (11) i2_determinePressedRow                               1     1      0      68
                                              0 COMRAM     1     1      0
                    i2_turnOnAllRows
 ---------------------------------------------------------------------------------
 (12) i2_turnOnAllRows                                     0     0      0       0
 ---------------------------------------------------------------------------------
 (11) _pressedKeyAction                                    1     1      0     783
                                             13 COMRAM     1     1      0
                     i2_clearDisplay
                 i2_displayCharOnLCD
                 i2_displayLineOnLCD
 ---------------------------------------------------------------------------------
 (12) i2_displayLineOnLCD                                 11     8      3     603
                                              2 COMRAM    11     8      3
                 i2_displayCharOnLCD
 ---------------------------------------------------------------------------------
 (13) i2_displayCharOnLCD                                  1     1      0      45
                                              1 COMRAM     1     1      0
                       i2_shortDelay
 ---------------------------------------------------------------------------------
 (12) i2_clearDisplay                                      0     0      0      91
                          i2_command
                          i2_isReady
                       i2_shortDelay
 ---------------------------------------------------------------------------------
 (13) i2_isReady                                           0     0      0      23
                     i2_portDAsInput
                    i2_portDAsOutput
                       i2_shortDelay
 ---------------------------------------------------------------------------------
 (14) i2_portDAsOutput                                     0     0      0       0
 ---------------------------------------------------------------------------------
 (14) i2_portDAsInput                                      0     0      0       0
 ---------------------------------------------------------------------------------
 (13) i2_command                                           1     1      0      45
                                              1 COMRAM     1     1      0
                       i2_shortDelay
 ---------------------------------------------------------------------------------
 (14) i2_shortDelay                                        1     1      0      23
                                              0 COMRAM     1     1      0
 ---------------------------------------------------------------------------------
 Estimated maximum stack depth 14
 ---------------------------------------------------------------------------------

 Call Graph Graphs:

 _main (ROOT)
   _LCDSetup
     _command
       _shortDelay
     _isReady
       _portDAsInput
       _portDAsOutput
       _shortDelay
     _longDelay
   _automaticConfiguration
     _clearDisplay
       _command
         _shortDelay
       _isReady
         _portDAsInput
         _portDAsOutput
         _shortDelay
       _shortDelay
     _disableIntRBIE
     _displayCharOnLCD
       _shortDelay
     _displayLineOnLCD
       _displayCharOnLCD
         _shortDelay
     _enableIntRBIE
     _getInput
       _groundAllRows
       _readInput
         _delay
         _readKey
           _determinePressedRow
             _turnOnAllRows
           _getKeyCode
       _resetReadInput
         _delay
   _manualConfiguration
     _clearDisplay
       _command
         _shortDelay
       _isReady
         _portDAsInput
         _portDAsOutput
         _shortDelay
       _shortDelay
     _disableIntRBIE
     _displayLineOnLCD
       _displayCharOnLCD
         _shortDelay
     _enableIntRBIE
     _getInput
       _groundAllRows
       _readInput
         _delay
         _readKey
           _determinePressedRow
             _turnOnAllRows
           _getKeyCode
       _resetReadInput
         _delay
   _portDAsOutput
   _timerConfiguration
     _clearDisplay
       _command
         _shortDelay
       _isReady
         _portDAsInput
         _portDAsOutput
         _shortDelay
       _shortDelay
     _disableIntRBIE
     _enableIntRBIE
     _getInput
       _groundAllRows
       _readInput
         _delay
         _readKey
           _determinePressedRow
             _turnOnAllRows
           _getKeyCode
       _resetReadInput
         _delay
   _workingAutomatic
     _clearDisplay
       _command
         _shortDelay
       _isReady
         _portDAsInput
         _portDAsOutput
         _shortDelay
       _shortDelay
     _displayLineOnLCD
       _displayCharOnLCD
         _shortDelay
   _workingManual
     _clearDisplay
       _command
         _shortDelay
       _isReady
         _portDAsInput
         _portDAsOutput
         _shortDelay
       _shortDelay
     _displayLineOnLCD
       _displayCharOnLCD
         _shortDelay
   _workingTimer
     _clearDisplay
       _command
         _shortDelay
       _isReady
         _portDAsInput
         _portDAsOutput
         _shortDelay
       _shortDelay
     _displayLineOnLCD
       _displayCharOnLCD
         _shortDelay

 _ISRL (ROOT)

 _ISRH (ROOT)
   _oneShot
     _pressedKey
       _pressedKeyAction
         i2_clearDisplay
           i2_command
             i2_shortDelay
           i2_isReady
             i2_portDAsInput
             i2_portDAsOutput
             i2_shortDelay
           i2_shortDelay
         i2_displayCharOnLCD
           i2_shortDelay
         i2_displayLineOnLCD
           i2_displayCharOnLCD
             i2_shortDelay
       i2_determinePressedRow
         i2_turnOnAllRows
       i2_getKeyCode
     i2_delay
   _resetOneShot
     i2_delay
   i2_groundAllRows

 Address spaces:
Name               Size   Autos  Total    Cost      Usage
BIGRAM             CFF      0       0      31        0.0%
EEDATA             400      0       0       0        0.0%
BITBANK12          100      0       0      29        0.0%
BANK12             100      0       0      30        0.0%
BITBANK11          100      0       0      27        0.0%
BANK11             100      0       0      28        0.0%
BITBANK10          100      0       0      25        0.0%
BANK10             100      0       0      26        0.0%
BITBANK9           100      0       0      23        0.0%
BANK9              100      0       0      24        0.0%
BITBANK8           100      0       0      21        0.0%
BANK8              100      0       0      22        0.0%
BITBANK7           100      0       0      18        0.0%
BANK7              100      0       0      19        0.0%
BITBANK6           100      0       0      16        0.0%
BANK6              100      0       0      17        0.0%
BITBANK5           100      0       0      14        0.0%
BANK5              100      0       0      15        0.0%
BITBANK4           100      0       0      12        0.0%
BANK4              100      0       0      13        0.0%
BITBANK3           100      0       0      10        0.0%
BANK3              100      0       0      11        0.0%
BITBANK2           100      0       0       8        0.0%
BANK2              100      0       0       9        0.0%
BITBANK1           100      0       0       6        0.0%
BANK1              100     11      11       7        6.6%
BITBANK0            A0      0       0       4        0.0%
BANK0               A0     11      9D       5       98.1%
BITCOMRAM           5E      0       0       0        0.0%
COMRAM              5E     1C      49       1       77.7%
BITSFR_3             0      0       0      40        0.0%
SFR_3                0      0       0      40        0.0%
BITSFR_2             0      0       0      40        0.0%
SFR_2                0      0       0      40        0.0%
BITSFR_1             0      0       0      40        0.0%
SFR_1                0      0       0      40        0.0%
BITSFR               0      0       0      40        0.0%
SFR                  0      0       0      40        0.0%
STACK                0      0       0       2        0.0%
NULL                 0      0       0       0        0.0%
ABS                  0      0      F7      20        0.0%
DATA                 0      0      F7       3        0.0%
CODE                 0      0       0       0        0.0%


Microchip Technology PIC18 Macro Assembler V1.36 build -262312587 
Symbol Table                                                                                   Thu May  5 20:58:58 2016

                shortDelay@L1REG 0100     __size_of_manualConfiguration 010A  
                             bsr 000FE0           i2determinePressedRow@i 0028  
                            l230 1B90                              l217 19BC  
                            l353 1AE4                              l391 105E  
                            l386 1020                              l379 0FE0  
                            l396 109C                              prod 000FF3  
                            wreg 000FE8                     __CFG_LVP$OFF 000000  
                   __CFG_WDT$OFF 000000                             l3430 106E  
                           l3414 1050                             l3406 1040  
                           l3510 1438                             l3502 1430  
                           l3600 1C44                             l3352 0FD0  
                           l3530 146A                             l3522 1462  
                           l3506 1434                             l3610 19E8  
                           l3604 1ADE                             l3356 0FDA  
                           l3540 1472                             l3516 143C  
                           l3612 19EC                             l3620 19FE  
                           l3702 17AC                             l3606 1AEA  
                           l3470 10BC                             l3462 10AC  
                           l3446 108E                             l3438 107E  
                           l3382 1010                             l3374 1000  
                           l3366 0FF0                             l3550 149C  
                           l3534 146E                             l3526 1466  
                           l3542 148E                             l3518 1458  
                           l3614 19F0                             l3622 1A1A  
                           l3616 19F4                             l3490 10F6  
                           l3570 14CE                             l3554 14A0  
                           l3546 1498                             l3618 19F8  
                           l3714 1AB6                             l3564 14A8  
                           l3724 1ACC                             l3646 1B98  
                           l3478 10CC                             l3398 1030  
                           l3582 14DA                             l3574 14D2  
                           l3558 14A4                             l3566 14C4  
                           l3590 14F8                             l3806 1622  
                           l3822 1686                             l3488 10DA  
                           l3744 1A6E                             l3752 134C  
                           l3690 19C0                             l3578 14D6  
                           l3498 142C                             l3842 1AA0  
                           l3754 1352                             l3692 19CC  
                           l3588 14DE                             l3780 1412  
                           l3940 1714                             l3694 19D8  
                           l3758 135C                             l3950 173E  
                           l3942 171A                             l3934 1704  
                           l3688 19B4                             l3872 12DC  
                           l3856 125C                             l3776 140C  
                           l3952 1744                             l3698 176A  
                           l3866 12AE                             l3858 1274  
                           l3938 170E                             l3946 1720  
                           l3876 1304                             l3788 1A40  
                           l3948 1738                             l3956 174A  
                           l3878 131A                             STR_1 0D01  
                           _LATB 000F8A                             _LATC 000F8B  
                           u3210 17A4                             u3217 179A  
                           _ISRH 0008                             _ISRL 0018  
                           _TMR0 000FD6             __end_ofi2_shortDelay 1CA8  
                           _main 169C                             fsr0h 000FEA  
                           fsr1h 000FE2                             indf0 000FEF  
                           fsr0l 000FE9                             fsr2h 000FDA  
                           fsr1l 000FE1                             indf2 000FDF  
                           fsr2l 000FD9                             btemp 004A  
                           pclat 000FFA                             prodh 000FF4  
                           prodl 000FF3                  __end_ofi2_delay 1BF6  
                           start 00A6            displayLineOnLCD@array 0102  
                  __CFG_MCLRE$ON 000000               i2_displayCharOnLCD 1C52  
                   ___param_bank 000010             __end_of_clearDisplay 1C8A  
                 _columnSelected 0044                    workingTimer@i 010E  
            i2displayLineOnLCD@i 0034                            ?_ISRH 0028  
                          ?_ISRL 0028                       i2command@x 0029  
               __end_of_LCDSetup 1B4C              ?i2_displayCharOnLCD 0028  
                 longDelay@L1REG 0100                   longDelay@L2REG 0101  
                 longDelay@L3REG 0102                            ?_main 0028  
                          _CMCON 000FB4                            _T0CON 000FD5  
                          i2l230 1C00                   i2_portDAsInput 1CF4  
                          i2l322 0F8E                            i2l316 0ECC  
                          i2l353 1BE4                            i2l443 0D52  
                          i2l452 0DF0                            i2l391 118C  
                          i2l386 114E                            i2l379 110E  
                          i2l396 11CA                            _PORTB 000F81  
                          _PORTC 000F82                            _PORTD 000F83  
          __size_ofi2_getKeyCode 00D8                            _TRISB 000F93  
                          _TRISC 000F94                            _TRISD 000F95  
               ?i2_groundAllRows 0028                  __end_of_command 1C3E  
                __end_of_isReady 1BA2                            _delay 1AD6  
                __end_of_readKey 1A26                  __end_of_oneShot 1BDA  
                          tablat 000FF5               i2_displayLineOnLCD 1886  
           ??i2_displayCharOnLCD 0029                            status 000FD8  
    __end_of_determinePressedRow 10FC                 _pressedKeyAction 0D0C  
            ?i2_displayLineOnLCD 002A                     __end_of_ISRH 0FCA  
                   __end_of_ISRL 00A6                  __initialization 18F8  
                   __end_of_main 1762               __size_ofi2_command 0014  
             __size_ofi2_isReady 001C                     i2_getKeyCode 14FC  
                         ??_ISRH 0036                           ??_ISRL 00E8  
         __end_ofi2_portDAsInput 1CF8              _statusConfiguration 00FC  
          __size_of_workingTimer 00F4                           ??_main 0111  
                  __activetblptr 000002          __size_of_resetReadInput 001E  
           ??i2_displayLineOnLCD 002D   __size_ofi2_determinePressedRow 012A  
  __end_ofi2_determinePressedRow 1226                           ?_delay 0028  
                         _ADCON1 000FC1                 _workingAutomatic 1A54  
        ?_automaticConfiguration 0028                        ??i2_delay 0028  
                         i2l3000 1BE0                           i2l3002 1BE8  
                         i2l2246 1C9E                           i2l3302 0F2A  
                         i2l2514 1C08                           i2l2700 111E  
                         i2l3308 0F3E                           i2l3316 0F84  
                         i2l3260 0EB0                           i2l3270 0EC6  
                         i2l2562 188C                           i2l2650 0D6A  
                         i2l2642 0D3C                           i2l2634 0D10  
                         i2l2812 11FA                           i2l2804 11EA  
                         i2l2740 116E                           i2l2732 115E  
                         i2l2716 113E                           i2l2708 112E  
                         i2l2900 159C                           i2l2566 18C6  
                         i2l2670 0DD8                           i2l2662 0DAC  
                         i2l2654 0D80                           i2l2638 0D26  
                         i2l2822 1208                           i2l2672 0DE0  
                         i2l2824 1222                           i2l2912 15AE  
                         i2l2904 15A6                           i2l2840 150C  
                         i2l2832 1504                           i2l2674 0DE8  
                         i2l2666 0DC2                           i2l2658 0D96  
                         i2l2682 0E14                           i2l2690 1108  
                         i2l2922 15B6                           i2l2850 1514  
                         i2l2676 0DF8                           i2l2780 11BC  
                         i2l2772 11AC                           i2l2764 119C  
                         i2l2748 117E                           i2l2916 15B2  
                         i2l2908 15AA                           i2l2860 153E  
                         i2l2924 15D0                           i2l2844 1510  
                         i2l2836 1508                           i2l2852 1530  
                         i2l2678 0E00                           i2l2686 1100  
                         i2l2880 1570                           i2l2864 1542  
                         i2l2856 153A                           i2l2874 154A  
                         i2l2796 11DA                           i2l2892 157C  
                         i2l2884 1574                           i2l2868 1546  
                         i2l2876 1566                           i2l2990 196E  
                         i2l2982 195E                           i2l2888 1578  
                         i2l2984 1962                           i2l2992 1974  
                         i2l2898 1580                           i2l2986 1966  
                         i2l2994 1990                           i2l2988 196A  
                         _OSCCON 000FD3                           _TMR0IE 007F95  
                         _TMR0IF 007F92                  i2_portDAsOutput 1CEA  
         __size_of_turnOnAllRows 000A                     _zoneSelected 00F9  
               __end_of_getInput 1AD6                     _workingTimer 1330  
                   i2delay@L1REG 0029                     i2delay@L2REG 002A  
                  _manualMessage 0098                  ?i2_portDAsInput 0028  
                      ??_command 0101                        ??_isReady 0101  
              ?_displayCharOnLCD 0028                        ??_readKey 0101  
                   __pdataCOMRAM 0001                        ??_oneShot 0036  
             ??_displayCharOnLCD 0101                     __mediumconst 0000  
                         tblptrh 000FF7                           tblptrl 000FF6  
                         tblptru 000FF8            __size_ofi2_shortDelay 000E  
 __end_of_automaticConfiguration 169C       __end_of_timerConfiguration 1AAC  
              __end_ofi2_command 1C7A                __end_ofi2_isReady 1C12  
            _manualConfiguration 1226                       __accesstop 0060  
        __end_of__initialization 194E                  __CFG_PBADEN$OFF 000000  
                      ?_LCDSetup 0028            __size_of_clearDisplay 0010  
                  ___rparam_used 000001          i2displayLineOnLCD@array 002A  
              ?_displayLineOnLCD 0102                   __pcstackCOMRAM 0028  
                   __pidataBANK0 17FE                    __end_of_delay 1AFE  
           ?_manualConfiguration 0028               ??_displayLineOnLCD 0105  
          __end_of_enableIntRBIE 1CC6                     i2_shortDelay 1C9A  
                  _turnOnAllRows 1CA8            __end_of_portDAsOutput 1CEA  
         __size_of_workingManual 002E    automaticConfiguration@counter 010E  
        __end_ofi2_portDAsOutput 1CF0                          ??_delay 0100  
                   _clearDisplay 1C7A                       __pbssBANK0 00F9  
       __size_ofi2_turnOnAllRows 000A          __size_ofi2_clearDisplay 0010  
                     ??_LCDSetup 0103               __size_of_readInput 001C  
         __size_of_groundAllRows 000A               __size_of_longDelay 0044  
          ??_manualConfiguration 010D                       _getKeyCode 1424  
                 ?_turnOnAllRows 0028                   _resetReadInput 1B4C  
       __end_of_pressedKeyAction 0E78                        ?_getInput 0028  
                  ?_resetOneShot 0028                displayLineOnLCD@i 010C  
                        i2_delay 1BDA        displayCharOnLCD@character 0101  
                     _counterMIN 00E5                       _counterSEC 000B  
                        __Hparam 0000                    _workingManual 1A26  
                        __Lparam 0000          __size_of_disableIntRBIE 000A  
                     delay@L1REG 0101                       delay@L2REG 0102  
       __end_of_workingAutomatic 1A80                     __psmallconst 0D00  
                  ?_portDAsInput 0028                          _dayName 00DE  
         __end_of_resetReadInput 1B6A                          __pcinit 18F8  
                        __ramtop 0D00             determinePressedRow@i 0100  
                        __ptext0 169C                          __ptext1 1330  
                        __ptext2 1A26                          __ptext3 1A54  
                        __ptext4 1A80                          __ptext5 1226  
                        __ptext6 15D4                          __ptext7 1AAC  
                        __ptext8 1B4C                          __ptext9 1B6A  
                        _command 1C28                          _isReady 1B86  
                      _T0CONbits 000FD5                          _keyCode 0047  
              __end_of_readInput 1B86                    _groundAllRows 1CB2  
                        _readKey 19E6                          _oneShot 1BBE  
              _configAutoMessage 00A4                __end_of_longDelay 19E6  
                 ??_resetOneShot 002B                       ??_getInput 0103  
               ?i2_portDAsOutput 0028                   __pintcode_body 0E78  
           end_of_initialization 194E         __size_ofi2_groundAllRows 000A  
    __size_ofi2_displayCharOnLCD 0014                    __Lmediumconst 0000  
                        int_func 0E78                   ?_workingManual 0028  
              ??i2_turnOnAllRows 0028                 ??i2_portDAsInput 0028  
                        postdec1 000FE5                          postdec2 000FDD  
                        postinc0 000FEE                          postinc2 000FDE  
                    ?_getKeyCode 0028                   ??_portDAsInput 0100  
                ??_turnOnAllRows 0100     __size_of_determinePressedRow 0132  
                ?_resetReadInput 0028                       _shortDelay 1C3E  
                      _PORTBbits 000F81                        _PORTCbits 000F82  
                      _PORTDbits 000F83                       _pressedKey 195C  
                 ?_groundAllRows 0028          timerConfiguration@input 0103  
    __size_ofi2_displayLineOnLCD 0072                        _TRISBbits 000F93  
          i2_determinePressedRow 10FC                   i2_clearDisplay 1C8A  
      __size_of_displayCharOnLCD 0016                        i2_command 1C66  
                      i2_isReady 1BF6                __size_of_LCDSetup 0026  
             _timerConfiguration 1A80      automaticConfiguration@input 010F  
               _automaticMessage 0089              ?_timerConfiguration 0028  
                  __pidataCOMRAM 1AFE              start_initialization 18F8  
      __size_of_displayLineOnLCD 009C           __end_ofi2_clearDisplay 1C9A  
            __size_of_getKeyCode 00D8             ??_timerConfiguration 0103  
               __CFG_OSC$IRCIO67 000000                  ??_workingManual 010D  
                     ?i2_command 0028                       ?i2_isReady 0028  
              ??i2_groundAllRows 0028                   _disableIntRBIE 1CC6  
                   _manualZn1Val 000C                     _manualZn2Val 000D  
           __end_of_resetOneShot 1BBE                     _manualZn3Val 000E  
                    __pdataBANK0 0060                  ??_groundAllRows 0100  
                    ?_shortDelay 0028                      ?_pressedKey 0028  
                    __pbssCOMRAM 0044                ?_pressedKeyAction 0028  
          _manualInactiveMessage 00BA                    __pcstackBANK0 00E8  
                  __pcstackBANK1 0100                   _getValueStatus 0045  
         ?i2_determinePressedRow 0028               ??_pressedKeyAction 0035  
                ?i2_clearDisplay 0028         manualConfiguration@input 010E  
                       ?i2_delay 0028             __end_of_portDAsInput 1CF4  
              __size_of_getInput 002A      __end_of_manualConfiguration 1330  
         __size_of_enableIntRBIE 000A           __end_of_disableIntRBIE 1CD0  
         __size_of_portDAsOutput 0006                     _modeSelected 00FB  
                      __pintcode 0008                    ?i2_getKeyCode 0028  
              ?_workingAutomatic 0028                      __pintcodelo 0018  
              i2shortDelay@L1REG 0028                _hourConfiguration 0046  
             ??_workingAutomatic 010D                         ?_command 0028  
                       ?_isReady 0028         ??_automaticConfiguration 010D  
                    __smallconst 0D00                         ?_readKey 0028  
                       ?_oneShot 0028                         _CASTELLO 007E  
                      _readInput 1B6A                   __size_of_delay 0028  
                i2_turnOnAllRows 1CDA              _determinePressedRow 0FCA  
                      _longDelay 19A2                         _GREETING 0072  
               _displayCharOnLCD 1C12                         _LCDSetup 1B26  
                    ??i2_command 0029                      ??i2_isReady 0029  
            __size_of_shortDelay 0014              __size_of_pressedKey 0046  
                ?_disableIntRBIE 0028                         i2u179_40 18C0  
                       i2u179_47 18B6                    ?_workingTimer 0028  
               ??_resetReadInput 0103                         _RCONbits 000FD0  
                 ??i2_getKeyCode 0028                     ??_getKeyCode 0100  
           ?_determinePressedRow 0028    i2displayLineOnLCD@sizeOfArray 002C  
                  _enableIntRBIE 1CBC                 _displayLineOnLCD 1762  
                  _portDAsOutput 1CE4                       ?_readInput 0028  
     __end_ofi2_displayCharOnLCD 1C66                      _INTCON2bits 000FF1  
                      _zoneTimes 0060                        copy_data0 1922  
                      copy_data1 1942                       ?_longDelay 0028  
             __end_of_getKeyCode 14FC                 __size_ofi2_delay 001C  
                    _counterDAYS 000A                      _counterHOUR 00E2  
       __size_ofi2_portDAsOutput 0006            __size_of_resetOneShot 001C  
                 ??_workingTimer 010D                         __Hrparam 0000  
                       __Lrparam 0000            ??_determinePressedRow 0100  
                  ?i2_shortDelay 0028            __end_of_turnOnAllRows 1CB2  
                 ?_enableIntRBIE 0028       __end_ofi2_displayLineOnLCD 18F8  
        __end_ofi2_turnOnAllRows 1CE4  __size_of_automaticConfiguration 00C8  
               __size_of_command 0016         workingTimer@selectedTime 010F  
               __size_of_isReady 001C                 __size_of_readKey 0040  
                 ?_portDAsOutput 0028            __size_of_portDAsInput 0004  
               __size_of_oneShot 001C              _manualActiveMessage 00C3  
                       _getInput 1AAC                    ?_clearDisplay 0028  
                       __ptext10 19E6                         __ptext11 1424  
                       __ptext20 1C7A                         __ptext12 0FCA  
                       __ptext21 1B26                         __ptext13 1CA8  
                       __ptext30 1CD0                         __ptext22 19A2  
                       __ptext14 1AD6                         __ptext31 1BA2  
                       __ptext23 1B86                         __ptext15 1CB2  
                       __ptext40 1C52                         __ptext32 1BBE  
                       __ptext24 1CE4                         __ptext16 1CBC  
                       __ptext41 1C8A                         __ptext33 1BDA  
                       __ptext25 1CF0                         __ptext17 1762  
                       __ptext42 1BF6                         __ptext34 195C  
                       __ptext26 1C28                         __ptext18 1C12  
                       __ptext43 1CEA                         __ptext35 14FC  
                       __ptext27 1C3E                         __ptext19 1CC6  
                       __ptext44 1CF4                         __ptext36 10FC  
                       __ptext45 1C66                         __ptext37 1CDA  
                       __ptext46 1C9A                         __ptext38 0D0C  
                       __ptext39 1886                     _resetOneShot 1BA2  
                i2_groundAllRows 1CD0                    __size_of_ISRH 0FC2  
                  __size_of_ISRL 008E                      _oneShotFlag 0048  
    i2displayCharOnLCD@character 0029                    __size_of_main 00C6  
                       _time1Zn1 000F                         _time1Zn2 0014  
                       _time1Zn3 00CA                         _time2Zn1 0019  
                       _time2Zn2 001E                         _time2Zn3 00CF  
                       _time3Zn1 0023                         _time3Zn2 00D4  
                       _time3Zn3 00D9                       _CVRCONbits 000FB5  
                       int$flags 004A                         command@x 0101  
                 ??i2_shortDelay 0028                     _portDAsInput 1CF0  
                   ??_shortDelay 0100                     ??_pressedKey 0036  
               ??i2_clearDisplay 002A          __size_ofi2_portDAsInput 0004  
        ??i2_determinePressedRow 0028                       _INTCONbits 000FF2  
                 ??_clearDisplay 0102      displayLineOnLCD@sizeOfArray 0104  
                    ??_readInput 0103             __end_ofi2_getKeyCode 15D4  
                    ??_longDelay 0100                         intlevel1 0000  
                       intlevel2 0000      __size_of_timerConfiguration 002C  
         _automaticConfiguration 15D4                     _timerMessage 00AF  
             __end_of_shortDelay 1C52            __end_of_workingManual 1A54  
      __size_of_pressedKeyAction 016C               __end_of_pressedKey 19A2  
        pressedKeyAction@keyCode 0035                ??i2_portDAsOutput 0028  
                ??_enableIntRBIE 0100         __end_of_displayCharOnLCD 1C28  
          __end_of_groundAllRows 1CBC                  ??_portDAsOutput 0100  
               ?i2_turnOnAllRows 0028          __end_ofi2_groundAllRows 1CDA  
                 _humidityZn1Val 0001                   _humidityZn2Val 0004  
                 _humidityZn3Val 0007             __end_of_workingTimer 1424  
      __size_of_workingAutomatic 002C                 ??_disableIntRBIE 0100  
                    _rowSelected 0049         __end_of_displayLineOnLCD 17FE  
