

Microchip Technology PIC18 LITE Macro Assembler V1.36 build -262312587 
                                                                                               Sat May  7 15:30:25 2016

Microchip Technology Omniscient Code Generator v1.36 (Free mode) build 201601150325
     1                           	processor	18F4585
     2                           	fnconf	rparam,??,?,0
     3                           	opt	pw 120
     4                           	opt	lm
     5                           	psect	idataCOMRAM,global,class=CODE,delta=1
     6                           	psect	idataBANK0,global,class=CODE,delta=1
     7                           	psect	idataBANK1,global,class=CODE,delta=1
     8                           	psect	smallconst,global,reloc=2,class=SMALLCONST,delta=1
     9                           	psect	cinit,global,reloc=2,class=CODE,delta=1
    10                           	psect	bssCOMRAM,global,class=COMRAM,space=1,delta=1
    11                           	psect	dataCOMRAM,global,class=COMRAM,space=1,delta=1
    12                           	psect	bssBANK0,global,class=BANK0,space=1,delta=1
    13                           	psect	dataBANK0,global,class=BANK0,space=1,delta=1
    14                           	psect	dataBANK1,global,class=BANK1,space=1,delta=1
    15                           	psect	cstackBANK1,global,class=BANK1,space=1,delta=1
    16                           	psect	cstackBANK0,global,class=BANK0,space=1,delta=1
    17                           	psect	cstackCOMRAM,global,class=COMRAM,space=1,delta=1
    18                           	psect	text0,global,reloc=2,class=CODE,delta=1
    19                           	psect	text1,global,reloc=2,class=CODE,delta=1
    20                           	psect	text2,global,reloc=2,class=CODE,delta=1
    21                           	psect	text3,global,reloc=2,class=CODE,delta=1
    22                           	psect	text4,global,reloc=2,class=CODE,delta=1
    23                           	psect	text5,global,reloc=2,class=CODE,delta=1
    24                           	psect	text6,global,reloc=2,class=CODE,delta=1
    25                           	psect	text7,global,reloc=2,class=CODE,delta=1
    26                           	psect	text8,global,reloc=2,class=CODE,delta=1
    27                           	psect	text9,global,reloc=2,class=CODE,delta=1
    28                           	psect	text10,global,reloc=2,class=CODE,delta=1
    29                           	psect	text11,global,reloc=2,class=CODE,delta=1
    30                           	psect	text12,global,reloc=2,class=CODE,delta=1
    31                           	psect	text13,global,reloc=2,class=CODE,delta=1
    32                           	psect	text14,global,reloc=2,class=CODE,delta=1
    33                           	psect	text15,global,reloc=2,class=CODE,delta=1
    34                           	psect	text16,global,reloc=2,class=CODE,delta=1
    35                           	psect	text17,global,reloc=2,class=CODE,delta=1
    36                           	psect	text18,global,reloc=2,class=CODE,delta=1
    37                           	psect	text19,global,reloc=2,class=CODE,delta=1
    38                           	psect	text20,global,reloc=2,class=CODE,delta=1
    39                           	psect	text21,global,reloc=2,class=CODE,delta=1
    40                           	psect	text22,global,reloc=2,class=CODE,delta=1
    41                           	psect	text23,global,reloc=2,class=CODE,delta=1
    42                           	psect	text24,global,reloc=2,class=CODE,delta=1
    43                           	psect	text25,global,reloc=2,class=CODE,delta=1
    44                           	psect	text26,global,reloc=2,class=CODE,delta=1
    45                           	psect	text27,global,reloc=2,class=CODE,delta=1
    46                           	psect	text28,global,reloc=2,class=CODE,delta=1
    47                           	psect	text29,global,reloc=2,class=CODE,delta=1
    48                           	psect	text30,global,reloc=2,class=CODE,delta=1
    49                           	psect	text31,global,reloc=2,class=CODE,delta=1
    50                           	psect	text32,global,reloc=2,class=CODE,delta=1
    51                           	psect	text33,global,reloc=2,class=CODE,delta=1
    52                           	psect	text34,global,reloc=2,class=CODE,delta=1
    53                           	psect	text35,global,reloc=2,class=CODE,delta=1
    54                           	psect	text36,global,reloc=2,class=CODE,delta=1
    55                           	psect	text37,global,reloc=2,class=CODE,delta=1
    56                           	psect	text38,global,reloc=2,class=CODE,delta=1
    57                           	psect	text39,global,reloc=2,class=CODE,delta=1
    58                           	psect	text40,global,reloc=2,class=CODE,delta=1
    59                           	psect	text41,global,reloc=2,class=CODE,delta=1
    60                           	psect	text42,global,reloc=2,class=CODE,delta=1
    61                           	psect	text43,global,reloc=2,class=CODE,delta=1
    62                           	psect	intcodelo,global,reloc=2,class=CODE,delta=1
    63                           	psect	intcode,global,reloc=2,class=CODE,delta=1
    64                           	psect	intcode_body,global,reloc=2,class=CODE,delta=1
    65                           	psect	text46,global,reloc=2,class=CODE,delta=1
    66                           	psect	text47,global,reloc=2,class=CODE,delta=1
    67                           	psect	text48,global,reloc=2,class=CODE,delta=1
    68                           	psect	text49,global,reloc=2,class=CODE,delta=1
    69                           	psect	text50,global,reloc=2,class=CODE,delta=1
    70                           	psect	text51,global,reloc=2,class=CODE,delta=1
    71                           	psect	text52,global,reloc=2,class=CODE,delta=1
    72                           	psect	text53,global,reloc=2,class=CODE,delta=1
    73                           	psect	text54,global,reloc=2,class=CODE,delta=1
    74                           	psect	text55,global,reloc=2,class=CODE,delta=1
    75                           	psect	text56,global,reloc=2,class=CODE,delta=1
    76                           	psect	text57,global,reloc=2,class=CODE,delta=1
    77                           	psect	text58,global,reloc=2,class=CODE,delta=1
    78                           	psect	text59,global,reloc=2,class=CODE,delta=1
    79                           	psect	text60,global,reloc=2,class=CODE,delta=1
    80                           	psect	text61,global,reloc=2,class=CODE,delta=1
    81                           	psect	text62,global,reloc=2,class=CODE,delta=1
    82                           	psect	text63,global,reloc=2,class=CODE,delta=1
    83                           	psect	text64,global,reloc=2,class=CODE,delta=1
    84                           	psect	text65,global,reloc=2,class=CODE,delta=1
    85                           	psect	text66,global,reloc=2,class=CODE,delta=1
    86                           	psect	intsave_regs,global,class=BIGRAM,space=1,delta=1
    87                           	psect	rparam,global,class=COMRAM,space=1,delta=1
    88                           	psect	temp,global,ovrld,common,class=COMRAM,space=1,delta=1
    89  0000                     
    90                           	psect	idataCOMRAM
    91  002650                     __pidataCOMRAM:
    92                           	opt stack 0
    93                           
    94                           ;initializer for _counterDAYS
    95  002650  30                 	db	48
    96                           
    97                           ;initializer for _counterSEC
    98  002651  30                 	db	48
    99                           
   100                           ;initializer for _timerMessage
   101  002652  54                 	db	84
   102  002653  69                 	db	105
   103  002654  6D                 	db	109
   104  002655  65                 	db	101
   105  002656  72                 	db	114
   106  002657  20                 	db	32
   107  002658  6D                 	db	109
   108  002659  6F                 	db	111
   109  00265A  64                 	db	100
   110  00265B  65                 	db	101
   111  00265C  00                 	db	0
   112                           
   113                           ;initializer for _humidityZn1Val
   114  00265D  35                 	db	53
   115  00265E  30                 	db	48
   116  00265F  00                 	db	0
   117                           
   118                           ;initializer for _humidityZn2Val
   119  002660  35                 	db	53
   120  002661  30                 	db	48
   121  002662  00                 	db	0
   122                           
   123                           ;initializer for _humidityZn3Val
   124  002663  35                 	db	53
   125  002664  30                 	db	48
   126  002665  00                 	db	0
   127                           
   128                           ;initializer for _humidityZn1ValInt
   129  002666  32                 	db	50
   130                           
   131                           ;initializer for _humidityZn2ValInt
   132  002667  32                 	db	50
   133                           
   134                           ;initializer for _humidityZn3ValInt
   135  002668  32                 	db	50
   136                           
   137                           ;initializer for _manualZn1Val
   138  002669  31                 	db	49
   139                           
   140                           ;initializer for _manualZn2Val
   141  00266A  31                 	db	49
   142                           
   143                           ;initializer for _manualZn3Val
   144  00266B  31                 	db	49
   145                           
   146                           	psect	idataBANK0
   147  00222E                     __pidataBANK0:
   148                           	opt stack 0
   149                           
   150                           ;initializer for _humidityZnValuesInt
   151  00222E  36                 	db	low _humidityZn1ValInt
   152  00222F  00                 	db	high _humidityZn1ValInt
   153  002230  37                 	db	low _humidityZn2ValInt
   154  002231  00                 	db	high _humidityZn2ValInt
   155  002232  38                 	db	low _humidityZn3ValInt
   156  002233  00                 	db	high _humidityZn3ValInt
   157                           
   158                           ;initializer for _zoneEndTimes
   159  002234  7F                 	db	low _endTimeZn1
   160  002235  00                 	db	high _endTimeZn1
   161  002236  84                 	db	low _endTimeZn2
   162  002237  00                 	db	high _endTimeZn2
   163  002238  89                 	db	low _endTimeZn3
   164  002239  00                 	db	high _endTimeZn3
   165                           
   166                           ;initializer for _CONVERSIONRATE
   167  00223A  D7                 	db	215
   168  00223B  23                 	db	35
   169  00223C  41                 	db	65
   170                           
   171                           ;initializer for _manualInactiveMessage
   172  00223D  49                 	db	73
   173  00223E  6E                 	db	110
   174  00223F  61                 	db	97
   175  002240  63                 	db	99
   176  002241  74                 	db	116
   177  002242  69                 	db	105
   178  002243  76                 	db	118
   179  002244  65                 	db	101
   180  002245  00                 	db	0
   181                           
   182                           ;initializer for _manualActiveMessage
   183  002246  41                 	db	65
   184  002247  63                 	db	99
   185  002248  74                 	db	116
   186  002249  69                 	db	105
   187  00224A  76                 	db	118
   188  00224B  65                 	db	101
   189  00224C  00                 	db	0
   190                           
   191                           ;initializer for _endTimeZn1
   192  00224D  24                 	db	36
   193  00224E  24                 	db	36
   194  00224F  24                 	db	36
   195  002250  24                 	db	36
   196  002251  00                 	db	0
   197                           
   198                           ;initializer for _endTimeZn2
   199  002252  24                 	db	36
   200  002253  24                 	db	36
   201  002254  24                 	db	36
   202  002255  24                 	db	36
   203  002256  00                 	db	0
   204                           
   205                           ;initializer for _endTimeZn3
   206  002257  24                 	db	36
   207  002258  24                 	db	36
   208  002259  24                 	db	36
   209  00225A  24                 	db	36
   210  00225B  00                 	db	0
   211                           
   212                           ;initializer for _time1Zn1
   213  00225C  30                 	db	48
   214  00225D  30                 	db	48
   215  00225E  30                 	db	48
   216  00225F  31                 	db	49
   217  002260  00                 	db	0
   218                           
   219                           ;initializer for _time1Zn2
   220  002261  30                 	db	48
   221  002262  30                 	db	48
   222  002263  30                 	db	48
   223  002264  33                 	db	51
   224  002265  00                 	db	0
   225                           
   226                           ;initializer for _time1Zn3
   227  002266  30                 	db	48
   228  002267  30                 	db	48
   229  002268  30                 	db	48
   230  002269  30                 	db	48
   231  00226A  00                 	db	0
   232                           
   233                           ;initializer for _time2Zn1
   234  00226B  30                 	db	48
   235  00226C  30                 	db	48
   236  00226D  30                 	db	48
   237  00226E  34                 	db	52
   238  00226F  00                 	db	0
   239                           
   240                           ;initializer for _time2Zn2
   241  002270  24                 	db	36
   242  002271  24                 	db	36
   243  002272  24                 	db	36
   244  002273  24                 	db	36
   245  002274  00                 	db	0
   246                           
   247                           ;initializer for _time2Zn3
   248  002275  24                 	db	36
   249  002276  24                 	db	36
   250  002277  24                 	db	36
   251  002278  24                 	db	36
   252  002279  00                 	db	0
   253                           
   254                           ;initializer for _time3Zn1
   255  00227A  30                 	db	48
   256  00227B  30                 	db	48
   257  00227C  30                 	db	48
   258  00227D  37                 	db	55
   259  00227E  00                 	db	0
   260                           
   261                           ;initializer for _time3Zn2
   262  00227F  24                 	db	36
   263  002280  24                 	db	36
   264  002281  24                 	db	36
   265  002282  24                 	db	36
   266  002283  00                 	db	0
   267                           
   268                           ;initializer for _time3Zn3
   269  002284  24                 	db	36
   270  002285  24                 	db	36
   271  002286  24                 	db	36
   272  002287  24                 	db	36
   273  002288  00                 	db	0
   274                           
   275                           ;initializer for _dayName
   276  002289  30                 	db	48
   277  00228A  30                 	db	48
   278  00228B  30                 	db	48
   279  00228C  00                 	db	0
   280                           
   281                           ;initializer for _counterHOUR
   282  00228D  30                 	db	48
   283  00228E  30                 	db	48
   284  00228F  00                 	db	0
   285                           
   286                           ;initializer for _counterMIN
   287  002290  30                 	db	48
   288  002291  30                 	db	48
   289  002292  00                 	db	0
   290                           
   291                           ;initializer for _irrigateTimeZn1
   292  002293  30                 	db	48
   293  002294  32                 	db	50
   294  002295  00                 	db	0
   295                           
   296                           ;initializer for _irrigateTimeZn2
   297  002296  30                 	db	48
   298  002297  31                 	db	49
   299  002298  00                 	db	0
   300                           
   301                           ;initializer for _irrigateTimeZn3
   302  002299  30                 	db	48
   303  00229A  31                 	db	49
   304  00229B  00                 	db	0
   305                           
   306                           	psect	idataBANK1
   307  0022FC                     __pidataBANK1:
   308                           	opt stack 0
   309                           
   310                           ;initializer for _zoneTimes
   311  0022FC  8E                 	db	low _time1Zn1
   312  0022FD  00                 	db	high _time1Zn1
   313  0022FE  9D                 	db	low _time2Zn1
   314  0022FF  00                 	db	high _time2Zn1
   315  002300  AC                 	db	low _time3Zn1
   316  002301  00                 	db	high _time3Zn1
   317  002302  93                 	db	low _time1Zn2
   318  002303  00                 	db	high _time1Zn2
   319  002304  A2                 	db	low _time2Zn2
   320  002305  00                 	db	high _time2Zn2
   321  002306  B1                 	db	low _time3Zn2
   322  002307  00                 	db	high _time3Zn2
   323  002308  98                 	db	low _time1Zn3
   324  002309  00                 	db	high _time1Zn3
   325  00230A  A7                 	db	low _time2Zn3
   326  00230B  00                 	db	high _time2Zn3
   327  00230C  B6                 	db	low _time3Zn3
   328  00230D  00                 	db	high _time3Zn3
   329                           
   330                           ;initializer for _GREETING
   331  00230E  48                 	db	72
   332  00230F  65                 	db	101
   333  002310  6C                 	db	108
   334  002311  6C                 	db	108
   335  002312  6F                 	db	111
   336  002313  20                 	db	32
   337  002314  57                 	db	87
   338  002315  6F                 	db	111
   339  002316  72                 	db	114
   340  002317  6C                 	db	108
   341  002318  64                 	db	100
   342  002319  00                 	db	0
   343                           
   344                           ;initializer for _CASTELLO
   345  00231A  43                 	db	67
   346  00231B  61                 	db	97
   347  00231C  73                 	db	115
   348  00231D  74                 	db	116
   349  00231E  65                 	db	101
   350  00231F  6C                 	db	108
   351  002320  6C                 	db	108
   352  002321  6F                 	db	111
   353  002322  20                 	db	32
   354  002323  3C                 	db	60
   355  002324  00                 	db	0
   356                           
   357                           ;initializer for _automaticMessage
   358  002325  41                 	db	65
   359  002326  75                 	db	117
   360  002327  74                 	db	116
   361  002328  6F                 	db	111
   362  002329  6D                 	db	109
   363  00232A  61                 	db	97
   364  00232B  74                 	db	116
   365  00232C  69                 	db	105
   366  00232D  63                 	db	99
   367  00232E  20                 	db	32
   368  00232F  6D                 	db	109
   369  002330  6F                 	db	111
   370  002331  64                 	db	100
   371  002332  65                 	db	101
   372  002333  00                 	db	0
   373                           
   374                           ;initializer for _manualMessage
   375  002334  4D                 	db	77
   376  002335  61                 	db	97
   377  002336  6E                 	db	110
   378  002337  75                 	db	117
   379  002338  61                 	db	97
   380  002339  6C                 	db	108
   381  00233A  20                 	db	32
   382  00233B  6D                 	db	109
   383  00233C  6F                 	db	111
   384  00233D  64                 	db	100
   385  00233E  65                 	db	101
   386  00233F  00                 	db	0
   387                           
   388                           ;initializer for _configAutoMessage
   389  002340  48                 	db	72
   390  002341  75                 	db	117
   391  002342  6D                 	db	109
   392  002343  69                 	db	105
   393  002344  64                 	db	100
   394  002345  69                 	db	105
   395  002346  74                 	db	116
   396  002347  79                 	db	121
   397  002348  3A                 	db	58
   398  002349  20                 	db	32
   399  00234A  00                 	db	0
   400  0000                     _ADRES	set	4035
   401  0000                     _TMR0	set	4054
   402  0000                     _ADCON0	set	4034
   403  0000                     _ADCON0bits	set	4034
   404  0000                     _ADCON1	set	4033
   405  0000                     _ADCON2	set	4032
   406  0000                     _CMCON	set	4020
   407  0000                     _CVRCONbits	set	4021
   408  0000                     _INTCON2bits	set	4081
   409  0000                     _INTCONbits	set	4082
   410  0000                     _IPR1bits	set	3999
   411  0000                     _LATA	set	3977
   412  0000                     _LATB	set	3978
   413  0000                     _LATC	set	3979
   414  0000                     _LATEbits	set	3981
   415  0000                     _OSCCON	set	4051
   416  0000                     _PIE1bits	set	3997
   417  0000                     _PIR1bits	set	3998
   418  0000                     _PORTA	set	3968
   419  0000                     _PORTB	set	3969
   420  0000                     _PORTBbits	set	3969
   421  0000                     _PORTC	set	3970
   422  0000                     _PORTCbits	set	3970
   423  0000                     _PORTD	set	3971
   424  0000                     _PORTDbits	set	3971
   425  0000                     _PORTEbits	set	3972
   426  0000                     _RCONbits	set	4048
   427  0000                     _T0CON	set	4053
   428  0000                     _T0CONbits	set	4053
   429  0000                     _TRISA	set	3986
   430  0000                     _TRISAbits	set	3986
   431  0000                     _TRISB	set	3987
   432  0000                     _TRISBbits	set	3987
   433  0000                     _TRISC	set	3988
   434  0000                     _TRISD	set	3989
   435  0000                     _TRISEbits	set	3990
   436  0000                     _TMR0IE	set	32661
   437  0000                     _TMR0IF	set	32658
   438                           
   439                           	psect	smallconst
   440  000D00                     __psmallconst:
   441                           	opt stack 0
   442  000D00  00                 	db	0
   443  000D01                     STR_3:
   444  000D01  4D                 	db	77	;'M'
   445  000D02  61                 	db	97	;'a'
   446  000D03  63                 	db	99	;'c'
   447  000D04  61                 	db	97	;'a'
   448  000D05  6E                 	db	110	;'n'
   449  000D06  61                 	db	97	;'a'
   450  000D07  00                 	db	0
   451  000D08                     STR_1:
   452  000D08  52                 	db	82	;'R'
   453  000D09  69                 	db	105	;'i'
   454  000D0A  65                 	db	101	;'e'
   455  000D0B  67                 	db	103	;'g'
   456  000D0C  61                 	db	97	;'a'
   457  000D0D  00                 	db	0
   458  000D0E                     STR_2:
   459  000D0E  50                 	db	80	;'P'
   460  000D0F  65                 	db	101	;'e'
   461  000D10  6C                 	db	108	;'l'
   462  000D11  6F                 	db	111	;'o'
   463  000D12  6E                 	db	110	;'n'
   464  000D13  00                 	db	0
   465                           
   466                           ; #config settings
   467  000D14  00                 	db	0	; dummy byte at the end
   468  0000                     
   469                           	psect	cinit
   470  002134                     __pcinit:
   471                           	opt stack 0
   472  002134                     start_initialization:
   473                           	opt stack 0
   474  002134                     __initialization:
   475                           	opt stack 0
   476                           
   477                           ; Clear objects allocated to BANK0 (6 bytes)
   478  002134  0100               	movlb	0
   479  002136  6BEE               	clrf	(__pbssBANK0+5)& (0+255),b
   480  002138  6BED               	clrf	(__pbssBANK0+4)& (0+255),b
   481  00213A  6BEC               	clrf	(__pbssBANK0+3)& (0+255),b
   482  00213C  6BEB               	clrf	(__pbssBANK0+2)& (0+255),b
   483  00213E  6BEA               	clrf	(__pbssBANK0+1)& (0+255),b
   484  002140  6BE9               	clrf	__pbssBANK0& (0+255),b
   485                           
   486                           ; Clear objects allocated to COMRAM (7 bytes)
   487  002142  EE00  F03C         	lfsr	0,__pbssCOMRAM
   488  002146  0E07               	movlw	7
   489  002148                     clear_0:
   490  002148  6AEE               	clrf	postinc0,c
   491  00214A  06E8               	decf	wreg,f,c
   492  00214C  E1FD               	bnz	clear_0
   493                           
   494                           ; Initialize objects allocated to BANK1 (79 bytes)
   495                           ; load TBLPTR registers with __pidataBANK1
   496  00214E  0EFC               	movlw	low __pidataBANK1
   497  002150  6EF6               	movwf	tblptrl,c
   498  002152  0E22               	movlw	high __pidataBANK1
   499  002154  6EF7               	movwf	tblptrh,c
   500  002156  0E00               	movlw	low (__pidataBANK1 shr (0+16))
   501  002158  6EF8               	movwf	tblptru,c
   502  00215A  EE01  F000         	lfsr	0,__pdataBANK1
   503  00215E  EE10 F04F          	lfsr	1,79
   504  002162                     copy_data0:
   505  002162  0009               	tblrd		*+
   506  002164  CFF5 FFEE          	movff	tablat,postinc0
   507  002168  50E5               	movf	postdec1,w,c
   508  00216A  50E1               	movf	fsr1l,w,c
   509  00216C  E1FA               	bnz	copy_data0
   510                           
   511                           ; Initialize objects allocated to BANK0 (110 bytes)
   512                           ; load TBLPTR registers with __pidataBANK0
   513  00216E  0E2E               	movlw	low __pidataBANK0
   514  002170  6EF6               	movwf	tblptrl,c
   515  002172  0E22               	movlw	high __pidataBANK0
   516  002174  6EF7               	movwf	tblptrh,c
   517  002176  0E00               	movlw	low (__pidataBANK0 shr (0+16))
   518  002178  6EF8               	movwf	tblptru,c
   519  00217A  EE00  F060         	lfsr	0,__pdataBANK0
   520  00217E  EE10 F06E          	lfsr	1,110
   521  002182                     copy_data1:
   522  002182  0009               	tblrd		*+
   523  002184  CFF5 FFEE          	movff	tablat,postinc0
   524  002188  50E5               	movf	postdec1,w,c
   525  00218A  50E1               	movf	fsr1l,w,c
   526  00218C  E1FA               	bnz	copy_data1
   527                           
   528                           ; Initialize objects allocated to COMRAM (28 bytes)
   529                           ; load TBLPTR registers with __pidataCOMRAM
   530  00218E  0E50               	movlw	low __pidataCOMRAM
   531  002190  6EF6               	movwf	tblptrl,c
   532  002192  0E26               	movlw	high __pidataCOMRAM
   533  002194  6EF7               	movwf	tblptrh,c
   534  002196  0E00               	movlw	low (__pidataCOMRAM shr (0+16))
   535  002198  6EF8               	movwf	tblptru,c
   536  00219A  EE00  F020         	lfsr	0,__pdataCOMRAM
   537  00219E  EE10 F01C          	lfsr	1,28
   538  0021A2                     copy_data2:
   539  0021A2  0009               	tblrd		*+
   540  0021A4  CFF5 FFEE          	movff	tablat,postinc0
   541  0021A8  50E5               	movf	postdec1,w,c
   542  0021AA  50E1               	movf	fsr1l,w,c
   543  0021AC  E1FA               	bnz	copy_data2
   544  0021AE                     end_of_initialization:
   545                           	opt stack 0
   546  0021AE                     __end_of__initialization:
   547                           	opt stack 0
   548  0021AE  9043               	bcf	int$flags,0,c	;clear compiler interrupt flag (level 1)
   549  0021B0  9243               	bcf	int$flags,1,c	;clear compiler interrupt flag (level 2)
   550  0021B2  0E00               	movlw	low (__Lmediumconst shr (0+16))
   551  0021B4  6EF8               	movwf	tblptru,c
   552  0021B6  0100               	movlb	0
   553  0021B8  EFEB  F00D         	goto	_main	;jump to C main() function
   554                           tblptru	equ	0xFF8
   555                           tblptrh	equ	0xFF7
   556                           tblptrl	equ	0xFF6
   557                           tablat	equ	0xFF5
   558                           postinc0	equ	0xFEE
   559                           wreg	equ	0xFE8
   560                           postdec1	equ	0xFE5
   561                           fsr1l	equ	0xFE1
   562                           
   563                           	psect	bssCOMRAM
   564  00003C                     __pbssCOMRAM:
   565                           	opt stack 0
   566  00003C                     _columnSelected:
   567                           	opt stack 0
   568  00003C                     	ds	1
   569  00003D                     _getValueStatus:
   570                           	opt stack 0
   571  00003D                     	ds	1
   572  00003E                     _hourConfiguration:
   573                           	opt stack 0
   574  00003E                     	ds	1
   575  00003F                     _irrigateManualStatus:
   576                           	opt stack 0
   577  00003F                     	ds	1
   578  000040                     _keyCode:
   579                           	opt stack 0
   580  000040                     	ds	1
   581  000041                     _oneShotFlag:
   582                           	opt stack 0
   583  000041                     	ds	1
   584  000042                     _rowSelected:
   585                           	opt stack 0
   586  000042                     	ds	1
   587                           tblptru	equ	0xFF8
   588                           tblptrh	equ	0xFF7
   589                           tblptrl	equ	0xFF6
   590                           tablat	equ	0xFF5
   591                           postinc0	equ	0xFEE
   592                           wreg	equ	0xFE8
   593                           postdec1	equ	0xFE5
   594                           fsr1l	equ	0xFE1
   595                           
   596                           	psect	dataCOMRAM
   597  000020                     __pdataCOMRAM:
   598                           	opt stack 0
   599  000020                     _counterDAYS:
   600                           	opt stack 0
   601  000020                     	ds	1
   602  000021                     _counterSEC:
   603                           	opt stack 0
   604  000021                     	ds	1
   605  000022                     _timerMessage:
   606                           	opt stack 0
   607  000022                     	ds	11
   608  00002D                     _humidityZn1Val:
   609                           	opt stack 0
   610  00002D                     	ds	3
   611  000030                     _humidityZn2Val:
   612                           	opt stack 0
   613  000030                     	ds	3
   614  000033                     _humidityZn3Val:
   615                           	opt stack 0
   616  000033                     	ds	3
   617  000036                     _humidityZn1ValInt:
   618                           	opt stack 0
   619  000036                     	ds	1
   620  000037                     _humidityZn2ValInt:
   621                           	opt stack 0
   622  000037                     	ds	1
   623  000038                     _humidityZn3ValInt:
   624                           	opt stack 0
   625  000038                     	ds	1
   626  000039                     _manualZn1Val:
   627                           	opt stack 0
   628  000039                     	ds	1
   629  00003A                     _manualZn2Val:
   630                           	opt stack 0
   631  00003A                     	ds	1
   632  00003B                     _manualZn3Val:
   633                           	opt stack 0
   634  00003B                     	ds	1
   635                           tblptru	equ	0xFF8
   636                           tblptrh	equ	0xFF7
   637                           tblptrl	equ	0xFF6
   638                           tablat	equ	0xFF5
   639                           postinc0	equ	0xFEE
   640                           wreg	equ	0xFE8
   641                           postdec1	equ	0xFE5
   642                           fsr1l	equ	0xFE1
   643                           
   644                           	psect	bssBANK0
   645  0000E9                     __pbssBANK0:
   646                           	opt stack 0
   647  0000E9                     _humidityZnValInt:
   648                           	opt stack 0
   649  0000E9                     	ds	2
   650  0000EB                     _zoneSelected:
   651                           	opt stack 0
   652  0000EB                     	ds	2
   653  0000ED                     _modeSelected:
   654                           	opt stack 0
   655  0000ED                     	ds	1
   656  0000EE                     _statusConfiguration:
   657                           	opt stack 0
   658  0000EE                     	ds	1
   659                           tblptru	equ	0xFF8
   660                           tblptrh	equ	0xFF7
   661                           tblptrl	equ	0xFF6
   662                           tablat	equ	0xFF5
   663                           postinc0	equ	0xFEE
   664                           wreg	equ	0xFE8
   665                           postdec1	equ	0xFE5
   666                           fsr1l	equ	0xFE1
   667                           
   668                           	psect	dataBANK0
   669  000060                     __pdataBANK0:
   670                           	opt stack 0
   671  000060                     _humidityZnValuesInt:
   672                           	opt stack 0
   673  000060                     	ds	6
   674  000066                     _zoneEndTimes:
   675                           	opt stack 0
   676  000066                     	ds	6
   677  00006C                     _CONVERSIONRATE:
   678                           	opt stack 0
   679  00006C                     	ds	3
   680  00006F                     _manualInactiveMessage:
   681                           	opt stack 0
   682  00006F                     	ds	9
   683  000078                     _manualActiveMessage:
   684                           	opt stack 0
   685  000078                     	ds	7
   686  00007F                     _endTimeZn1:
   687                           	opt stack 0
   688  00007F                     	ds	5
   689  000084                     _endTimeZn2:
   690                           	opt stack 0
   691  000084                     	ds	5
   692  000089                     _endTimeZn3:
   693                           	opt stack 0
   694  000089                     	ds	5
   695  00008E                     _time1Zn1:
   696                           	opt stack 0
   697  00008E                     	ds	5
   698  000093                     _time1Zn2:
   699                           	opt stack 0
   700  000093                     	ds	5
   701  000098                     _time1Zn3:
   702                           	opt stack 0
   703  000098                     	ds	5
   704  00009D                     _time2Zn1:
   705                           	opt stack 0
   706  00009D                     	ds	5
   707  0000A2                     _time2Zn2:
   708                           	opt stack 0
   709  0000A2                     	ds	5
   710  0000A7                     _time2Zn3:
   711                           	opt stack 0
   712  0000A7                     	ds	5
   713  0000AC                     _time3Zn1:
   714                           	opt stack 0
   715  0000AC                     	ds	5
   716  0000B1                     _time3Zn2:
   717                           	opt stack 0
   718  0000B1                     	ds	5
   719  0000B6                     _time3Zn3:
   720                           	opt stack 0
   721  0000B6                     	ds	5
   722  0000BB                     _dayName:
   723                           	opt stack 0
   724  0000BB                     	ds	4
   725  0000BF                     _counterHOUR:
   726                           	opt stack 0
   727  0000BF                     	ds	3
   728  0000C2                     _counterMIN:
   729                           	opt stack 0
   730  0000C2                     	ds	3
   731  0000C5                     _irrigateTimeZn1:
   732                           	opt stack 0
   733  0000C5                     	ds	3
   734  0000C8                     _irrigateTimeZn2:
   735                           	opt stack 0
   736  0000C8                     	ds	3
   737  0000CB                     _irrigateTimeZn3:
   738                           	opt stack 0
   739  0000CB                     	ds	3
   740                           tblptru	equ	0xFF8
   741                           tblptrh	equ	0xFF7
   742                           tblptrl	equ	0xFF6
   743                           tablat	equ	0xFF5
   744                           postinc0	equ	0xFEE
   745                           wreg	equ	0xFE8
   746                           postdec1	equ	0xFE5
   747                           fsr1l	equ	0xFE1
   748                           
   749                           	psect	dataBANK1
   750  000100                     __pdataBANK1:
   751                           	opt stack 0
   752  000100                     _zoneTimes:
   753                           	opt stack 0
   754  000100                     	ds	18
   755  000112                     _GREETING:
   756                           	opt stack 0
   757  000112                     	ds	12
   758  00011E                     _CASTELLO:
   759                           	opt stack 0
   760  00011E                     	ds	11
   761  000129                     _automaticMessage:
   762                           	opt stack 0
   763  000129                     	ds	15
   764  000138                     _manualMessage:
   765                           	opt stack 0
   766  000138                     	ds	12
   767  000144                     _configAutoMessage:
   768                           	opt stack 0
   769  000144                     	ds	11
   770                           tblptru	equ	0xFF8
   771                           tblptrh	equ	0xFF7
   772                           tblptrl	equ	0xFF6
   773                           tablat	equ	0xFF5
   774                           postinc0	equ	0xFEE
   775                           wreg	equ	0xFE8
   776                           postdec1	equ	0xFE5
   777                           fsr1l	equ	0xFE1
   778                           
   779                           	psect	cstackBANK1
   780  00014F                     __pcstackBANK1:
   781                           	opt stack 0
   782  00014F                     ??_automaticConfiguration:
   783  00014F                     ?___ftmul:
   784                           	opt stack 0
   785  00014F                     ___ftmul@f1:
   786                           	opt stack 0
   787                           
   788                           ; 3 bytes @ 0x0
   789  00014F                     	ds	1
   790  000150                     automaticConfiguration@counter:
   791                           	opt stack 0
   792  000150                     manualConfiguration@input:
   793                           	opt stack 0
   794  000150                     workingTimer@j:
   795                           	opt stack 0
   796                           
   797                           ; 1 bytes @ 0x1
   798  000150                     	ds	1
   799  000151                     automaticConfiguration@input:
   800                           	opt stack 0
   801  000151                     workingTimer@i_1203:
   802                           	opt stack 0
   803                           
   804                           ; 1 bytes @ 0x2
   805  000151                     	ds	1
   806  000152                     workingTimer@endTimeZn:
   807                           	opt stack 0
   808  000152                     ___ftmul@f2:
   809                           	opt stack 0
   810                           
   811                           ; 3 bytes @ 0x3
   812  000152                     	ds	2
   813  000154                     workingTimer@i:
   814                           	opt stack 0
   815                           
   816                           ; 1 bytes @ 0x5
   817  000154                     	ds	1
   818  000155                     ??___ftmul:
   819  000155                     workingTimer@zoneTime:
   820                           	opt stack 0
   821                           
   822                           ; 2 bytes @ 0x6
   823  000155                     	ds	3
   824  000158                     ___ftmul@exp:
   825                           	opt stack 0
   826                           
   827                           ; 1 bytes @ 0x9
   828  000158                     	ds	1
   829  000159                     ___ftmul@f3_as_product:
   830                           	opt stack 0
   831                           
   832                           ; 3 bytes @ 0xA
   833  000159                     	ds	3
   834  00015C                     ___ftmul@cntr:
   835                           	opt stack 0
   836                           
   837                           ; 1 bytes @ 0xD
   838  00015C                     	ds	1
   839  00015D                     ___ftmul@sign:
   840                           	opt stack 0
   841                           
   842                           ; 1 bytes @ 0xE
   843  00015D                     	ds	1
   844  00015E                     ___ftge@ff1:
   845                           	opt stack 0
   846                           
   847                           ; 3 bytes @ 0xF
   848  00015E                     	ds	3
   849  000161                     ___ftge@ff2:
   850                           	opt stack 0
   851                           
   852                           ; 3 bytes @ 0x12
   853  000161                     	ds	3
   854  000164                     ??___ftge:
   855                           
   856                           ; 1 bytes @ 0x15
   857  000164                     	ds	3
   858  000167                     ??_workingAutomatic:
   859                           
   860                           ; 1 bytes @ 0x18
   861  000167                     	ds	2
   862  000169                     workingAutomatic@i:
   863                           	opt stack 0
   864                           
   865                           ; 1 bytes @ 0x1A
   866  000169                     	ds	1
   867                           tblptru	equ	0xFF8
   868                           tblptrh	equ	0xFF7
   869                           tblptrl	equ	0xFF6
   870                           tablat	equ	0xFF5
   871                           postinc0	equ	0xFEE
   872                           wreg	equ	0xFE8
   873                           postdec1	equ	0xFE5
   874                           fsr1l	equ	0xFE1
   875                           
   876                           	psect	cstackBANK0
   877  0000CE                     __pcstackBANK0:
   878                           	opt stack 0
   879  0000CE                     ??_ISRL:
   880                           
   881                           ; 1 bytes @ 0x0
   882  0000CE                     	ds	17
   883  0000DF                     ?___awmod:
   884                           	opt stack 0
   885  0000DF                     ?___ftpack:
   886                           	opt stack 0
   887  0000DF                     timerConfiguration@input:
   888                           	opt stack 0
   889  0000DF                     convertCharsToInt@units:
   890                           	opt stack 0
   891  0000DF                     displayLineOnLCD@array:
   892                           	opt stack 0
   893  0000DF                     clearEndTimes@zoneEndTime:
   894                           	opt stack 0
   895  0000DF                     ___awmod@dividend:
   896                           	opt stack 0
   897  0000DF                     ___ftpack@arg:
   898                           	opt stack 0
   899                           
   900                           ; 3 bytes @ 0x11
   901  0000DF                     	ds	1
   902  0000E0                     convertCharsToInt@dozens:
   903                           	opt stack 0
   904                           
   905                           ; 1 bytes @ 0x12
   906  0000E0                     	ds	1
   907  0000E1                     displayLineOnLCD@sizeOfArray:
   908                           	opt stack 0
   909  0000E1                     clearEndTimes@i:
   910                           	opt stack 0
   911  0000E1                     ___awmod@divisor:
   912                           	opt stack 0
   913                           
   914                           ; 2 bytes @ 0x13
   915  0000E1                     	ds	1
   916  0000E2                     ??_displayLineOnLCD:
   917  0000E2                     clearEndTimes@j:
   918                           	opt stack 0
   919  0000E2                     ___ftpack@exp:
   920                           	opt stack 0
   921                           
   922                           ; 1 bytes @ 0x14
   923  0000E2                     	ds	1
   924  0000E3                     ___ftpack@sign:
   925                           	opt stack 0
   926  0000E3                     updateEndTime@endTimeZn:
   927                           	opt stack 0
   928                           
   929                           ; 2 bytes @ 0x15
   930  0000E3                     	ds	1
   931  0000E4                     ?___lbtoft:
   932                           	opt stack 0
   933  0000E4                     ?___lwtoft:
   934                           	opt stack 0
   935  0000E4                     ___lwtoft@c:
   936                           	opt stack 0
   937                           
   938                           ; 2 bytes @ 0x16
   939  0000E4                     	ds	1
   940  0000E5                     updateEndTime@zoneTime:
   941                           	opt stack 0
   942                           
   943                           ; 2 bytes @ 0x17
   944  0000E5                     	ds	2
   945  0000E7                     ___lbtoft@c:
   946                           	opt stack 0
   947  0000E7                     updateEndTime@irrigateTimeZn:
   948                           	opt stack 0
   949                           
   950                           ; 2 bytes @ 0x19
   951  0000E7                     	ds	2
   952                           tblptru	equ	0xFF8
   953                           tblptrh	equ	0xFF7
   954                           tblptrl	equ	0xFF6
   955                           tablat	equ	0xFF5
   956                           postinc0	equ	0xFEE
   957                           wreg	equ	0xFE8
   958                           postdec1	equ	0xFE5
   959                           fsr1l	equ	0xFE1
   960                           
   961                           	psect	cstackCOMRAM
   962  000001                     __pcstackCOMRAM:
   963                           	opt stack 0
   964  000001                     ??i2_delay:
   965  000001                     i2shortDelay@L1REG:
   966                           	opt stack 0
   967  000001                     i2determinePressedRow@i:
   968                           	opt stack 0
   969  000001                     i2startIrrigation@zone:
   970                           	opt stack 0
   971  000001                     i2stopIrrigation@zone:
   972                           	opt stack 0
   973                           
   974                           ; 1 bytes @ 0x0
   975  000001                     	ds	1
   976  000002                     i2command@x:
   977                           	opt stack 0
   978  000002                     i2displayCharOnLCD@character:
   979                           	opt stack 0
   980  000002                     i2delay@L1REG:
   981                           	opt stack 0
   982                           
   983                           ; 1 bytes @ 0x1
   984  000002                     	ds	1
   985  000003                     i2delay@L2REG:
   986                           	opt stack 0
   987  000003                     i2displayLineOnLCD@array:
   988                           	opt stack 0
   989                           
   990                           ; 2 bytes @ 0x2
   991  000003                     	ds	1
   992  000004                     
   993                           ; 1 bytes @ 0x3
   994  000004                     	ds	1
   995  000005                     i2displayLineOnLCD@sizeOfArray:
   996                           	opt stack 0
   997                           
   998                           ; 1 bytes @ 0x4
   999  000005                     	ds	1
  1000  000006                     ??i2_displayLineOnLCD:
  1001                           
  1002                           ; 1 bytes @ 0x5
  1003  000006                     	ds	7
  1004  00000D                     i2displayLineOnLCD@i:
  1005                           	opt stack 0
  1006                           
  1007                           ; 1 bytes @ 0xC
  1008  00000D                     	ds	1
  1009  00000E                     pressedKeyAction@keyCode:
  1010                           	opt stack 0
  1011                           
  1012                           ; 1 bytes @ 0xD
  1013  00000E                     	ds	1
  1014  00000F                     ??_ISRH:
  1015                           
  1016                           ; 1 bytes @ 0xE
  1017  00000F                     	ds	14
  1018  00001D                     ??_delay:
  1019  00001D                     ??___ftpack:
  1020  00001D                     shortDelay@L1REG:
  1021                           	opt stack 0
  1022  00001D                     longDelay@L1REG:
  1023                           	opt stack 0
  1024  00001D                     determinePressedRow@i:
  1025                           	opt stack 0
  1026  00001D                     startIrrigation@zone:
  1027                           	opt stack 0
  1028  00001D                     stopIrrigation@zone:
  1029                           	opt stack 0
  1030  00001D                     startAC@acChannel:
  1031                           	opt stack 0
  1032  00001D                     ___awmod@counter:
  1033                           	opt stack 0
  1034  00001D                     convertCharsToInt@humidityValue:
  1035                           	opt stack 0
  1036                           
  1037                           ; 2 bytes @ 0x1C
  1038  00001D                     	ds	1
  1039  00001E                     longDelay@L2REG:
  1040                           	opt stack 0
  1041  00001E                     command@x:
  1042                           	opt stack 0
  1043  00001E                     displayCharOnLCD@character:
  1044                           	opt stack 0
  1045  00001E                     delay@L1REG:
  1046                           	opt stack 0
  1047  00001E                     ___awmod@sign:
  1048                           	opt stack 0
  1049                           
  1050                           ; 1 bytes @ 0x1D
  1051  00001E                     	ds	1
  1052  00001F                     ??_updateEndTime:
  1053  00001F                     longDelay@L3REG:
  1054                           	opt stack 0
  1055  00001F                     displayLineOnLCD@i:
  1056                           	opt stack 0
  1057  00001F                     delay@L2REG:
  1058                           	opt stack 0
  1059                           
  1060                           ; 1 bytes @ 0x1E
  1061  00001F                     	ds	1
  1062  000020                     tblptru	equ	0xFF8
  1063                           tblptrh	equ	0xFF7
  1064                           tblptrl	equ	0xFF6
  1065                           tablat	equ	0xFF5
  1066                           postinc0	equ	0xFEE
  1067                           wreg	equ	0xFE8
  1068                           postdec1	equ	0xFE5
  1069                           fsr1l	equ	0xFE1
  1070                           
  1071                           ; 1 bytes @ 0x1F
  1072 ;;
  1073 ;;Main: autosize = 0, tempsize = 0, incstack = 0, save=0
  1074 ;;
  1075 ;; *************** function _main *****************
  1076 ;; Defined at:
  1077 ;;		line 256 in file "SysRiego.c"
  1078 ;; Parameters:    Size  Location     Type
  1079 ;;		None
  1080 ;; Auto vars:     Size  Location     Type
  1081 ;;		None
  1082 ;; Return value:  Size  Location     Type
  1083 ;;                  1    wreg      void 
  1084 ;; Registers used:
  1085 ;;		wreg, fsr0l, fsr0h, fsr1l, fsr1h, fsr2l, fsr2h, status,2, status,0, tblptrl, tblptrh, tblptru, prodl, prodh, cstack
  1086 ;; Tracked objects:
  1087 ;;		On entry : 0/0
  1088 ;;		On exit  : 0/0
  1089 ;;		Unchanged: 0/0
  1090 ;; Data sizes:     COMRAM   BANK0   BANK1   BANK2   BANK3   BANK4   BANK5   BANK6   BANK7   BANK8   BANK9  BANK10  BANK1
      +1  BANK12
  1091 ;;      Params:         0       0       0       0       0       0       0       0       0       0       0       0       
      +0       0
  1092 ;;      Locals:         0       0       0       0       0       0       0       0       0       0       0       0       
      +0       0
  1093 ;;      Temps:          0       0       0       0       0       0       0       0       0       0       0       0       
      +0       0
  1094 ;;      Totals:         0       0       0       0       0       0       0       0       0       0       0       0       
      +0       0
  1095 ;;Total ram usage:        0 bytes
  1096 ;; Hardware stack levels required when called:   14
  1097 ;; This function calls:
  1098 ;;		_LCDSetup
  1099 ;;		_automaticConfiguration
  1100 ;;		_manualConfiguration
  1101 ;;		_portDAsOutput
  1102 ;;		_timerConfiguration
  1103 ;;		_workingAutomatic
  1104 ;;		_workingManual
  1105 ;;		_workingTimer
  1106 ;; This function is called by:
  1107 ;;		Startup code after reset
  1108 ;; This function uses a non-reentrant model
  1109 ;;
  1110                           
  1111                           	psect	text0
  1112  001BD6                     __ptext0:
  1113                           	opt stack 0
  1114  001BD6                     _main:
  1115                           	opt stack 17
  1116                           
  1117                           ;SysRiego.c: 259: OSCCON = 0x60;
  1118                           
  1119                           ;incstack = 0
  1120  001BD6  0E60               	movlw	96
  1121  001BD8  6ED3               	movwf	4051,c	;volatile
  1122                           
  1123                           ;SysRiego.c: 263: CMCON = 0x07;
  1124  001BDA  0E07               	movlw	7
  1125  001BDC  6EB4               	movwf	4020,c	;volatile
  1126                           
  1127                           ;SysRiego.c: 264: CVRCONbits.CVREN = 0;
  1128  001BDE  9EB5               	bcf	4021,7,c	;volatile
  1129                           
  1130                           ;SysRiego.c: 265: ADCON1 = 0x0F;
  1131  001BE0  0E0F               	movlw	15
  1132  001BE2  6EC1               	movwf	4033,c	;volatile
  1133                           
  1134                           ;SysRiego.c: 267: PORTB = 0X00;
  1135  001BE4  0E00               	movlw	0
  1136  001BE6  6E81               	movwf	3969,c	;volatile
  1137                           
  1138                           ;SysRiego.c: 268: LATB = 0X00;
  1139  001BE8  0E00               	movlw	0
  1140  001BEA  6E8A               	movwf	3978,c	;volatile
  1141                           
  1142                           ;SysRiego.c: 269: TRISB = 0XFF;
  1143  001BEC  6893               	setf	3987,c	;volatile
  1144                           
  1145                           ;SysRiego.c: 271: PORTC = 0X00;
  1146  001BEE  0E00               	movlw	0
  1147  001BF0  6E82               	movwf	3970,c	;volatile
  1148                           
  1149                           ;SysRiego.c: 272: LATC = 0X00;
  1150  001BF2  0E00               	movlw	0
  1151  001BF4  6E8B               	movwf	3979,c	;volatile
  1152                           
  1153                           ;SysRiego.c: 273: TRISC = 0X00;
  1154  001BF6  0E00               	movlw	0
  1155  001BF8  6E94               	movwf	3988,c	;volatile
  1156                           
  1157                           ;SysRiego.c: 276: TRISBbits.RB0 = 0;
  1158  001BFA  9093               	bcf	3987,0,c	;volatile
  1159                           
  1160                           ;SysRiego.c: 277: TRISBbits.RB1 = 0;
  1161  001BFC  9293               	bcf	3987,1,c	;volatile
  1162                           
  1163                           ;SysRiego.c: 278: TRISBbits.RB2 = 0;
  1164  001BFE  9493               	bcf	3987,2,c	;volatile
  1165                           
  1166                           ;SysRiego.c: 279: TRISBbits.RB3 = 0;
  1167  001C00  9693               	bcf	3987,3,c	;volatile
  1168                           
  1169                           ;SysRiego.c: 281: PORTEbits.RE0 = 0;
  1170  001C02  9084               	bcf	3972,0,c	;volatile
  1171                           
  1172                           ;SysRiego.c: 282: PORTEbits.RE1 = 0;
  1173  001C04  9284               	bcf	3972,1,c	;volatile
  1174                           
  1175                           ;SysRiego.c: 283: PORTEbits.RE2 = 0;
  1176  001C06  9484               	bcf	3972,2,c	;volatile
  1177                           
  1178                           ;SysRiego.c: 285: LATEbits.LATE0 = 0;
  1179  001C08  908D               	bcf	3981,0,c	;volatile
  1180                           
  1181                           ;SysRiego.c: 286: LATEbits.LATE1 = 0;
  1182  001C0A  928D               	bcf	3981,1,c	;volatile
  1183                           
  1184                           ;SysRiego.c: 287: LATEbits.LATE2 = 0;
  1185  001C0C  948D               	bcf	3981,2,c	;volatile
  1186                           
  1187                           ;SysRiego.c: 289: TRISEbits.RE0 = 0;
  1188  001C0E  9096               	bcf	3990,0,c	;volatile
  1189                           
  1190                           ;SysRiego.c: 290: TRISEbits.RE1 = 0;
  1191  001C10  9296               	bcf	3990,1,c	;volatile
  1192                           
  1193                           ;SysRiego.c: 291: TRISEbits.RE2 = 0;
  1194  001C12  9496               	bcf	3990,2,c	;volatile
  1195                           
  1196                           ;SysRiego.c: 295: RCONbits.IPEN = 1;
  1197  001C14  8ED0               	bsf	4048,7,c	;volatile
  1198                           
  1199                           ;SysRiego.c: 298: INTCONbits.GIEH = 1;
  1200  001C16  8EF2               	bsf	intcon,7,c	;volatile
  1201                           
  1202                           ;SysRiego.c: 301: INTCONbits.GIEL = 1;
  1203  001C18  8CF2               	bsf	intcon,6,c	;volatile
  1204                           
  1205                           ;SysRiego.c: 304: INTCON2bits.RBPU = 0;
  1206  001C1A  9EF1               	bcf	intcon2,7,c	;volatile
  1207                           
  1208                           ;SysRiego.c: 307: INTCONbits.RBIE = 1;
  1209  001C1C  86F2               	bsf	intcon,3,c	;volatile
  1210                           
  1211                           ;SysRiego.c: 310: INTCONbits.RBIF = 0;
  1212  001C1E  90F2               	bcf	intcon,0,c	;volatile
  1213                           
  1214                           ;SysRiego.c: 313: INTCON2bits.RBIP = 1;
  1215  001C20  80F1               	bsf	intcon2,0,c	;volatile
  1216                           
  1217                           ;SysRiego.c: 316: portDAsOutput();
  1218  001C22  EC34  F014         	call	_portDAsOutput	;wreg free
  1219                           
  1220                           ;SysRiego.c: 319: LCDSetup();
  1221  001C26  ECE0  F012         	call	_LCDSetup	;wreg free
  1222                           
  1223                           ;SysRiego.c: 328: modeSelected = 0;
  1224  001C2A  0E00               	movlw	0
  1225  001C2C  0100               	movlb	0	; () banked
  1226  001C2E  6FED               	movwf	_modeSelected& (0+255),b
  1227                           
  1228                           ; BSR set to: 0
  1229                           ;SysRiego.c: 330: getValueStatus = 0;
  1230  001C30  0E00               	movlw	0
  1231  001C32  6E3D               	movwf	_getValueStatus,c
  1232                           
  1233                           ; BSR set to: 0
  1234                           ;SysRiego.c: 331: statusConfiguration = 0;
  1235  001C34  0E00               	movlw	0
  1236  001C36  0100               	movlb	0	; () banked
  1237  001C38  6FEE               	movwf	_statusConfiguration& (0+255),b
  1238                           
  1239                           ; BSR set to: 0
  1240                           ;SysRiego.c: 332: oneShotFlag = 0;
  1241  001C3A  0E00               	movlw	0
  1242  001C3C  6E41               	movwf	_oneShotFlag,c
  1243                           
  1244                           ; BSR set to: 0
  1245                           ;SysRiego.c: 336: INTCON2bits.TMR0IP = 1;
  1246  001C3E  84F1               	bsf	intcon2,2,c	;volatile
  1247                           
  1248                           ; BSR set to: 0
  1249                           ;SysRiego.c: 339: INTCONbits.TMR0IE = 1;
  1250  001C40  8AF2               	bsf	intcon,5,c	;volatile
  1251                           
  1252                           ; BSR set to: 0
  1253                           ;SysRiego.c: 343: T0CON = 0x07;
  1254  001C42  0E07               	movlw	7
  1255  001C44  6ED5               	movwf	4053,c	;volatile
  1256                           
  1257                           ; BSR set to: 0
  1258                           ;SysRiego.c: 347: TMR0 = 0x3A98;
  1259  001C46  0E3A               	movlw	58
  1260  001C48  6ED7               	movwf	4055,c	;volatile
  1261  001C4A  0E98               	movlw	152
  1262  001C4C  6ED6               	movwf	4054,c	;volatile
  1263                           
  1264                           ; BSR set to: 0
  1265                           ;SysRiego.c: 349: T0CONbits.TMR0ON = 1;
  1266  001C4E  8ED5               	bsf	4053,7,c	;volatile
  1267                           
  1268                           ; BSR set to: 0
  1269                           ;SysRiego.c: 353: CMCON = 0xFF;
  1270  001C50  68B4               	setf	4020,c	;volatile
  1271                           
  1272                           ; BSR set to: 0
  1273                           ;SysRiego.c: 356: ADCON1 = 0x0C;
  1274  001C52  0E0C               	movlw	12
  1275  001C54  6EC1               	movwf	4033,c	;volatile
  1276                           
  1277                           ; BSR set to: 0
  1278                           ;SysRiego.c: 357: ADCON2 = 0x95;
  1279  001C56  0E95               	movlw	149
  1280  001C58  6EC0               	movwf	4032,c	;volatile
  1281  001C5A                     l5346:
  1282                           
  1283                           ;SysRiego.c: 363: if(statusConfiguration == 0) {
  1284  001C5A  0100               	movlb	0	; () banked
  1285  001C5C  51EE               	movf	_statusConfiguration& (0+255),w,b
  1286  001C5E  B4D8               	btfsc	status,2,c
  1287  001C60  D00A               	goto	l5358
  1288  001C62  D01E               	goto	l5368
  1289  001C64                     l5350:
  1290                           
  1291                           ; BSR set to: 0
  1292                           ;SysRiego.c: 367: workingAutomatic();
  1293  001C64  EC5C  F00E         	call	_workingAutomatic	;wreg free
  1294                           
  1295                           ;SysRiego.c: 368: break;
  1296  001C68  D7F8               	goto	l5346
  1297  001C6A                     l5352:
  1298                           
  1299                           ;SysRiego.c: 371: workingTimer();
  1300  001C6A  ECDF  F007         	call	_workingTimer	;wreg free
  1301                           
  1302                           ;SysRiego.c: 372: break;
  1303  001C6E  D7F5               	goto	l5346
  1304  001C70                     l5354:
  1305                           
  1306                           ;SysRiego.c: 375: workingManual();
  1307  001C70  EC03  F012         	call	_workingManual	;wreg free
  1308                           
  1309                           ;SysRiego.c: 378: }
  1310                           
  1311                           ;SysRiego.c: 376: break;
  1312  001C74  D7F2               	goto	l5346
  1313  001C76                     l5358:
  1314  001C76  0100               	movlb	0	; () banked
  1315  001C78  51ED               	movf	_modeSelected& (0+255),w,b
  1316                           
  1317                           ; Switch size 1, requested type "space"
  1318                           ; Number of cases is 3, Range of values is 0 to 2
  1319                           ; switch strategies available:
  1320                           ; Name         Instructions Cycles
  1321                           ; simple_byte           10     6 (average)
  1322                           ;	Chosen strategy is simple_byte
  1323  001C7A  0A00               	xorlw	0	; case 0
  1324  001C7C  B4D8               	btfsc	status,2,c
  1325  001C7E  D7F2               	goto	l5350
  1326  001C80  0A01               	xorlw	1	; case 1
  1327  001C82  B4D8               	btfsc	status,2,c
  1328  001C84  D7F2               	goto	l5352
  1329  001C86  0A03               	xorlw	3	; case 2
  1330  001C88  B4D8               	btfsc	status,2,c
  1331  001C8A  D7F2               	goto	l5354
  1332                           
  1333                           ; BSR set to: 0
  1334                           ;SysRiego.c: 379: }
  1335  001C8C  D7E6               	goto	l5346
  1336  001C8E                     l5360:
  1337                           
  1338                           ; BSR set to: 0
  1339                           ;SysRiego.c: 385: automaticConfiguration();
  1340  001C8E  EC77  F00D         	call	_automaticConfiguration	;wreg free
  1341                           
  1342                           ;SysRiego.c: 386: break;
  1343  001C92  D7E3               	goto	l5346
  1344  001C94                     l5362:
  1345                           
  1346                           ;SysRiego.c: 389: timerConfiguration();
  1347  001C94  EC7A  F012         	call	_timerConfiguration	;wreg free
  1348                           
  1349                           ;SysRiego.c: 390: break;
  1350  001C98  D7E0               	goto	l5346
  1351  001C9A                     l5364:
  1352                           
  1353                           ;SysRiego.c: 393: manualConfiguration();
  1354  001C9A  EC78  F00C         	call	_manualConfiguration	;wreg free
  1355                           
  1356                           ;SysRiego.c: 396: }
  1357                           
  1358                           ;SysRiego.c: 394: break;
  1359  001C9E  D7DD               	goto	l5346
  1360  001CA0                     l5368:
  1361  001CA0  0100               	movlb	0	; () banked
  1362  001CA2  51ED               	movf	_modeSelected& (0+255),w,b
  1363                           
  1364                           ; Switch size 1, requested type "space"
  1365                           ; Number of cases is 3, Range of values is 0 to 2
  1366                           ; switch strategies available:
  1367                           ; Name         Instructions Cycles
  1368                           ; simple_byte           10     6 (average)
  1369                           ;	Chosen strategy is simple_byte
  1370  001CA4  0A00               	xorlw	0	; case 0
  1371  001CA6  B4D8               	btfsc	status,2,c
  1372  001CA8  D7F2               	goto	l5360
  1373  001CAA  0A01               	xorlw	1	; case 1
  1374  001CAC  B4D8               	btfsc	status,2,c
  1375  001CAE  D7F2               	goto	l5362
  1376  001CB0  0A03               	xorlw	3	; case 2
  1377  001CB2  B4D8               	btfsc	status,2,c
  1378  001CB4  D7F2               	goto	l5364
  1379                           
  1380                           ; BSR set to: 0
  1381                           
  1382                           ; BSR set to: 0
  1383                           
  1384                           ; BSR set to: 0
  1385  001CB6  D7D1               	goto	l5346
  1386  001CB8                     __end_of_main:
  1387                           	opt stack 0
  1388                           tblptru	equ	0xFF8
  1389                           tblptrh	equ	0xFF7
  1390                           tblptrl	equ	0xFF6
  1391                           tablat	equ	0xFF5
  1392                           intcon	equ	0xFF2
  1393                           intcon2	equ	0xFF1
  1394                           postinc0	equ	0xFEE
  1395                           wreg	equ	0xFE8
  1396                           postdec1	equ	0xFE5
  1397                           fsr1l	equ	0xFE1
  1398                           status	equ	0xFD8
  1399                           
  1400 ;; *************** function _workingTimer *****************
  1401 ;; Defined at:
  1402 ;;		line 668 in file "SysRiego.c"
  1403 ;; Parameters:    Size  Location     Type
  1404 ;;		None
  1405 ;; Auto vars:     Size  Location     Type
  1406 ;;  j               1    1[BANK1 ] unsigned char 
  1407 ;;  endTimeZn       2    3[BANK1 ] PTR unsigned char 
  1408 ;;		 -> endTimeZn3(5), endTimeZn2(5), endTimeZn1(5), 
  1409 ;;  i               1    2[BANK1 ] unsigned char 
  1410 ;;  i               1    5[BANK1 ] unsigned char 
  1411 ;;  zoneTime        2    6[BANK1 ] PTR unsigned char 
  1412 ;;		 -> time3Zn3(5), time2Zn3(5), time1Zn3(5), time3Zn2(5), 
  1413 ;;		 -> time2Zn2(5), time1Zn2(5), time3Zn1(5), time2Zn1(5), 
  1414 ;;		 -> time1Zn1(5), 
  1415 ;; Return value:  Size  Location     Type
  1416 ;;                  1    wreg      void 
  1417 ;; Registers used:
  1418 ;;		wreg, fsr0l, fsr0h, fsr1l, fsr1h, fsr2l, fsr2h, status,2, status,0, tblptrl, tblptrh, tblptru, prodl, prodh, cstack
  1419 ;; Tracked objects:
  1420 ;;		On entry : 0/0
  1421 ;;		On exit  : 0/0
  1422 ;;		Unchanged: 0/0
  1423 ;; Data sizes:     COMRAM   BANK0   BANK1   BANK2   BANK3   BANK4   BANK5   BANK6   BANK7   BANK8   BANK9  BANK10  BANK1
      +1  BANK12
  1424 ;;      Params:         0       0       0       0       0       0       0       0       0       0       0       0       
      +0       0
  1425 ;;      Locals:         0       0       7       0       0       0       0       0       0       0       0       0       
      +0       0
  1426 ;;      Temps:          0       0       1       0       0       0       0       0       0       0       0       0       
      +0       0
  1427 ;;      Totals:         0       0       8       0       0       0       0       0       0       0       0       0       
      +0       0
  1428 ;;Total ram usage:        8 bytes
  1429 ;; Hardware stack levels used:    1
  1430 ;; Hardware stack levels required when called:   11
  1431 ;; This function calls:
  1432 ;;		_clearDisplay
  1433 ;;		_clearEndTimes
  1434 ;;		_command
  1435 ;;		_displayLineOnLCD
  1436 ;;		_startIrrigation
  1437 ;;		_stopAllIrrigation
  1438 ;;		_stopIrrigation
  1439 ;;		_updateEndTime
  1440 ;; This function is called by:
  1441 ;;		_main
  1442 ;; This function uses a non-reentrant model
  1443 ;;
  1444                           
  1445                           	psect	text1
  1446  000FBE                     __ptext1:
  1447                           	opt stack 0
  1448  000FBE                     _workingTimer:
  1449                           	opt stack 19
  1450                           
  1451                           ;SysRiego.c: 670: clearDisplay();
  1452                           
  1453                           ; BSR set to: 0
  1454                           ;incstack = 0
  1455  000FBE  ECF8  F013         	call	_clearDisplay	;wreg free
  1456                           
  1457                           ;SysRiego.c: 671: displayLineOnLCD(timerMessage, sizeof(timerMessage) / sizeof(timerMess
      +                          age[0]));
  1458  000FC2  0E22               	movlw	low _timerMessage
  1459  000FC4  0100               	movlb	0	; () banked
  1460  000FC6  6FDF               	movwf	displayLineOnLCD@array& (0+255),b
  1461  000FC8  0E00               	movlw	high _timerMessage
  1462  000FCA  0100               	movlb	0	; () banked
  1463  000FCC  6FE0               	movwf	(displayLineOnLCD@array+1)& (0+255),b
  1464  000FCE  0E0B               	movlw	11
  1465  000FD0  0100               	movlb	0	; () banked
  1466  000FD2  6FE1               	movwf	displayLineOnLCD@sizeOfArray& (0+255),b
  1467  000FD4  EC50  F010         	call	_displayLineOnLCD	;wreg free
  1468                           
  1469                           ;SysRiego.c: 673: unsigned char *zoneTime;
  1470                           ;SysRiego.c: 675: while(modeSelected == 1 && statusConfiguration == 0) {
  1471  000FD8  D11C               	goto	l5158
  1472  000FDA                     l5076:
  1473                           
  1474                           ;SysRiego.c: 676: command(0xC0);
  1475  000FDA  0EC0               	movlw	192
  1476  000FDC  ECDA  F013         	call	_command
  1477                           
  1478                           ;SysRiego.c: 677: displayLineOnLCD(counterHOUR, 3);
  1479  000FE0  0EBF               	movlw	low _counterHOUR
  1480  000FE2  0100               	movlb	0	; () banked
  1481  000FE4  6FDF               	movwf	displayLineOnLCD@array& (0+255),b
  1482  000FE6  0E00               	movlw	high _counterHOUR
  1483  000FE8  0100               	movlb	0	; () banked
  1484  000FEA  6FE0               	movwf	(displayLineOnLCD@array+1)& (0+255),b
  1485  000FEC  0E03               	movlw	3
  1486  000FEE  0100               	movlb	0	; () banked
  1487  000FF0  6FE1               	movwf	displayLineOnLCD@sizeOfArray& (0+255),b
  1488  000FF2  EC50  F010         	call	_displayLineOnLCD	;wreg free
  1489                           
  1490                           ;SysRiego.c: 678: displayLineOnLCD(counterMIN, 3);
  1491  000FF6  0EC2               	movlw	low _counterMIN
  1492  000FF8  0100               	movlb	0	; () banked
  1493  000FFA  6FDF               	movwf	displayLineOnLCD@array& (0+255),b
  1494  000FFC  0E00               	movlw	high _counterMIN
  1495  000FFE  0100               	movlb	0	; () banked
  1496  001000  6FE0               	movwf	(displayLineOnLCD@array+1)& (0+255),b
  1497  001002  0E03               	movlw	3
  1498  001004  0100               	movlb	0	; () banked
  1499  001006  6FE1               	movwf	displayLineOnLCD@sizeOfArray& (0+255),b
  1500  001008  EC50  F010         	call	_displayLineOnLCD	;wreg free
  1501                           
  1502                           ;SysRiego.c: 680: for(unsigned char i = 0; i < 9; i++) {
  1503  00100C  0E00               	movlw	0
  1504  00100E  0101               	movlb	1	; () banked
  1505  001010  6F54               	movwf	workingTimer@i& (0+255),b
  1506  001012                     l5084:
  1507                           
  1508                           ; BSR set to: 1
  1509  001012  0E08               	movlw	8
  1510  001014  0101               	movlb	1	; () banked
  1511  001016  6554               	cpfsgt	workingTimer@i& (0+255),b
  1512  001018  D001               	goto	l5088
  1513  00101A  D092               	goto	l5122
  1514  00101C                     l5088:
  1515                           
  1516                           ; BSR set to: 1
  1517                           ;SysRiego.c: 682: zoneTime = zoneTimes[i];
  1518  00101C  0101               	movlb	1	; () banked
  1519  00101E  5154               	movf	workingTimer@i& (0+255),w,b
  1520  001020  0D02               	mullw	2
  1521  001022  0E00               	movlw	low _zoneTimes
  1522  001024  24F3               	addwf	prodl,w,c
  1523  001026  6ED9               	movwf	fsr2l,c
  1524  001028  0E01               	movlw	high _zoneTimes
  1525  00102A  20F4               	addwfc	prodh,w,c
  1526  00102C  6EDA               	movwf	fsr2h,c
  1527  00102E  CFDE F155          	movff	postinc2,workingTimer@zoneTime
  1528  001032  CFDD F156          	movff	postdec2,workingTimer@zoneTime+1
  1529                           
  1530                           ; BSR set to: 1
  1531                           ;SysRiego.c: 684: if (zoneTime[0] != '$') {
  1532  001036  C155  FFD9         	movff	workingTimer@zoneTime,fsr2l
  1533  00103A  C156  FFDA         	movff	workingTimer@zoneTime+1,fsr2h
  1534  00103E  0E24               	movlw	36
  1535  001040  18DE               	xorwf	postinc2,w,c
  1536  001042  B4D8               	btfsc	status,2,c
  1537  001044  D07A               	goto	l5118
  1538                           
  1539                           ; BSR set to: 1
  1540                           ;SysRiego.c: 686: if (zoneTime[0] == counterHOUR[0]) {
  1541  001046  C155  FFD9         	movff	workingTimer@zoneTime,fsr2l
  1542  00104A  C156  FFDA         	movff	workingTimer@zoneTime+1,fsr2h
  1543  00104E  0100               	movlb	0	; () banked
  1544  001050  51BF               	movf	_counterHOUR& (0+255),w,b
  1545  001052  18DE               	xorwf	postinc2,w,c
  1546  001054  A4D8               	btfss	status,2,c
  1547  001056  D071               	goto	l5118
  1548                           
  1549                           ; BSR set to: 0
  1550                           ;SysRiego.c: 688: if (zoneTime[1] == counterHOUR[1]) {
  1551  001058  0101               	movlb	1	; () banked
  1552  00105A  EE20 F001          	lfsr	2,1
  1553  00105E  5155               	movf	workingTimer@zoneTime& (0+255),w,b
  1554  001060  26D9               	addwf	fsr2l,f,c
  1555  001062  5156               	movf	(workingTimer@zoneTime+1)& (0+255),w,b
  1556  001064  22DA               	addwfc	fsr2h,f,c
  1557  001066  0100               	movlb	0	; () banked
  1558  001068  51C0               	movf	(_counterHOUR+1)& (0+255),w,b
  1559  00106A  18DE               	xorwf	postinc2,w,c
  1560  00106C  A4D8               	btfss	status,2,c
  1561  00106E  D065               	goto	l5118
  1562                           
  1563                           ; BSR set to: 0
  1564                           ;SysRiego.c: 690: if (zoneTime[2] == counterMIN[0]) {
  1565  001070  0101               	movlb	1	; () banked
  1566  001072  EE20 F002          	lfsr	2,2
  1567  001076  5155               	movf	workingTimer@zoneTime& (0+255),w,b
  1568  001078  26D9               	addwf	fsr2l,f,c
  1569  00107A  5156               	movf	(workingTimer@zoneTime+1)& (0+255),w,b
  1570  00107C  22DA               	addwfc	fsr2h,f,c
  1571  00107E  0100               	movlb	0	; () banked
  1572  001080  51C2               	movf	_counterMIN& (0+255),w,b
  1573  001082  18DE               	xorwf	postinc2,w,c
  1574  001084  A4D8               	btfss	status,2,c
  1575  001086  D059               	goto	l5118
  1576                           
  1577                           ; BSR set to: 0
  1578                           ;SysRiego.c: 692: if (zoneTime[3] == counterMIN[1]) {
  1579  001088  0101               	movlb	1	; () banked
  1580  00108A  EE20 F003          	lfsr	2,3
  1581  00108E  5155               	movf	workingTimer@zoneTime& (0+255),w,b
  1582  001090  26D9               	addwf	fsr2l,f,c
  1583  001092  5156               	movf	(workingTimer@zoneTime+1)& (0+255),w,b
  1584  001094  22DA               	addwfc	fsr2h,f,c
  1585  001096  0100               	movlb	0	; () banked
  1586  001098  51C3               	movf	(_counterMIN+1)& (0+255),w,b
  1587  00109A  18DE               	xorwf	postinc2,w,c
  1588  00109C  A4D8               	btfss	status,2,c
  1589  00109E  D04D               	goto	l5118
  1590                           
  1591                           ; BSR set to: 0
  1592                           ;SysRiego.c: 694: if (i < 3) {
  1593  0010A0  0E03               	movlw	3
  1594  0010A2  0101               	movlb	1	; () banked
  1595  0010A4  6154               	cpfslt	workingTimer@i& (0+255),b
  1596  0010A6  D016               	goto	l5106
  1597                           
  1598                           ; BSR set to: 1
  1599                           ;SysRiego.c: 695: updateEndTime(endTimeZn1, zoneTime, irrigateTimeZn1);
  1600  0010A8  0E7F               	movlw	low _endTimeZn1
  1601  0010AA  0100               	movlb	0	; () banked
  1602  0010AC  6FE3               	movwf	updateEndTime@endTimeZn& (0+255),b
  1603  0010AE  0E00               	movlw	high _endTimeZn1
  1604  0010B0  0100               	movlb	0	; () banked
  1605  0010B2  6FE4               	movwf	(updateEndTime@endTimeZn+1)& (0+255),b
  1606  0010B4  C155  F0E5         	movff	workingTimer@zoneTime,updateEndTime@zoneTime
  1607  0010B8  C156  F0E6         	movff	workingTimer@zoneTime+1,updateEndTime@zoneTime+1
  1608  0010BC  0EC5               	movlw	low _irrigateTimeZn1
  1609  0010BE  0100               	movlb	0	; () banked
  1610  0010C0  6FE7               	movwf	updateEndTime@irrigateTimeZn& (0+255),b
  1611  0010C2  0E00               	movlw	high _irrigateTimeZn1
  1612  0010C4  0100               	movlb	0	; () banked
  1613  0010C6  6FE8               	movwf	(updateEndTime@irrigateTimeZn+1)& (0+255),b
  1614  0010C8  EC8B  F006         	call	_updateEndTime	;wreg free
  1615                           
  1616                           ;SysRiego.c: 696: startIrrigation(1);
  1617  0010CC  0E01               	movlw	1
  1618  0010CE  ECCD  F012         	call	_startIrrigation
  1619                           
  1620                           ;SysRiego.c: 697: }
  1621  0010D2  D033               	goto	l5118
  1622  0010D4                     l5106:
  1623                           
  1624                           ;SysRiego.c: 698: else if (i < 6) {
  1625  0010D4  0E06               	movlw	6
  1626  0010D6  0101               	movlb	1	; () banked
  1627  0010D8  6154               	cpfslt	workingTimer@i& (0+255),b
  1628  0010DA  D016               	goto	l5112
  1629                           
  1630                           ; BSR set to: 1
  1631                           ;SysRiego.c: 699: updateEndTime(endTimeZn2, zoneTime, irrigateTimeZn2);
  1632  0010DC  0E84               	movlw	low _endTimeZn2
  1633  0010DE  0100               	movlb	0	; () banked
  1634  0010E0  6FE3               	movwf	updateEndTime@endTimeZn& (0+255),b
  1635  0010E2  0E00               	movlw	high _endTimeZn2
  1636  0010E4  0100               	movlb	0	; () banked
  1637  0010E6  6FE4               	movwf	(updateEndTime@endTimeZn+1)& (0+255),b
  1638  0010E8  C155  F0E5         	movff	workingTimer@zoneTime,updateEndTime@zoneTime
  1639  0010EC  C156  F0E6         	movff	workingTimer@zoneTime+1,updateEndTime@zoneTime+1
  1640  0010F0  0EC8               	movlw	low _irrigateTimeZn2
  1641  0010F2  0100               	movlb	0	; () banked
  1642  0010F4  6FE7               	movwf	updateEndTime@irrigateTimeZn& (0+255),b
  1643  0010F6  0E00               	movlw	high _irrigateTimeZn2
  1644  0010F8  0100               	movlb	0	; () banked
  1645  0010FA  6FE8               	movwf	(updateEndTime@irrigateTimeZn+1)& (0+255),b
  1646  0010FC  EC8B  F006         	call	_updateEndTime	;wreg free
  1647                           
  1648                           ;SysRiego.c: 700: startIrrigation(2);
  1649  001100  0E02               	movlw	2
  1650  001102  ECCD  F012         	call	_startIrrigation
  1651                           
  1652                           ;SysRiego.c: 701: }
  1653  001106  D019               	goto	l5118
  1654  001108                     l5112:
  1655                           
  1656                           ;SysRiego.c: 702: else if (i < 9) {
  1657  001108  0E09               	movlw	9
  1658  00110A  0101               	movlb	1	; () banked
  1659  00110C  6154               	cpfslt	workingTimer@i& (0+255),b
  1660  00110E  D015               	goto	l5118
  1661                           
  1662                           ; BSR set to: 1
  1663                           ;SysRiego.c: 703: updateEndTime(endTimeZn3, zoneTime, irrigateTimeZn3);
  1664  001110  0E89               	movlw	low _endTimeZn3
  1665  001112  0100               	movlb	0	; () banked
  1666  001114  6FE3               	movwf	updateEndTime@endTimeZn& (0+255),b
  1667  001116  0E00               	movlw	high _endTimeZn3
  1668  001118  0100               	movlb	0	; () banked
  1669  00111A  6FE4               	movwf	(updateEndTime@endTimeZn+1)& (0+255),b
  1670  00111C  C155  F0E5         	movff	workingTimer@zoneTime,updateEndTime@zoneTime
  1671  001120  C156  F0E6         	movff	workingTimer@zoneTime+1,updateEndTime@zoneTime+1
  1672  001124  0ECB               	movlw	low _irrigateTimeZn3
  1673  001126  0100               	movlb	0	; () banked
  1674  001128  6FE7               	movwf	updateEndTime@irrigateTimeZn& (0+255),b
  1675  00112A  0E00               	movlw	high _irrigateTimeZn3
  1676  00112C  0100               	movlb	0	; () banked
  1677  00112E  6FE8               	movwf	(updateEndTime@irrigateTimeZn+1)& (0+255),b
  1678  001130  EC8B  F006         	call	_updateEndTime	;wreg free
  1679                           
  1680                           ;SysRiego.c: 704: startIrrigation(3);
  1681  001134  0E03               	movlw	3
  1682  001136  ECCD  F012         	call	_startIrrigation
  1683  00113A                     l5118:
  1684  00113A  0101               	movlb	1	; () banked
  1685  00113C  2B54               	incf	workingTimer@i& (0+255),f,b
  1686  00113E  D769               	goto	l5084
  1687  001140                     l5122:
  1688                           
  1689                           ; BSR set to: 1
  1690                           ;SysRiego.c: 705: }
  1691                           ;SysRiego.c: 712: }
  1692                           ;SysRiego.c: 714: }
  1693                           ;SysRiego.c: 716: }
  1694                           ;SysRiego.c: 718: }
  1695                           ;SysRiego.c: 720: }
  1696                           ;SysRiego.c: 722: }
  1697                           ;SysRiego.c: 724: for(unsigned char i = 0; i < 3; i++) {
  1698  001140  0E00               	movlw	0
  1699  001142  0101               	movlb	1	; () banked
  1700  001144  6F51               	movwf	workingTimer@i_1203& (0+255),b
  1701  001146                     l5124:
  1702                           
  1703                           ; BSR set to: 1
  1704  001146  0E02               	movlw	2
  1705  001148  0101               	movlb	1	; () banked
  1706  00114A  6551               	cpfsgt	workingTimer@i_1203& (0+255),b
  1707  00114C  D001               	goto	l5128
  1708  00114E  D061               	goto	l5158
  1709  001150                     l5128:
  1710                           
  1711                           ; BSR set to: 1
  1712                           ;SysRiego.c: 726: unsigned char *endTimeZn = zoneEndTimes[i];
  1713  001150  0101               	movlb	1	; () banked
  1714  001152  5151               	movf	workingTimer@i_1203& (0+255),w,b
  1715  001154  0D02               	mullw	2
  1716  001156  0E66               	movlw	low _zoneEndTimes
  1717  001158  24F3               	addwf	prodl,w,c
  1718  00115A  6ED9               	movwf	fsr2l,c
  1719  00115C  0E00               	movlw	high _zoneEndTimes
  1720  00115E  20F4               	addwfc	prodh,w,c
  1721  001160  6EDA               	movwf	fsr2h,c
  1722  001162  CFDE F152          	movff	postinc2,workingTimer@endTimeZn
  1723  001166  CFDD F153          	movff	postdec2,workingTimer@endTimeZn+1
  1724                           
  1725                           ; BSR set to: 1
  1726                           ;SysRiego.c: 728: if(endTimeZn[0] != '$') {
  1727  00116A  C152  FFD9         	movff	workingTimer@endTimeZn,fsr2l
  1728  00116E  C153  FFDA         	movff	workingTimer@endTimeZn+1,fsr2h
  1729  001172  0E24               	movlw	36
  1730  001174  18DE               	xorwf	postinc2,w,c
  1731  001176  B4D8               	btfsc	status,2,c
  1732  001178  D049               	goto	l5154
  1733                           
  1734                           ; BSR set to: 1
  1735                           ;SysRiego.c: 729: if(endTimeZn[0] == counterHOUR[0]) {
  1736  00117A  C152  FFD9         	movff	workingTimer@endTimeZn,fsr2l
  1737  00117E  C153  FFDA         	movff	workingTimer@endTimeZn+1,fsr2h
  1738  001182  0100               	movlb	0	; () banked
  1739  001184  51BF               	movf	_counterHOUR& (0+255),w,b
  1740  001186  18DE               	xorwf	postinc2,w,c
  1741  001188  A4D8               	btfss	status,2,c
  1742  00118A  D040               	goto	l5154
  1743                           
  1744                           ; BSR set to: 0
  1745                           ;SysRiego.c: 730: if(endTimeZn[1] == counterHOUR[1]) {
  1746  00118C  0101               	movlb	1	; () banked
  1747  00118E  EE20 F001          	lfsr	2,1
  1748  001192  5152               	movf	workingTimer@endTimeZn& (0+255),w,b
  1749  001194  26D9               	addwf	fsr2l,f,c
  1750  001196  5153               	movf	(workingTimer@endTimeZn+1)& (0+255),w,b
  1751  001198  22DA               	addwfc	fsr2h,f,c
  1752  00119A  0100               	movlb	0	; () banked
  1753  00119C  51C0               	movf	(_counterHOUR+1)& (0+255),w,b
  1754  00119E  18DE               	xorwf	postinc2,w,c
  1755  0011A0  A4D8               	btfss	status,2,c
  1756  0011A2  D034               	goto	l5154
  1757                           
  1758                           ; BSR set to: 0
  1759                           ;SysRiego.c: 731: if(endTimeZn[2] == counterMIN[0]) {
  1760  0011A4  0101               	movlb	1	; () banked
  1761  0011A6  EE20 F002          	lfsr	2,2
  1762  0011AA  5152               	movf	workingTimer@endTimeZn& (0+255),w,b
  1763  0011AC  26D9               	addwf	fsr2l,f,c
  1764  0011AE  5153               	movf	(workingTimer@endTimeZn+1)& (0+255),w,b
  1765  0011B0  22DA               	addwfc	fsr2h,f,c
  1766  0011B2  0100               	movlb	0	; () banked
  1767  0011B4  51C2               	movf	_counterMIN& (0+255),w,b
  1768  0011B6  18DE               	xorwf	postinc2,w,c
  1769  0011B8  A4D8               	btfss	status,2,c
  1770  0011BA  D028               	goto	l5154
  1771                           
  1772                           ; BSR set to: 0
  1773                           ;SysRiego.c: 732: if(endTimeZn[3] == counterMIN[1]) {
  1774  0011BC  0101               	movlb	1	; () banked
  1775  0011BE  EE20 F003          	lfsr	2,3
  1776  0011C2  5152               	movf	workingTimer@endTimeZn& (0+255),w,b
  1777  0011C4  26D9               	addwf	fsr2l,f,c
  1778  0011C6  5153               	movf	(workingTimer@endTimeZn+1)& (0+255),w,b
  1779  0011C8  22DA               	addwfc	fsr2h,f,c
  1780  0011CA  0100               	movlb	0	; () banked
  1781  0011CC  51C3               	movf	(_counterMIN+1)& (0+255),w,b
  1782  0011CE  18DE               	xorwf	postinc2,w,c
  1783  0011D0  A4D8               	btfss	status,2,c
  1784  0011D2  D01C               	goto	l5154
  1785                           
  1786                           ; BSR set to: 0
  1787                           ;SysRiego.c: 733: stopIrrigation(i + 1);
  1788  0011D4  0101               	movlb	1	; () banked
  1789  0011D6  2951               	incf	workingTimer@i_1203& (0+255),w,b
  1790  0011D8  ECBA  F012         	call	_stopIrrigation
  1791                           
  1792                           ;SysRiego.c: 734: for(unsigned char j = 0; j < 4; j ++)
  1793  0011DC  0E00               	movlw	0
  1794  0011DE  0101               	movlb	1	; () banked
  1795  0011E0  6F50               	movwf	workingTimer@j& (0+255),b
  1796  0011E2                     l5144:
  1797                           
  1798                           ; BSR set to: 1
  1799  0011E2  0E03               	movlw	3
  1800  0011E4  0101               	movlb	1	; () banked
  1801  0011E6  6550               	cpfsgt	workingTimer@j& (0+255),b
  1802  0011E8  D001               	goto	l5148
  1803  0011EA  D010               	goto	l5154
  1804  0011EC                     l5148:
  1805                           
  1806                           ; BSR set to: 1
  1807                           ;SysRiego.c: 735: endTimeZn[j] = '$';
  1808  0011EC  0101               	movlb	1	; () banked
  1809  0011EE  5150               	movf	workingTimer@j& (0+255),w,b
  1810  0011F0  0D01               	mullw	1
  1811  0011F2  50F3               	movf	prodl,w,c
  1812  0011F4  0101               	movlb	1	; () banked
  1813  0011F6  2552               	addwf	workingTimer@endTimeZn& (0+255),w,b
  1814  0011F8  6ED9               	movwf	fsr2l,c
  1815  0011FA  50F4               	movf	prodh,w,c
  1816  0011FC  0101               	movlb	1	; () banked
  1817  0011FE  2153               	addwfc	(workingTimer@endTimeZn+1)& (0+255),w,b
  1818  001200  6EDA               	movwf	fsr2h,c
  1819  001202  0E24               	movlw	36
  1820  001204  6EDF               	movwf	indf2,c
  1821                           
  1822                           ; BSR set to: 1
  1823  001206  0101               	movlb	1	; () banked
  1824  001208  2B50               	incf	workingTimer@j& (0+255),f,b
  1825  00120A  D7EB               	goto	l5144
  1826  00120C                     l5154:
  1827  00120C  0101               	movlb	1	; () banked
  1828  00120E  2B51               	incf	workingTimer@i_1203& (0+255),f,b
  1829  001210  D79A               	goto	l5124
  1830  001212                     l5158:
  1831  001212  0100               	movlb	0	; () banked
  1832  001214  05ED               	decf	_modeSelected& (0+255),w,b
  1833  001216  A4D8               	btfss	status,2,c
  1834  001218  D004               	goto	l5162
  1835                           
  1836                           ; BSR set to: 0
  1837  00121A  0100               	movlb	0	; () banked
  1838  00121C  51EE               	movf	_statusConfiguration& (0+255),w,b
  1839  00121E  B4D8               	btfsc	status,2,c
  1840  001220  D6DC               	goto	l5076
  1841  001222                     l5162:
  1842                           
  1843                           ; BSR set to: 0
  1844                           ;SysRiego.c: 736: }
  1845                           ;SysRiego.c: 737: }
  1846                           ;SysRiego.c: 738: }
  1847                           ;SysRiego.c: 739: }
  1848                           ;SysRiego.c: 740: }
  1849                           ;SysRiego.c: 742: }
  1850                           ;SysRiego.c: 744: }
  1851                           ;SysRiego.c: 747: clearEndTimes();
  1852  001222  EC4E  F011         	call	_clearEndTimes	;wreg free
  1853                           
  1854                           ;SysRiego.c: 749: stopAllIrrigation();
  1855  001226  ECBC  F013         	call	_stopAllIrrigation	;wreg free
  1856  00122A  0012               	return		;funcret
  1857  00122C                     __end_of_workingTimer:
  1858                           	opt stack 0
  1859                           tblptru	equ	0xFF8
  1860                           tblptrh	equ	0xFF7
  1861                           tblptrl	equ	0xFF6
  1862                           tablat	equ	0xFF5
  1863                           prodh	equ	0xFF4
  1864                           prodl	equ	0xFF3
  1865                           intcon	equ	0xFF2
  1866                           intcon2	equ	0xFF1
  1867                           postinc0	equ	0xFEE
  1868                           wreg	equ	0xFE8
  1869                           postdec1	equ	0xFE5
  1870                           fsr1l	equ	0xFE1
  1871                           indf2	equ	0xFDF
  1872                           postinc2	equ	0xFDE
  1873                           postdec2	equ	0xFDD
  1874                           fsr2h	equ	0xFDA
  1875                           fsr2l	equ	0xFD9
  1876                           status	equ	0xFD8
  1877                           
  1878 ;; *************** function _updateEndTime *****************
  1879 ;; Defined at:
  1880 ;;		line 1376 in file "SysRiego.c"
  1881 ;; Parameters:    Size  Location     Type
  1882 ;;  endTimeZn       2   21[BANK0 ] PTR unsigned char 
  1883 ;;		 -> endTimeZn3(5), endTimeZn2(5), endTimeZn1(5), 
  1884 ;;  zoneTime        2   23[BANK0 ] PTR unsigned char 
  1885 ;;		 -> time3Zn3(5), time2Zn3(5), time1Zn3(5), time3Zn2(5), 
  1886 ;;		 -> time2Zn2(5), time1Zn2(5), time3Zn1(5), time2Zn1(5), 
  1887 ;;		 -> time1Zn1(5), 
  1888 ;;  irrigateTime    2   25[BANK0 ] PTR unsigned char 
  1889 ;;		 -> irrigateTimeZn3(3), irrigateTimeZn2(3), irrigateTimeZn1(3), 
  1890 ;; Auto vars:     Size  Location     Type
  1891 ;;		None
  1892 ;; Return value:  Size  Location     Type
  1893 ;;                  1    wreg      void 
  1894 ;; Registers used:
  1895 ;;		wreg, fsr1l, fsr1h, fsr2l, fsr2h, status,2, status,0, cstack
  1896 ;; Tracked objects:
  1897 ;;		On entry : 0/0
  1898 ;;		On exit  : 0/0
  1899 ;;		Unchanged: 0/0
  1900 ;; Data sizes:     COMRAM   BANK0   BANK1   BANK2   BANK3   BANK4   BANK5   BANK6   BANK7   BANK8   BANK9  BANK10  BANK1
      +1  BANK12
  1901 ;;      Params:         0       6       0       0       0       0       0       0       0       0       0       0       
      +0       0
  1902 ;;      Locals:         0       0       0       0       0       0       0       0       0       0       0       0       
      +0       0
  1903 ;;      Temps:          1       0       0       0       0       0       0       0       0       0       0       0       
      +0       0
  1904 ;;      Totals:         1       6       0       0       0       0       0       0       0       0       0       0       
      +0       0
  1905 ;;Total ram usage:        7 bytes
  1906 ;; Hardware stack levels used:    1
  1907 ;; Hardware stack levels required when called:    9
  1908 ;; This function calls:
  1909 ;;		___awmod
  1910 ;; This function is called by:
  1911 ;;		_workingTimer
  1912 ;; This function uses a non-reentrant model
  1913 ;;
  1914                           
  1915                           	psect	text2
  1916  000D16                     __ptext2:
  1917                           	opt stack 0
  1918  000D16                     _updateEndTime:
  1919                           	opt stack 20
  1920                           
  1921                           ;SysRiego.c: 1378: endTimeZn[0] = zoneTime[0];
  1922                           
  1923                           ;incstack = 0
  1924  000D16  C0E5  FFD9         	movff	updateEndTime@zoneTime,fsr2l
  1925  000D1A  C0E6  FFDA         	movff	updateEndTime@zoneTime+1,fsr2h
  1926  000D1E  C0E3  FFE1         	movff	updateEndTime@endTimeZn,fsr1l
  1927  000D22  C0E4  FFE2         	movff	updateEndTime@endTimeZn+1,fsr1h
  1928  000D26  CFDF FFE7          	movff	indf2,indf1
  1929                           
  1930                           ;SysRiego.c: 1379: endTimeZn[1] = zoneTime[1];
  1931  000D2A  0100               	movlb	0	; () banked
  1932  000D2C  EE20 F001          	lfsr	2,1
  1933  000D30  51E5               	movf	updateEndTime@zoneTime& (0+255),w,b
  1934  000D32  26D9               	addwf	fsr2l,f,c
  1935  000D34  51E6               	movf	(updateEndTime@zoneTime+1)& (0+255),w,b
  1936  000D36  22DA               	addwfc	fsr2h,f,c
  1937  000D38  0100               	movlb	0	; () banked
  1938  000D3A  EE10 F001          	lfsr	1,1
  1939  000D3E  51E3               	movf	updateEndTime@endTimeZn& (0+255),w,b
  1940  000D40  26E1               	addwf	fsr1l,f,c
  1941  000D42  51E4               	movf	(updateEndTime@endTimeZn+1)& (0+255),w,b
  1942  000D44  22E2               	addwfc	fsr1h,f,c
  1943  000D46  CFDF FFE7          	movff	indf2,indf1
  1944                           
  1945                           ; BSR set to: 0
  1946                           ;SysRiego.c: 1380: endTimeZn[2] = zoneTime[2];
  1947  000D4A  0100               	movlb	0	; () banked
  1948  000D4C  EE20 F002          	lfsr	2,2
  1949  000D50  51E5               	movf	updateEndTime@zoneTime& (0+255),w,b
  1950  000D52  26D9               	addwf	fsr2l,f,c
  1951  000D54  51E6               	movf	(updateEndTime@zoneTime+1)& (0+255),w,b
  1952  000D56  22DA               	addwfc	fsr2h,f,c
  1953  000D58  0100               	movlb	0	; () banked
  1954  000D5A  EE10 F002          	lfsr	1,2
  1955  000D5E  51E3               	movf	updateEndTime@endTimeZn& (0+255),w,b
  1956  000D60  26E1               	addwf	fsr1l,f,c
  1957  000D62  51E4               	movf	(updateEndTime@endTimeZn+1)& (0+255),w,b
  1958  000D64  22E2               	addwfc	fsr1h,f,c
  1959  000D66  CFDF FFE7          	movff	indf2,indf1
  1960                           
  1961                           ; BSR set to: 0
  1962                           ;SysRiego.c: 1381: endTimeZn[3] = zoneTime[3];
  1963  000D6A  0100               	movlb	0	; () banked
  1964  000D6C  EE20 F003          	lfsr	2,3
  1965  000D70  51E5               	movf	updateEndTime@zoneTime& (0+255),w,b
  1966  000D72  26D9               	addwf	fsr2l,f,c
  1967  000D74  51E6               	movf	(updateEndTime@zoneTime+1)& (0+255),w,b
  1968  000D76  22DA               	addwfc	fsr2h,f,c
  1969  000D78  0100               	movlb	0	; () banked
  1970  000D7A  EE10 F003          	lfsr	1,3
  1971  000D7E  51E3               	movf	updateEndTime@endTimeZn& (0+255),w,b
  1972  000D80  26E1               	addwf	fsr1l,f,c
  1973  000D82  51E4               	movf	(updateEndTime@endTimeZn+1)& (0+255),w,b
  1974  000D84  22E2               	addwfc	fsr1h,f,c
  1975  000D86  CFDF FFE7          	movff	indf2,indf1
  1976                           
  1977                           ; BSR set to: 0
  1978                           ;SysRiego.c: 1383: endTimeZn[3] = endTimeZn[3] + (irrigateTimeZn[1] - 48);
  1979  000D8A  0100               	movlb	0	; () banked
  1980  000D8C  EE20 F003          	lfsr	2,3
  1981  000D90  51E3               	movf	updateEndTime@endTimeZn& (0+255),w,b
  1982  000D92  26D9               	addwf	fsr2l,f,c
  1983  000D94  51E4               	movf	(updateEndTime@endTimeZn+1)& (0+255),w,b
  1984  000D96  22DA               	addwfc	fsr2h,f,c
  1985  000D98  0100               	movlb	0	; () banked
  1986  000D9A  EE10 F003          	lfsr	1,3
  1987  000D9E  51E3               	movf	updateEndTime@endTimeZn& (0+255),w,b
  1988  000DA0  26E1               	addwf	fsr1l,f,c
  1989  000DA2  51E4               	movf	(updateEndTime@endTimeZn+1)& (0+255),w,b
  1990  000DA4  22E2               	addwfc	fsr1h,f,c
  1991  000DA6  50E7               	movf	indf1,w,c
  1992  000DA8  6E1F               	movwf	??_updateEndTime& (0+255),c
  1993  000DAA  0100               	movlb	0	; () banked
  1994  000DAC  EE10 F001          	lfsr	1,1
  1995  000DB0  51E7               	movf	updateEndTime@irrigateTimeZn& (0+255),w,b
  1996  000DB2  26E1               	addwf	fsr1l,f,c
  1997  000DB4  51E8               	movf	(updateEndTime@irrigateTimeZn+1)& (0+255),w,b
  1998  000DB6  22E2               	addwfc	fsr1h,f,c
  1999  000DB8  50E7               	movf	indf1,w,c
  2000  000DBA  241F               	addwf	??_updateEndTime,w,c
  2001  000DBC  0FD0               	addlw	208
  2002  000DBE  6EDF               	movwf	indf2,c
  2003                           
  2004                           ; BSR set to: 0
  2005                           ;SysRiego.c: 1385: if(endTimeZn[3] > 57) {
  2006  000DC0  0100               	movlb	0	; () banked
  2007  000DC2  EE20 F003          	lfsr	2,3
  2008  000DC6  51E3               	movf	updateEndTime@endTimeZn& (0+255),w,b
  2009  000DC8  26D9               	addwf	fsr2l,f,c
  2010  000DCA  51E4               	movf	(updateEndTime@endTimeZn+1)& (0+255),w,b
  2011  000DCC  22DA               	addwfc	fsr2h,f,c
  2012  000DCE  0E39               	movlw	57
  2013  000DD0  64DF               	cpfsgt	indf2,c
  2014  000DD2  D027               	goto	l4908
  2015                           
  2016                           ; BSR set to: 0
  2017                           ;SysRiego.c: 1386: endTimeZn[3] = endTimeZn[3]%58 + 48;
  2018  000DD4  0100               	movlb	0	; () banked
  2019  000DD6  EE20 F003          	lfsr	2,3
  2020  000DDA  51E3               	movf	updateEndTime@endTimeZn& (0+255),w,b
  2021  000DDC  26D9               	addwf	fsr2l,f,c
  2022  000DDE  51E4               	movf	(updateEndTime@endTimeZn+1)& (0+255),w,b
  2023  000DE0  22DA               	addwfc	fsr2h,f,c
  2024  000DE2  0100               	movlb	0	; () banked
  2025  000DE4  EE10 F003          	lfsr	1,3
  2026  000DE8  51E3               	movf	updateEndTime@endTimeZn& (0+255),w,b
  2027  000DEA  26E1               	addwf	fsr1l,f,c
  2028  000DEC  51E4               	movf	(updateEndTime@endTimeZn+1)& (0+255),w,b
  2029  000DEE  22E2               	addwfc	fsr1h,f,c
  2030  000DF0  50E7               	movf	indf1,w,c
  2031  000DF2  6E1F               	movwf	??_updateEndTime& (0+255),c
  2032  000DF4  501F               	movf	??_updateEndTime,w,c
  2033  000DF6  0100               	movlb	0	; () banked
  2034  000DF8  6FDF               	movwf	___awmod@dividend& (0+255),b
  2035  000DFA  6BE0               	clrf	(___awmod@dividend+1)& (0+255),b
  2036  000DFC  0E00               	movlw	0
  2037  000DFE  0100               	movlb	0	; () banked
  2038  000E00  6FE2               	movwf	(___awmod@divisor+1)& (0+255),b
  2039  000E02  0E3A               	movlw	58
  2040  000E04  6FE1               	movwf	___awmod@divisor& (0+255),b
  2041  000E06  EC06  F010         	call	___awmod	;wreg free
  2042  000E0A  0100               	movlb	0	; () banked
  2043  000E0C  51DF               	movf	?___awmod& (0+255),w,b
  2044  000E0E  0F30               	addlw	48
  2045  000E10  6EDF               	movwf	indf2,c
  2046                           
  2047                           ; BSR set to: 0
  2048                           ;SysRiego.c: 1387: endTimeZn[2]++;
  2049  000E12  0100               	movlb	0	; () banked
  2050  000E14  EE20 F002          	lfsr	2,2
  2051  000E18  51E3               	movf	updateEndTime@endTimeZn& (0+255),w,b
  2052  000E1A  26D9               	addwf	fsr2l,f,c
  2053  000E1C  51E4               	movf	(updateEndTime@endTimeZn+1)& (0+255),w,b
  2054  000E1E  22DA               	addwfc	fsr2h,f,c
  2055  000E20  2ADF               	incf	indf2,f,c
  2056  000E22                     l4908:
  2057                           
  2058                           ; BSR set to: 0
  2059                           ;SysRiego.c: 1388: }
  2060                           ;SysRiego.c: 1390: endTimeZn[2] = endTimeZn[2] + (irrigateTimeZn[0] - 48);
  2061  000E22  0100               	movlb	0	; () banked
  2062  000E24  EE20 F002          	lfsr	2,2
  2063  000E28  51E3               	movf	updateEndTime@endTimeZn& (0+255),w,b
  2064  000E2A  26D9               	addwf	fsr2l,f,c
  2065  000E2C  51E4               	movf	(updateEndTime@endTimeZn+1)& (0+255),w,b
  2066  000E2E  22DA               	addwfc	fsr2h,f,c
  2067  000E30  0100               	movlb	0	; () banked
  2068  000E32  EE10 F002          	lfsr	1,2
  2069  000E36  51E3               	movf	updateEndTime@endTimeZn& (0+255),w,b
  2070  000E38  26E1               	addwf	fsr1l,f,c
  2071  000E3A  51E4               	movf	(updateEndTime@endTimeZn+1)& (0+255),w,b
  2072  000E3C  22E2               	addwfc	fsr1h,f,c
  2073  000E3E  50E7               	movf	indf1,w,c
  2074  000E40  6E1F               	movwf	??_updateEndTime& (0+255),c
  2075  000E42  C0E7  FFE1         	movff	updateEndTime@irrigateTimeZn,fsr1l
  2076  000E46  C0E8  FFE2         	movff	updateEndTime@irrigateTimeZn+1,fsr1h
  2077  000E4A  50E7               	movf	indf1,w,c
  2078  000E4C  241F               	addwf	??_updateEndTime,w,c
  2079  000E4E  0FD0               	addlw	208
  2080  000E50  6EDF               	movwf	indf2,c
  2081                           
  2082                           ; BSR set to: 0
  2083                           ;SysRiego.c: 1392: if(endTimeZn[2] > 53) {
  2084  000E52  0100               	movlb	0	; () banked
  2085  000E54  EE20 F002          	lfsr	2,2
  2086  000E58  51E3               	movf	updateEndTime@endTimeZn& (0+255),w,b
  2087  000E5A  26D9               	addwf	fsr2l,f,c
  2088  000E5C  51E4               	movf	(updateEndTime@endTimeZn+1)& (0+255),w,b
  2089  000E5E  22DA               	addwfc	fsr2h,f,c
  2090  000E60  0E35               	movlw	53
  2091  000E62  64DF               	cpfsgt	indf2,c
  2092  000E64  D027               	goto	l4916
  2093                           
  2094                           ; BSR set to: 0
  2095                           ;SysRiego.c: 1393: endTimeZn[2] = endTimeZn[2]%54 + 48;
  2096  000E66  0100               	movlb	0	; () banked
  2097  000E68  EE20 F002          	lfsr	2,2
  2098  000E6C  51E3               	movf	updateEndTime@endTimeZn& (0+255),w,b
  2099  000E6E  26D9               	addwf	fsr2l,f,c
  2100  000E70  51E4               	movf	(updateEndTime@endTimeZn+1)& (0+255),w,b
  2101  000E72  22DA               	addwfc	fsr2h,f,c
  2102  000E74  0100               	movlb	0	; () banked
  2103  000E76  EE10 F002          	lfsr	1,2
  2104  000E7A  51E3               	movf	updateEndTime@endTimeZn& (0+255),w,b
  2105  000E7C  26E1               	addwf	fsr1l,f,c
  2106  000E7E  51E4               	movf	(updateEndTime@endTimeZn+1)& (0+255),w,b
  2107  000E80  22E2               	addwfc	fsr1h,f,c
  2108  000E82  50E7               	movf	indf1,w,c
  2109  000E84  6E1F               	movwf	??_updateEndTime& (0+255),c
  2110  000E86  501F               	movf	??_updateEndTime,w,c
  2111  000E88  0100               	movlb	0	; () banked
  2112  000E8A  6FDF               	movwf	___awmod@dividend& (0+255),b
  2113  000E8C  6BE0               	clrf	(___awmod@dividend+1)& (0+255),b
  2114  000E8E  0E00               	movlw	0
  2115  000E90  0100               	movlb	0	; () banked
  2116  000E92  6FE2               	movwf	(___awmod@divisor+1)& (0+255),b
  2117  000E94  0E36               	movlw	54
  2118  000E96  6FE1               	movwf	___awmod@divisor& (0+255),b
  2119  000E98  EC06  F010         	call	___awmod	;wreg free
  2120  000E9C  0100               	movlb	0	; () banked
  2121  000E9E  51DF               	movf	?___awmod& (0+255),w,b
  2122  000EA0  0F30               	addlw	48
  2123  000EA2  6EDF               	movwf	indf2,c
  2124                           
  2125                           ; BSR set to: 0
  2126                           ;SysRiego.c: 1394: endTimeZn[1]++;
  2127  000EA4  0100               	movlb	0	; () banked
  2128  000EA6  EE20 F001          	lfsr	2,1
  2129  000EAA  51E3               	movf	updateEndTime@endTimeZn& (0+255),w,b
  2130  000EAC  26D9               	addwf	fsr2l,f,c
  2131  000EAE  51E4               	movf	(updateEndTime@endTimeZn+1)& (0+255),w,b
  2132  000EB0  22DA               	addwfc	fsr2h,f,c
  2133  000EB2  2ADF               	incf	indf2,f,c
  2134  000EB4                     l4916:
  2135                           
  2136                           ; BSR set to: 0
  2137                           ;SysRiego.c: 1395: }
  2138                           ;SysRiego.c: 1397: if(endTimeZn[0] < '2') {
  2139  000EB4  C0E3  FFD9         	movff	updateEndTime@endTimeZn,fsr2l
  2140  000EB8  C0E4  FFDA         	movff	updateEndTime@endTimeZn+1,fsr2h
  2141  000EBC  0E32               	movlw	50
  2142  000EBE  60DF               	cpfslt	indf2,c
  2143  000EC0  D02F               	goto	l4924
  2144                           
  2145                           ; BSR set to: 0
  2146                           ;SysRiego.c: 1399: if(endTimeZn[1] > 57) {
  2147  000EC2  0100               	movlb	0	; () banked
  2148  000EC4  EE20 F001          	lfsr	2,1
  2149  000EC8  51E3               	movf	updateEndTime@endTimeZn& (0+255),w,b
  2150  000ECA  26D9               	addwf	fsr2l,f,c
  2151  000ECC  51E4               	movf	(updateEndTime@endTimeZn+1)& (0+255),w,b
  2152  000ECE  22DA               	addwfc	fsr2h,f,c
  2153  000ED0  0E39               	movlw	57
  2154  000ED2  64DF               	cpfsgt	indf2,c
  2155  000ED4  0012               	return	
  2156                           
  2157                           ; BSR set to: 0
  2158                           ;SysRiego.c: 1400: endTimeZn[1] = endTimeZn[1]%58 + 48;
  2159  000ED6  0100               	movlb	0	; () banked
  2160  000ED8  EE20 F001          	lfsr	2,1
  2161  000EDC  51E3               	movf	updateEndTime@endTimeZn& (0+255),w,b
  2162  000EDE  26D9               	addwf	fsr2l,f,c
  2163  000EE0  51E4               	movf	(updateEndTime@endTimeZn+1)& (0+255),w,b
  2164  000EE2  22DA               	addwfc	fsr2h,f,c
  2165  000EE4  0100               	movlb	0	; () banked
  2166  000EE6  EE10 F001          	lfsr	1,1
  2167  000EEA  51E3               	movf	updateEndTime@endTimeZn& (0+255),w,b
  2168  000EEC  26E1               	addwf	fsr1l,f,c
  2169  000EEE  51E4               	movf	(updateEndTime@endTimeZn+1)& (0+255),w,b
  2170  000EF0  22E2               	addwfc	fsr1h,f,c
  2171  000EF2  50E7               	movf	indf1,w,c
  2172  000EF4  6E1F               	movwf	??_updateEndTime& (0+255),c
  2173  000EF6  501F               	movf	??_updateEndTime,w,c
  2174  000EF8  0100               	movlb	0	; () banked
  2175  000EFA  6FDF               	movwf	___awmod@dividend& (0+255),b
  2176  000EFC  6BE0               	clrf	(___awmod@dividend+1)& (0+255),b
  2177  000EFE  0E00               	movlw	0
  2178  000F00  0100               	movlb	0	; () banked
  2179  000F02  6FE2               	movwf	(___awmod@divisor+1)& (0+255),b
  2180  000F04  0E3A               	movlw	58
  2181  000F06  6FE1               	movwf	___awmod@divisor& (0+255),b
  2182  000F08  EC06  F010         	call	___awmod	;wreg free
  2183  000F0C  0100               	movlb	0	; () banked
  2184  000F0E  51DF               	movf	?___awmod& (0+255),w,b
  2185  000F10  0F30               	addlw	48
  2186  000F12  6EDF               	movwf	indf2,c
  2187                           
  2188                           ; BSR set to: 0
  2189                           ;SysRiego.c: 1401: endTimeZn[0]++;
  2190  000F14  C0E3  FFD9         	movff	updateEndTime@endTimeZn,fsr2l
  2191  000F18  C0E4  FFDA         	movff	updateEndTime@endTimeZn+1,fsr2h
  2192  000F1C  2ADF               	incf	indf2,f,c
  2193                           
  2194                           ; BSR set to: 0
  2195                           ;SysRiego.c: 1402: }
  2196                           ;SysRiego.c: 1404: }
  2197  000F1E  0012               	return	
  2198  000F20                     l4924:
  2199                           
  2200                           ; BSR set to: 0
  2201                           ;SysRiego.c: 1406: else {
  2202                           ;SysRiego.c: 1408: if(endTimeZn[1] > 51) {
  2203  000F20  0100               	movlb	0	; () banked
  2204  000F22  EE20 F001          	lfsr	2,1
  2205  000F26  51E3               	movf	updateEndTime@endTimeZn& (0+255),w,b
  2206  000F28  26D9               	addwf	fsr2l,f,c
  2207  000F2A  51E4               	movf	(updateEndTime@endTimeZn+1)& (0+255),w,b
  2208  000F2C  22DA               	addwfc	fsr2h,f,c
  2209  000F2E  0E33               	movlw	51
  2210  000F30  64DF               	cpfsgt	indf2,c
  2211  000F32  D024               	goto	l4930
  2212                           
  2213                           ; BSR set to: 0
  2214                           ;SysRiego.c: 1409: endTimeZn[1] = endTimeZn[1]%52 + 48;
  2215  000F34  0100               	movlb	0	; () banked
  2216  000F36  EE20 F001          	lfsr	2,1
  2217  000F3A  51E3               	movf	updateEndTime@endTimeZn& (0+255),w,b
  2218  000F3C  26D9               	addwf	fsr2l,f,c
  2219  000F3E  51E4               	movf	(updateEndTime@endTimeZn+1)& (0+255),w,b
  2220  000F40  22DA               	addwfc	fsr2h,f,c
  2221  000F42  0100               	movlb	0	; () banked
  2222  000F44  EE10 F001          	lfsr	1,1
  2223  000F48  51E3               	movf	updateEndTime@endTimeZn& (0+255),w,b
  2224  000F4A  26E1               	addwf	fsr1l,f,c
  2225  000F4C  51E4               	movf	(updateEndTime@endTimeZn+1)& (0+255),w,b
  2226  000F4E  22E2               	addwfc	fsr1h,f,c
  2227  000F50  50E7               	movf	indf1,w,c
  2228  000F52  6E1F               	movwf	??_updateEndTime& (0+255),c
  2229  000F54  501F               	movf	??_updateEndTime,w,c
  2230  000F56  0100               	movlb	0	; () banked
  2231  000F58  6FDF               	movwf	___awmod@dividend& (0+255),b
  2232  000F5A  6BE0               	clrf	(___awmod@dividend+1)& (0+255),b
  2233  000F5C  0E00               	movlw	0
  2234  000F5E  0100               	movlb	0	; () banked
  2235  000F60  6FE2               	movwf	(___awmod@divisor+1)& (0+255),b
  2236  000F62  0E34               	movlw	52
  2237  000F64  6FE1               	movwf	___awmod@divisor& (0+255),b
  2238  000F66  EC06  F010         	call	___awmod	;wreg free
  2239  000F6A  0100               	movlb	0	; () banked
  2240  000F6C  51DF               	movf	?___awmod& (0+255),w,b
  2241  000F6E  0F30               	addlw	48
  2242  000F70  6EDF               	movwf	indf2,c
  2243                           
  2244                           ; BSR set to: 0
  2245                           ;SysRiego.c: 1410: endTimeZn[0]++;
  2246  000F72  C0E3  FFD9         	movff	updateEndTime@endTimeZn,fsr2l
  2247  000F76  C0E4  FFDA         	movff	updateEndTime@endTimeZn+1,fsr2h
  2248  000F7A  2ADF               	incf	indf2,f,c
  2249  000F7C                     l4930:
  2250                           
  2251                           ; BSR set to: 0
  2252                           ;SysRiego.c: 1411: }
  2253                           ;SysRiego.c: 1413: if (endTimeZn[0] > 50) {
  2254  000F7C  C0E3  FFD9         	movff	updateEndTime@endTimeZn,fsr2l
  2255  000F80  C0E4  FFDA         	movff	updateEndTime@endTimeZn+1,fsr2h
  2256  000F84  0E32               	movlw	50
  2257  000F86  64DF               	cpfsgt	indf2,c
  2258  000F88  0012               	return	
  2259                           
  2260                           ; BSR set to: 0
  2261                           ;SysRiego.c: 1414: endTimeZn[0] = endTimeZn[0]%51 + 48;
  2262  000F8A  C0E3  FFD9         	movff	updateEndTime@endTimeZn,fsr2l
  2263  000F8E  C0E4  FFDA         	movff	updateEndTime@endTimeZn+1,fsr2h
  2264  000F92  50DF               	movf	indf2,w,c
  2265  000F94  6E1F               	movwf	??_updateEndTime& (0+255),c
  2266  000F96  501F               	movf	??_updateEndTime,w,c
  2267  000F98  0100               	movlb	0	; () banked
  2268  000F9A  6FDF               	movwf	___awmod@dividend& (0+255),b
  2269  000F9C  6BE0               	clrf	(___awmod@dividend+1)& (0+255),b
  2270  000F9E  0E00               	movlw	0
  2271  000FA0  0100               	movlb	0	; () banked
  2272  000FA2  6FE2               	movwf	(___awmod@divisor+1)& (0+255),b
  2273  000FA4  0E33               	movlw	51
  2274  000FA6  6FE1               	movwf	___awmod@divisor& (0+255),b
  2275  000FA8  EC06  F010         	call	___awmod	;wreg free
  2276  000FAC  0100               	movlb	0	; () banked
  2277  000FAE  51DF               	movf	?___awmod& (0+255),w,b
  2278  000FB0  0F30               	addlw	48
  2279  000FB2  C0E3  FFD9         	movff	updateEndTime@endTimeZn,fsr2l
  2280  000FB6  C0E4  FFDA         	movff	updateEndTime@endTimeZn+1,fsr2h
  2281  000FBA  6EDF               	movwf	indf2,c
  2282                           
  2283                           ; BSR set to: 0
  2284  000FBC  0012               	return	
  2285  000FBE                     __end_of_updateEndTime:
  2286                           	opt stack 0
  2287                           tblptru	equ	0xFF8
  2288                           tblptrh	equ	0xFF7
  2289                           tblptrl	equ	0xFF6
  2290                           tablat	equ	0xFF5
  2291                           prodh	equ	0xFF4
  2292                           prodl	equ	0xFF3
  2293                           intcon	equ	0xFF2
  2294                           intcon2	equ	0xFF1
  2295                           postinc0	equ	0xFEE
  2296                           wreg	equ	0xFE8
  2297                           indf1	equ	0xFE7
  2298                           postdec1	equ	0xFE5
  2299                           fsr1h	equ	0xFE2
  2300                           fsr1l	equ	0xFE1
  2301                           indf2	equ	0xFDF
  2302                           postinc2	equ	0xFDE
  2303                           postdec2	equ	0xFDD
  2304                           fsr2h	equ	0xFDA
  2305                           fsr2l	equ	0xFD9
  2306                           status	equ	0xFD8
  2307                           
  2308 ;; *************** function ___awmod *****************
  2309 ;; Defined at:
  2310 ;;		line 8 in file "/Applications/microchip/xc8/v1.36/sources/common/awmod.c"
  2311 ;; Parameters:    Size  Location     Type
  2312 ;;  dividend        2   17[BANK0 ] int 
  2313 ;;  divisor         2   19[BANK0 ] int 
  2314 ;; Auto vars:     Size  Location     Type
  2315 ;;  sign            1   29[COMRAM] unsigned char 
  2316 ;;  counter         1   28[COMRAM] unsigned char 
  2317 ;; Return value:  Size  Location     Type
  2318 ;;                  2   17[BANK0 ] int 
  2319 ;; Registers used:
  2320 ;;		wreg, status,2, status,0
  2321 ;; Tracked objects:
  2322 ;;		On entry : 0/0
  2323 ;;		On exit  : 0/0
  2324 ;;		Unchanged: 0/0
  2325 ;; Data sizes:     COMRAM   BANK0   BANK1   BANK2   BANK3   BANK4   BANK5   BANK6   BANK7   BANK8   BANK9  BANK10  BANK1
      +1  BANK12
  2326 ;;      Params:         0       4       0       0       0       0       0       0       0       0       0       0       
      +0       0
  2327 ;;      Locals:         2       0       0       0       0       0       0       0       0       0       0       0       
      +0       0
  2328 ;;      Temps:          0       0       0       0       0       0       0       0       0       0       0       0       
      +0       0
  2329 ;;      Totals:         2       4       0       0       0       0       0       0       0       0       0       0       
      +0       0
  2330 ;;Total ram usage:        6 bytes
  2331 ;; Hardware stack levels used:    1
  2332 ;; Hardware stack levels required when called:    8
  2333 ;; This function calls:
  2334 ;;		Nothing
  2335 ;; This function is called by:
  2336 ;;		_updateEndTime
  2337 ;; This function uses a non-reentrant model
  2338 ;;
  2339                           
  2340                           	psect	text3
  2341  00200C                     __ptext3:
  2342                           	opt stack 0
  2343  00200C                     ___awmod:
  2344                           	opt stack 20
  2345                           
  2346                           ; BSR set to: 0
  2347                           ;incstack = 0
  2348  00200C  0E00               	movlw	0
  2349  00200E  6E1E               	movwf	___awmod@sign,c
  2350  002010  0100               	movlb	0	; () banked
  2351  002012  AFE0               	btfss	(___awmod@dividend+1)& (0+255),7,b
  2352  002014  D007               	goto	l4776
  2353                           
  2354                           ; BSR set to: 0
  2355  002016  0100               	movlb	0	; () banked
  2356  002018  6DDF               	negf	___awmod@dividend& (0+255),b
  2357  00201A  1FE0               	comf	(___awmod@dividend+1)& (0+255),f,b
  2358  00201C  B0D8               	btfsc	status,0,c
  2359  00201E  2BE0               	incf	(___awmod@dividend+1)& (0+255),f,b
  2360                           
  2361                           ; BSR set to: 0
  2362  002020  0E01               	movlw	1
  2363  002022  6E1E               	movwf	___awmod@sign,c
  2364  002024                     l4776:
  2365                           
  2366                           ; BSR set to: 0
  2367  002024  0100               	movlb	0	; () banked
  2368  002026  AFE2               	btfss	(___awmod@divisor+1)& (0+255),7,b
  2369  002028  D005               	goto	l4780
  2370                           
  2371                           ; BSR set to: 0
  2372  00202A  0100               	movlb	0	; () banked
  2373  00202C  6DE1               	negf	___awmod@divisor& (0+255),b
  2374  00202E  1FE2               	comf	(___awmod@divisor+1)& (0+255),f,b
  2375  002030  B0D8               	btfsc	status,0,c
  2376  002032  2BE2               	incf	(___awmod@divisor+1)& (0+255),f,b
  2377  002034                     l4780:
  2378                           
  2379                           ; BSR set to: 0
  2380  002034  0100               	movlb	0	; () banked
  2381  002036  51E1               	movf	___awmod@divisor& (0+255),w,b
  2382  002038  0100               	movlb	0	; () banked
  2383  00203A  11E2               	iorwf	(___awmod@divisor+1)& (0+255),w,b
  2384  00203C  B4D8               	btfsc	status,2,c
  2385  00203E  D023               	goto	l4796
  2386                           
  2387                           ; BSR set to: 0
  2388  002040  0E01               	movlw	1
  2389  002042  6E1D               	movwf	___awmod@counter,c
  2390  002044  D005               	goto	l4786
  2391  002046                     l4784:
  2392                           
  2393                           ; BSR set to: 0
  2394  002046  0100               	movlb	0	; () banked
  2395  002048  90D8               	bcf	status,0,c
  2396  00204A  37E1               	rlcf	___awmod@divisor& (0+255),f,b
  2397  00204C  37E2               	rlcf	(___awmod@divisor+1)& (0+255),f,b
  2398  00204E  2A1D               	incf	___awmod@counter,f,c
  2399  002050                     l4786:
  2400                           
  2401                           ; BSR set to: 0
  2402  002050  0100               	movlb	0	; () banked
  2403  002052  AFE2               	btfss	(___awmod@divisor+1)& (0+255),7,b
  2404  002054  D7F8               	goto	l4784
  2405  002056                     l4788:
  2406                           
  2407                           ; BSR set to: 0
  2408  002056  0100               	movlb	0	; () banked
  2409  002058  51E1               	movf	___awmod@divisor& (0+255),w,b
  2410  00205A  0100               	movlb	0	; () banked
  2411  00205C  5DDF               	subwf	___awmod@dividend& (0+255),w,b
  2412  00205E  0100               	movlb	0	; () banked
  2413  002060  51E2               	movf	(___awmod@divisor+1)& (0+255),w,b
  2414  002062  0100               	movlb	0	; () banked
  2415  002064  59E0               	subwfb	(___awmod@dividend+1)& (0+255),w,b
  2416  002066  A0D8               	btfss	status,0,c
  2417  002068  D008               	goto	l4792
  2418                           
  2419                           ; BSR set to: 0
  2420  00206A  0100               	movlb	0	; () banked
  2421  00206C  51E1               	movf	___awmod@divisor& (0+255),w,b
  2422  00206E  0100               	movlb	0	; () banked
  2423  002070  5FDF               	subwf	___awmod@dividend& (0+255),f,b
  2424  002072  0100               	movlb	0	; () banked
  2425  002074  51E2               	movf	(___awmod@divisor+1)& (0+255),w,b
  2426  002076  0100               	movlb	0	; () banked
  2427  002078  5BE0               	subwfb	(___awmod@dividend+1)& (0+255),f,b
  2428  00207A                     l4792:
  2429                           
  2430                           ; BSR set to: 0
  2431  00207A  0100               	movlb	0	; () banked
  2432  00207C  90D8               	bcf	status,0,c
  2433  00207E  33E2               	rrcf	(___awmod@divisor+1)& (0+255),f,b
  2434  002080  33E1               	rrcf	___awmod@divisor& (0+255),f,b
  2435                           
  2436                           ; BSR set to: 0
  2437  002082  2E1D               	decfsz	___awmod@counter,f,c
  2438  002084  D7E8               	goto	l4788
  2439  002086                     l4796:
  2440                           
  2441                           ; BSR set to: 0
  2442  002086  501E               	movf	___awmod@sign,w,c
  2443  002088  B4D8               	btfsc	status,2,c
  2444  00208A  D005               	goto	l4800
  2445                           
  2446                           ; BSR set to: 0
  2447  00208C  0100               	movlb	0	; () banked
  2448  00208E  6DDF               	negf	___awmod@dividend& (0+255),b
  2449  002090  1FE0               	comf	(___awmod@dividend+1)& (0+255),f,b
  2450  002092  B0D8               	btfsc	status,0,c
  2451  002094  2BE0               	incf	(___awmod@dividend+1)& (0+255),f,b
  2452  002096                     l4800:
  2453                           
  2454                           ; BSR set to: 0
  2455  002096  C0DF  F0DF         	movff	___awmod@dividend,?___awmod
  2456  00209A  C0E0  F0E0         	movff	___awmod@dividend+1,?___awmod+1
  2457  00209E  0012               	return	
  2458  0020A0                     __end_of___awmod:
  2459                           	opt stack 0
  2460                           tblptru	equ	0xFF8
  2461                           tblptrh	equ	0xFF7
  2462                           tblptrl	equ	0xFF6
  2463                           tablat	equ	0xFF5
  2464                           prodh	equ	0xFF4
  2465                           prodl	equ	0xFF3
  2466                           intcon	equ	0xFF2
  2467                           intcon2	equ	0xFF1
  2468                           postinc0	equ	0xFEE
  2469                           wreg	equ	0xFE8
  2470                           indf1	equ	0xFE7
  2471                           postdec1	equ	0xFE5
  2472                           fsr1h	equ	0xFE2
  2473                           fsr1l	equ	0xFE1
  2474                           indf2	equ	0xFDF
  2475                           postinc2	equ	0xFDE
  2476                           postdec2	equ	0xFDD
  2477                           fsr2h	equ	0xFDA
  2478                           fsr2l	equ	0xFD9
  2479                           status	equ	0xFD8
  2480                           
  2481 ;; *************** function _clearEndTimes *****************
  2482 ;; Defined at:
  2483 ;;		line 1568 in file "SysRiego.c"
  2484 ;; Parameters:    Size  Location     Type
  2485 ;;		None
  2486 ;; Auto vars:     Size  Location     Type
  2487 ;;  j               1   20[BANK0 ] unsigned char 
  2488 ;;  zoneEndTime     2   17[BANK0 ] PTR unsigned char 
  2489 ;;		 -> endTimeZn3(5), endTimeZn2(5), endTimeZn1(5), 
  2490 ;;  i               1   19[BANK0 ] unsigned char 
  2491 ;; Return value:  Size  Location     Type
  2492 ;;                  1    wreg      void 
  2493 ;; Registers used:
  2494 ;;		wreg, fsr2l, fsr2h, status,2, status,0, prodl, prodh
  2495 ;; Tracked objects:
  2496 ;;		On entry : 0/0
  2497 ;;		On exit  : 0/0
  2498 ;;		Unchanged: 0/0
  2499 ;; Data sizes:     COMRAM   BANK0   BANK1   BANK2   BANK3   BANK4   BANK5   BANK6   BANK7   BANK8   BANK9  BANK10  BANK1
      +1  BANK12
  2500 ;;      Params:         0       0       0       0       0       0       0       0       0       0       0       0       
      +0       0
  2501 ;;      Locals:         0       4       0       0       0       0       0       0       0       0       0       0       
      +0       0
  2502 ;;      Temps:          0       0       0       0       0       0       0       0       0       0       0       0       
      +0       0
  2503 ;;      Totals:         0       4       0       0       0       0       0       0       0       0       0       0       
      +0       0
  2504 ;;Total ram usage:        4 bytes
  2505 ;; Hardware stack levels used:    1
  2506 ;; Hardware stack levels required when called:    8
  2507 ;; This function calls:
  2508 ;;		Nothing
  2509 ;; This function is called by:
  2510 ;;		_workingTimer
  2511 ;; This function uses a non-reentrant model
  2512 ;;
  2513                           
  2514                           	psect	text4
  2515  00229C                     __ptext4:
  2516                           	opt stack 0
  2517  00229C                     _clearEndTimes:
  2518                           	opt stack 21
  2519                           
  2520                           ;SysRiego.c: 1570: for(unsigned char i = 0; i < 3; i++) {
  2521                           
  2522                           ; BSR set to: 0
  2523                           ;incstack = 0
  2524  00229C  0E00               	movlw	0
  2525  00229E  0100               	movlb	0	; () banked
  2526  0022A0  6FE1               	movwf	clearEndTimes@i& (0+255),b
  2527  0022A2                     l4936:
  2528                           
  2529                           ; BSR set to: 0
  2530  0022A2  0E02               	movlw	2
  2531  0022A4  0100               	movlb	0	; () banked
  2532  0022A6  65E1               	cpfsgt	clearEndTimes@i& (0+255),b
  2533  0022A8  D001               	goto	l4940
  2534  0022AA  0012               	return	
  2535  0022AC                     l4940:
  2536                           
  2537                           ; BSR set to: 0
  2538                           ;SysRiego.c: 1572: unsigned char *zoneEndTime = zoneEndTimes[i];
  2539  0022AC  0100               	movlb	0	; () banked
  2540  0022AE  51E1               	movf	clearEndTimes@i& (0+255),w,b
  2541  0022B0  0D02               	mullw	2
  2542  0022B2  0E66               	movlw	low _zoneEndTimes
  2543  0022B4  24F3               	addwf	prodl,w,c
  2544  0022B6  6ED9               	movwf	fsr2l,c
  2545  0022B8  0E00               	movlw	high _zoneEndTimes
  2546  0022BA  20F4               	addwfc	prodh,w,c
  2547  0022BC  6EDA               	movwf	fsr2h,c
  2548  0022BE  CFDE F0DF          	movff	postinc2,clearEndTimes@zoneEndTime
  2549  0022C2  CFDD F0E0          	movff	postdec2,clearEndTimes@zoneEndTime+1
  2550                           
  2551                           ; BSR set to: 0
  2552                           ;SysRiego.c: 1574: for(unsigned char j = 0; j < 4; j++) {
  2553  0022C6  0E00               	movlw	0
  2554  0022C8  0100               	movlb	0	; () banked
  2555  0022CA  6FE2               	movwf	clearEndTimes@j& (0+255),b
  2556  0022CC                     l4944:
  2557                           
  2558                           ; BSR set to: 0
  2559  0022CC  0E03               	movlw	3
  2560  0022CE  0100               	movlb	0	; () banked
  2561  0022D0  65E2               	cpfsgt	clearEndTimes@j& (0+255),b
  2562  0022D2  D001               	goto	l4948
  2563  0022D4  D010               	goto	l4954
  2564  0022D6                     l4948:
  2565                           
  2566                           ; BSR set to: 0
  2567                           ;SysRiego.c: 1575: zoneEndTime[j] = '$';
  2568  0022D6  0100               	movlb	0	; () banked
  2569  0022D8  51E2               	movf	clearEndTimes@j& (0+255),w,b
  2570  0022DA  0D01               	mullw	1
  2571  0022DC  50F3               	movf	prodl,w,c
  2572  0022DE  0100               	movlb	0	; () banked
  2573  0022E0  25DF               	addwf	clearEndTimes@zoneEndTime& (0+255),w,b
  2574  0022E2  6ED9               	movwf	fsr2l,c
  2575  0022E4  50F4               	movf	prodh,w,c
  2576  0022E6  0100               	movlb	0	; () banked
  2577  0022E8  21E0               	addwfc	(clearEndTimes@zoneEndTime+1)& (0+255),w,b
  2578  0022EA  6EDA               	movwf	fsr2h,c
  2579  0022EC  0E24               	movlw	36
  2580  0022EE  6EDF               	movwf	indf2,c
  2581                           
  2582                           ; BSR set to: 0
  2583  0022F0  0100               	movlb	0	; () banked
  2584  0022F2  2BE2               	incf	clearEndTimes@j& (0+255),f,b
  2585  0022F4  D7EB               	goto	l4944
  2586  0022F6                     l4954:
  2587                           
  2588                           ; BSR set to: 0
  2589  0022F6  0100               	movlb	0	; () banked
  2590  0022F8  2BE1               	incf	clearEndTimes@i& (0+255),f,b
  2591  0022FA  D7D3               	goto	l4936
  2592  0022FC                     __end_of_clearEndTimes:
  2593                           	opt stack 0
  2594                           tblptru	equ	0xFF8
  2595                           tblptrh	equ	0xFF7
  2596                           tblptrl	equ	0xFF6
  2597                           tablat	equ	0xFF5
  2598                           prodh	equ	0xFF4
  2599                           prodl	equ	0xFF3
  2600                           intcon	equ	0xFF2
  2601                           intcon2	equ	0xFF1
  2602                           postinc0	equ	0xFEE
  2603                           wreg	equ	0xFE8
  2604                           indf1	equ	0xFE7
  2605                           postdec1	equ	0xFE5
  2606                           fsr1h	equ	0xFE2
  2607                           fsr1l	equ	0xFE1
  2608                           indf2	equ	0xFDF
  2609                           postinc2	equ	0xFDE
  2610                           postdec2	equ	0xFDD
  2611                           fsr2h	equ	0xFDA
  2612                           fsr2l	equ	0xFD9
  2613                           status	equ	0xFD8
  2614                           
  2615 ;; *************** function _workingManual *****************
  2616 ;; Defined at:
  2617 ;;		line 753 in file "SysRiego.c"
  2618 ;; Parameters:    Size  Location     Type
  2619 ;;		None
  2620 ;; Auto vars:     Size  Location     Type
  2621 ;;		None
  2622 ;; Return value:  Size  Location     Type
  2623 ;;                  1    wreg      void 
  2624 ;; Registers used:
  2625 ;;		wreg, fsr0l, fsr0h, status,2, status,0, tblptrl, tblptrh, tblptru, prodl, prodh, cstack
  2626 ;; Tracked objects:
  2627 ;;		On entry : 0/0
  2628 ;;		On exit  : 0/0
  2629 ;;		Unchanged: 0/0
  2630 ;; Data sizes:     COMRAM   BANK0   BANK1   BANK2   BANK3   BANK4   BANK5   BANK6   BANK7   BANK8   BANK9  BANK10  BANK1
      +1  BANK12
  2631 ;;      Params:         0       0       0       0       0       0       0       0       0       0       0       0       
      +0       0
  2632 ;;      Locals:         0       0       0       0       0       0       0       0       0       0       0       0       
      +0       0
  2633 ;;      Temps:          0       0       0       0       0       0       0       0       0       0       0       0       
      +0       0
  2634 ;;      Totals:         0       0       0       0       0       0       0       0       0       0       0       0       
      +0       0
  2635 ;;Total ram usage:        0 bytes
  2636 ;; Hardware stack levels used:    1
  2637 ;; Hardware stack levels required when called:   11
  2638 ;; This function calls:
  2639 ;;		_clearDisplay
  2640 ;;		_displayLineOnLCD
  2641 ;;		_stopIrrigateManual
  2642 ;; This function is called by:
  2643 ;;		_main
  2644 ;; This function uses a non-reentrant model
  2645 ;;
  2646                           
  2647                           	psect	text5
  2648  002406                     __ptext5:
  2649                           	opt stack 0
  2650  002406                     _workingManual:
  2651                           	opt stack 19
  2652                           
  2653                           ;SysRiego.c: 755: clearDisplay();
  2654                           
  2655                           ; BSR set to: 0
  2656                           ;incstack = 0
  2657  002406  ECF8  F013         	call	_clearDisplay	;wreg free
  2658                           
  2659                           ;SysRiego.c: 756: displayLineOnLCD(manualMessage, sizeof(manualMessage) / sizeof(manualM
      +                          essage[0]));
  2660  00240A  0E38               	movlw	low _manualMessage
  2661  00240C  0100               	movlb	0	; () banked
  2662  00240E  6FDF               	movwf	displayLineOnLCD@array& (0+255),b
  2663  002410  0E01               	movlw	high _manualMessage
  2664  002412  0100               	movlb	0	; () banked
  2665  002414  6FE0               	movwf	(displayLineOnLCD@array+1)& (0+255),b
  2666  002416  0E0C               	movlw	12
  2667  002418  0100               	movlb	0	; () banked
  2668  00241A  6FE1               	movwf	displayLineOnLCD@sizeOfArray& (0+255),b
  2669  00241C  EC50  F010         	call	_displayLineOnLCD	;wreg free
  2670  002420                     l5170:
  2671  002420  0E02               	movlw	2
  2672  002422  0100               	movlb	0	; () banked
  2673  002424  19ED               	xorwf	_modeSelected& (0+255),w,b
  2674  002426  A4D8               	btfss	status,2,c
  2675  002428  D004               	goto	l5174
  2676                           
  2677                           ; BSR set to: 0
  2678  00242A  0100               	movlb	0	; () banked
  2679  00242C  51EE               	movf	_statusConfiguration& (0+255),w,b
  2680  00242E  B4D8               	btfsc	status,2,c
  2681  002430  D7F7               	goto	l5170
  2682  002432                     l5174:
  2683                           
  2684                           ; BSR set to: 0
  2685                           ;SysRiego.c: 762: }
  2686                           ;SysRiego.c: 764: stopIrrigateManual();
  2687  002432  EC98  F013         	call	_stopIrrigateManual	;wreg free
  2688  002436  0012               	return		;funcret
  2689  002438                     __end_of_workingManual:
  2690                           	opt stack 0
  2691                           tblptru	equ	0xFF8
  2692                           tblptrh	equ	0xFF7
  2693                           tblptrl	equ	0xFF6
  2694                           tablat	equ	0xFF5
  2695                           prodh	equ	0xFF4
  2696                           prodl	equ	0xFF3
  2697                           intcon	equ	0xFF2
  2698                           intcon2	equ	0xFF1
  2699                           postinc0	equ	0xFEE
  2700                           wreg	equ	0xFE8
  2701                           indf1	equ	0xFE7
  2702                           postdec1	equ	0xFE5
  2703                           fsr1h	equ	0xFE2
  2704                           fsr1l	equ	0xFE1
  2705                           indf2	equ	0xFDF
  2706                           postinc2	equ	0xFDE
  2707                           postdec2	equ	0xFDD
  2708                           fsr2h	equ	0xFDA
  2709                           fsr2l	equ	0xFD9
  2710                           status	equ	0xFD8
  2711                           
  2712 ;; *************** function _stopIrrigateManual *****************
  2713 ;; Defined at:
  2714 ;;		line 1479 in file "SysRiego.c"
  2715 ;; Parameters:    Size  Location     Type
  2716 ;;		None
  2717 ;; Auto vars:     Size  Location     Type
  2718 ;;		None
  2719 ;; Return value:  Size  Location     Type
  2720 ;;                  1    wreg      void 
  2721 ;; Registers used:
  2722 ;;		wreg, status,2, status,0, cstack
  2723 ;; Tracked objects:
  2724 ;;		On entry : 0/0
  2725 ;;		On exit  : 0/0
  2726 ;;		Unchanged: 0/0
  2727 ;; Data sizes:     COMRAM   BANK0   BANK1   BANK2   BANK3   BANK4   BANK5   BANK6   BANK7   BANK8   BANK9  BANK10  BANK1
      +1  BANK12
  2728 ;;      Params:         0       0       0       0       0       0       0       0       0       0       0       0       
      +0       0
  2729 ;;      Locals:         0       0       0       0       0       0       0       0       0       0       0       0       
      +0       0
  2730 ;;      Temps:          0       0       0       0       0       0       0       0       0       0       0       0       
      +0       0
  2731 ;;      Totals:         0       0       0       0       0       0       0       0       0       0       0       0       
      +0       0
  2732 ;;Total ram usage:        0 bytes
  2733 ;; Hardware stack levels used:    1
  2734 ;; Hardware stack levels required when called:    9
  2735 ;; This function calls:
  2736 ;;		_stopIrrigation
  2737 ;; This function is called by:
  2738 ;;		_workingManual
  2739 ;; This function uses a non-reentrant model
  2740 ;;
  2741                           
  2742                           	psect	text6
  2743  002730                     __ptext6:
  2744                           	opt stack 0
  2745  002730                     _stopIrrigateManual:
  2746                           	opt stack 20
  2747                           
  2748                           ;SysRiego.c: 1481: stopIrrigation(1);
  2749                           
  2750                           ;incstack = 0
  2751  002730  0E01               	movlw	1
  2752  002732  ECBA  F012         	call	_stopIrrigation
  2753                           
  2754                           ;SysRiego.c: 1482: stopIrrigation(2);
  2755  002736  0E02               	movlw	2
  2756  002738  ECBA  F012         	call	_stopIrrigation
  2757                           
  2758                           ;SysRiego.c: 1483: stopIrrigation(3);
  2759  00273C  0E03               	movlw	3
  2760  00273E  ECBA  F012         	call	_stopIrrigation
  2761                           
  2762                           ;SysRiego.c: 1485: irrigateManualStatus = 0;
  2763  002742  0E00               	movlw	0
  2764  002744  6E3F               	movwf	_irrigateManualStatus,c
  2765  002746  0012               	return		;funcret
  2766  002748                     __end_of_stopIrrigateManual:
  2767                           	opt stack 0
  2768                           tblptru	equ	0xFF8
  2769                           tblptrh	equ	0xFF7
  2770                           tblptrl	equ	0xFF6
  2771                           tablat	equ	0xFF5
  2772                           prodh	equ	0xFF4
  2773                           prodl	equ	0xFF3
  2774                           intcon	equ	0xFF2
  2775                           intcon2	equ	0xFF1
  2776                           postinc0	equ	0xFEE
  2777                           wreg	equ	0xFE8
  2778                           indf1	equ	0xFE7
  2779                           postdec1	equ	0xFE5
  2780                           fsr1h	equ	0xFE2
  2781                           fsr1l	equ	0xFE1
  2782                           indf2	equ	0xFDF
  2783                           postinc2	equ	0xFDE
  2784                           postdec2	equ	0xFDD
  2785                           fsr2h	equ	0xFDA
  2786                           fsr2l	equ	0xFD9
  2787                           status	equ	0xFD8
  2788                           
  2789 ;; *************** function _workingAutomatic *****************
  2790 ;; Defined at:
  2791 ;;		line 639 in file "SysRiego.c"
  2792 ;; Parameters:    Size  Location     Type
  2793 ;;		None
  2794 ;; Auto vars:     Size  Location     Type
  2795 ;;  i               1   26[BANK1 ] unsigned char 
  2796 ;; Return value:  Size  Location     Type
  2797 ;;                  1    wreg      void 
  2798 ;; Registers used:
  2799 ;;		wreg, fsr0l, fsr0h, fsr2l, fsr2h, status,2, status,0, tblptrl, tblptrh, tblptru, prodl, prodh, cstack
  2800 ;; Tracked objects:
  2801 ;;		On entry : 0/0
  2802 ;;		On exit  : 0/0
  2803 ;;		Unchanged: 0/0
  2804 ;; Data sizes:     COMRAM   BANK0   BANK1   BANK2   BANK3   BANK4   BANK5   BANK6   BANK7   BANK8   BANK9  BANK10  BANK1
      +1  BANK12
  2805 ;;      Params:         0       0       0       0       0       0       0       0       0       0       0       0       
      +0       0
  2806 ;;      Locals:         0       0       1       0       0       0       0       0       0       0       0       0       
      +0       0
  2807 ;;      Temps:          0       0       2       0       0       0       0       0       0       0       0       0       
      +0       0
  2808 ;;      Totals:         0       0       3       0       0       0       0       0       0       0       0       0       
      +0       0
  2809 ;;Total ram usage:        3 bytes
  2810 ;; Hardware stack levels used:    1
  2811 ;; Hardware stack levels required when called:   11
  2812 ;; This function calls:
  2813 ;;		___ftge
  2814 ;;		___ftmul
  2815 ;;		___lbtoft
  2816 ;;		___lwtoft
  2817 ;;		_clearDisplay
  2818 ;;		_disableACInterrupts
  2819 ;;		_displayLineOnLCD
  2820 ;;		_enableACInterrupts
  2821 ;;		_startAC
  2822 ;;		_startIrrigation
  2823 ;;		_stopAllIrrigation
  2824 ;;		_stopIrrigation
  2825 ;; This function is called by:
  2826 ;;		_main
  2827 ;; This function uses a non-reentrant model
  2828 ;;
  2829                           
  2830                           	psect	text7
  2831  001CB8                     __ptext7:
  2832                           	opt stack 0
  2833  001CB8                     _workingAutomatic:
  2834                           	opt stack 19
  2835                           
  2836                           ;SysRiego.c: 641: enableACInterrupts();
  2837                           
  2838                           ;incstack = 0
  2839  001CB8  ECA4  F013         	call	_enableACInterrupts	;wreg free
  2840                           
  2841                           ;SysRiego.c: 643: clearDisplay();
  2842  001CBC  ECF8  F013         	call	_clearDisplay	;wreg free
  2843                           
  2844                           ;SysRiego.c: 644: displayLineOnLCD(automaticMessage, sizeof(automaticMessage) / sizeof(a
      +                          utomaticMessage[0]));
  2845  001CC0  0E29               	movlw	low _automaticMessage
  2846  001CC2  0100               	movlb	0	; () banked
  2847  001CC4  6FDF               	movwf	displayLineOnLCD@array& (0+255),b
  2848  001CC6  0E01               	movlw	high _automaticMessage
  2849  001CC8  0100               	movlb	0	; () banked
  2850  001CCA  6FE0               	movwf	(displayLineOnLCD@array+1)& (0+255),b
  2851  001CCC  0E0F               	movlw	15
  2852  001CCE  0100               	movlb	0	; () banked
  2853  001CD0  6FE1               	movwf	displayLineOnLCD@sizeOfArray& (0+255),b
  2854  001CD2  EC50  F010         	call	_displayLineOnLCD	;wreg free
  2855                           
  2856                           ;SysRiego.c: 646: while(modeSelected == 0 && statusConfiguration == 0) {
  2857  001CD6  D051               	goto	l5064
  2858  001CD8                     l5046:
  2859                           
  2860                           ;SysRiego.c: 648: for(unsigned char i = 0; i < 3; i++) {
  2861  001CD8  0E00               	movlw	0
  2862  001CDA  0101               	movlb	1	; () banked
  2863  001CDC  6F69               	movwf	workingAutomatic@i& (0+255),b
  2864  001CDE                     l5048:
  2865                           
  2866                           ; BSR set to: 1
  2867  001CDE  0E02               	movlw	2
  2868  001CE0  0101               	movlb	1	; () banked
  2869  001CE2  6569               	cpfsgt	workingAutomatic@i& (0+255),b
  2870  001CE4  D001               	goto	l5052
  2871  001CE6  D049               	goto	l5064
  2872  001CE8                     l5052:
  2873                           
  2874                           ; BSR set to: 1
  2875                           ;SysRiego.c: 650: startAC(i + 1);
  2876  001CE8  0101               	movlb	1	; () banked
  2877  001CEA  2969               	incf	workingAutomatic@i& (0+255),w,b
  2878  001CEC  ECE9  F011         	call	_startAC
  2879                           
  2880                           ;SysRiego.c: 651: if( ADRES < (*humidityZnValuesInt[i] * CONVERSIONRATE)){
  2881  001CF0  CFC3 F0E4          	movff	4035,___lwtoft@c	;volatile
  2882  001CF4  CFC4 F0E5          	movff	4036,___lwtoft@c+1	;volatile
  2883  001CF8  EC90  F012         	call	___lwtoft	;wreg free
  2884  001CFC  C0E4  F15E         	movff	?___lwtoft,___ftge@ff1
  2885  001D00  C0E5  F15F         	movff	?___lwtoft+1,___ftge@ff1+1
  2886  001D04  C0E6  F160         	movff	?___lwtoft+2,___ftge@ff1+2
  2887  001D08  C06C  F152         	movff	_CONVERSIONRATE,___ftmul@f2
  2888  001D0C  C06D  F153         	movff	_CONVERSIONRATE+1,___ftmul@f2+1
  2889  001D10  C06E  F154         	movff	_CONVERSIONRATE+2,___ftmul@f2+2
  2890  001D14  0101               	movlb	1	; () banked
  2891  001D16  5169               	movf	workingAutomatic@i& (0+255),w,b
  2892  001D18  0D02               	mullw	2
  2893  001D1A  0E60               	movlw	low _humidityZnValuesInt
  2894  001D1C  24F3               	addwf	prodl,w,c
  2895  001D1E  6ED9               	movwf	fsr2l,c
  2896  001D20  0E00               	movlw	high _humidityZnValuesInt
  2897  001D22  20F4               	addwfc	prodh,w,c
  2898  001D24  6EDA               	movwf	fsr2h,c
  2899  001D26  CFDE F167          	movff	postinc2,??_workingAutomatic
  2900  001D2A  CFDD F168          	movff	postdec2,??_workingAutomatic+1
  2901  001D2E  C167  FFD9         	movff	??_workingAutomatic,fsr2l
  2902  001D32  C168  FFDA         	movff	??_workingAutomatic+1,fsr2h
  2903  001D36  50DF               	movf	indf2,w,c
  2904  001D38  EC4C  F012         	call	___lbtoft
  2905  001D3C  C0E4  F14F         	movff	?___lbtoft,___ftmul@f1
  2906  001D40  C0E5  F150         	movff	?___lbtoft+1,___ftmul@f1+1
  2907  001D44  C0E6  F151         	movff	?___lbtoft+2,___ftmul@f1+2
  2908  001D48  ECF3  F009         	call	___ftmul	;wreg free
  2909  001D4C  C14F  F161         	movff	?___ftmul,___ftge@ff2
  2910  001D50  C150  F162         	movff	?___ftmul+1,___ftge@ff2+1
  2911  001D54  C151  F163         	movff	?___ftmul+2,___ftge@ff2+2
  2912  001D58  ECA2  F00F         	call	___ftge	;wreg free
  2913  001D5C  0101               	movlb	1	; () banked
  2914  001D5E  B0D8               	btfsc	status,0,c
  2915  001D60  D005               	goto	l5058
  2916                           
  2917                           ; BSR set to: 1
  2918                           ;SysRiego.c: 652: startIrrigation(i + 1);
  2919  001D62  0101               	movlb	1	; () banked
  2920  001D64  2969               	incf	workingAutomatic@i& (0+255),w,b
  2921  001D66  ECCD  F012         	call	_startIrrigation
  2922                           
  2923                           ;SysRiego.c: 653: }
  2924  001D6A  D004               	goto	l5060
  2925  001D6C                     l5058:
  2926                           
  2927                           ;SysRiego.c: 654: else {
  2928                           ;SysRiego.c: 655: stopIrrigation(i + 1);
  2929  001D6C  0101               	movlb	1	; () banked
  2930  001D6E  2969               	incf	workingAutomatic@i& (0+255),w,b
  2931  001D70  ECBA  F012         	call	_stopIrrigation
  2932  001D74                     l5060:
  2933  001D74  0101               	movlb	1	; () banked
  2934  001D76  2B69               	incf	workingAutomatic@i& (0+255),f,b
  2935  001D78  D7B2               	goto	l5048
  2936  001D7A                     l5064:
  2937  001D7A  0100               	movlb	0	; () banked
  2938  001D7C  51ED               	movf	_modeSelected& (0+255),w,b
  2939  001D7E  A4D8               	btfss	status,2,c
  2940  001D80  D004               	goto	l5068
  2941                           
  2942                           ; BSR set to: 0
  2943  001D82  0100               	movlb	0	; () banked
  2944  001D84  51EE               	movf	_statusConfiguration& (0+255),w,b
  2945  001D86  B4D8               	btfsc	status,2,c
  2946  001D88  D7A7               	goto	l5046
  2947  001D8A                     l5068:
  2948                           
  2949                           ; BSR set to: 0
  2950                           ;SysRiego.c: 656: }
  2951                           ;SysRiego.c: 658: }
  2952                           ;SysRiego.c: 660: }
  2953                           ;SysRiego.c: 662: stopAllIrrigation();
  2954  001D8A  ECBC  F013         	call	_stopAllIrrigation	;wreg free
  2955                           
  2956                           ;SysRiego.c: 664: disableACInterrupts();
  2957  001D8E  ECC6  F013         	call	_disableACInterrupts	;wreg free
  2958  001D92  0012               	return		;funcret
  2959  001D94                     __end_of_workingAutomatic:
  2960                           	opt stack 0
  2961                           tblptru	equ	0xFF8
  2962                           tblptrh	equ	0xFF7
  2963                           tblptrl	equ	0xFF6
  2964                           tablat	equ	0xFF5
  2965                           prodh	equ	0xFF4
  2966                           prodl	equ	0xFF3
  2967                           intcon	equ	0xFF2
  2968                           intcon2	equ	0xFF1
  2969                           postinc0	equ	0xFEE
  2970                           wreg	equ	0xFE8
  2971                           indf1	equ	0xFE7
  2972                           postdec1	equ	0xFE5
  2973                           fsr1h	equ	0xFE2
  2974                           fsr1l	equ	0xFE1
  2975                           indf2	equ	0xFDF
  2976                           postinc2	equ	0xFDE
  2977                           postdec2	equ	0xFDD
  2978                           fsr2h	equ	0xFDA
  2979                           fsr2l	equ	0xFD9
  2980                           status	equ	0xFD8
  2981                           
  2982 ;; *************** function _stopAllIrrigation *****************
  2983 ;; Defined at:
  2984 ;;		line 1582 in file "SysRiego.c"
  2985 ;; Parameters:    Size  Location     Type
  2986 ;;		None
  2987 ;; Auto vars:     Size  Location     Type
  2988 ;;		None
  2989 ;; Return value:  Size  Location     Type
  2990 ;;                  1    wreg      void 
  2991 ;; Registers used:
  2992 ;;		wreg, status,2, status,0, cstack
  2993 ;; Tracked objects:
  2994 ;;		On entry : 0/0
  2995 ;;		On exit  : 0/0
  2996 ;;		Unchanged: 0/0
  2997 ;; Data sizes:     COMRAM   BANK0   BANK1   BANK2   BANK3   BANK4   BANK5   BANK6   BANK7   BANK8   BANK9  BANK10  BANK1
      +1  BANK12
  2998 ;;      Params:         0       0       0       0       0       0       0       0       0       0       0       0       
      +0       0
  2999 ;;      Locals:         0       0       0       0       0       0       0       0       0       0       0       0       
      +0       0
  3000 ;;      Temps:          0       0       0       0       0       0       0       0       0       0       0       0       
      +0       0
  3001 ;;      Totals:         0       0       0       0       0       0       0       0       0       0       0       0       
      +0       0
  3002 ;;Total ram usage:        0 bytes
  3003 ;; Hardware stack levels used:    1
  3004 ;; Hardware stack levels required when called:    9
  3005 ;; This function calls:
  3006 ;;		_stopIrrigation
  3007 ;; This function is called by:
  3008 ;;		_workingAutomatic
  3009 ;;		_workingTimer
  3010 ;; This function uses a non-reentrant model
  3011 ;;
  3012                           
  3013                           	psect	text8
  3014  002778                     __ptext8:
  3015                           	opt stack 0
  3016  002778                     _stopAllIrrigation:
  3017                           	opt stack 20
  3018                           
  3019                           ;SysRiego.c: 1584: stopIrrigation(1);
  3020                           
  3021                           ;incstack = 0
  3022  002778  0E01               	movlw	1
  3023  00277A  ECBA  F012         	call	_stopIrrigation
  3024                           
  3025                           ;SysRiego.c: 1585: stopIrrigation(2);
  3026  00277E  0E02               	movlw	2
  3027  002780  ECBA  F012         	call	_stopIrrigation
  3028                           
  3029                           ;SysRiego.c: 1586: stopIrrigation(3);
  3030  002784  0E03               	movlw	3
  3031  002786  ECBA  F012         	call	_stopIrrigation
  3032  00278A  0012               	return		;funcret
  3033  00278C                     __end_of_stopAllIrrigation:
  3034                           	opt stack 0
  3035                           tblptru	equ	0xFF8
  3036                           tblptrh	equ	0xFF7
  3037                           tblptrl	equ	0xFF6
  3038                           tablat	equ	0xFF5
  3039                           prodh	equ	0xFF4
  3040                           prodl	equ	0xFF3
  3041                           intcon	equ	0xFF2
  3042                           intcon2	equ	0xFF1
  3043                           postinc0	equ	0xFEE
  3044                           wreg	equ	0xFE8
  3045                           indf1	equ	0xFE7
  3046                           postdec1	equ	0xFE5
  3047                           fsr1h	equ	0xFE2
  3048                           fsr1l	equ	0xFE1
  3049                           indf2	equ	0xFDF
  3050                           postinc2	equ	0xFDE
  3051                           postdec2	equ	0xFDD
  3052                           fsr2h	equ	0xFDA
  3053                           fsr2l	equ	0xFD9
  3054                           status	equ	0xFD8
  3055                           
  3056 ;; *************** function _stopIrrigation *****************
  3057 ;; Defined at:
  3058 ;;		line 1441 in file "SysRiego.c"
  3059 ;; Parameters:    Size  Location     Type
  3060 ;;  zone            1    wreg     unsigned char 
  3061 ;; Auto vars:     Size  Location     Type
  3062 ;;  zone            1   28[COMRAM] unsigned char 
  3063 ;; Return value:  Size  Location     Type
  3064 ;;                  1    wreg      void 
  3065 ;; Registers used:
  3066 ;;		wreg, status,2, status,0
  3067 ;; Tracked objects:
  3068 ;;		On entry : 0/0
  3069 ;;		On exit  : 0/0
  3070 ;;		Unchanged: 0/0
  3071 ;; Data sizes:     COMRAM   BANK0   BANK1   BANK2   BANK3   BANK4   BANK5   BANK6   BANK7   BANK8   BANK9  BANK10  BANK1
      +1  BANK12
  3072 ;;      Params:         0       0       0       0       0       0       0       0       0       0       0       0       
      +0       0
  3073 ;;      Locals:         1       0       0       0       0       0       0       0       0       0       0       0       
      +0       0
  3074 ;;      Temps:          0       0       0       0       0       0       0       0       0       0       0       0       
      +0       0
  3075 ;;      Totals:         1       0       0       0       0       0       0       0       0       0       0       0       
      +0       0
  3076 ;;Total ram usage:        1 bytes
  3077 ;; Hardware stack levels used:    1
  3078 ;; Hardware stack levels required when called:    8
  3079 ;; This function calls:
  3080 ;;		Nothing
  3081 ;; This function is called by:
  3082 ;;		_workingAutomatic
  3083 ;;		_workingTimer
  3084 ;;		_stopIrrigateManual
  3085 ;;		_stopAllIrrigation
  3086 ;; This function uses a non-reentrant model
  3087 ;;
  3088                           
  3089                           	psect	text9
  3090  002574                     __ptext9:
  3091                           	opt stack 0
  3092  002574                     _stopIrrigation:
  3093                           	opt stack 21
  3094                           
  3095                           ;incstack = 0
  3096                           ;stopIrrigation@zone stored from wreg
  3097  002574  6E1D               	movwf	stopIrrigation@zone,c
  3098                           
  3099                           ;SysRiego.c: 1443: switch(zone) {
  3100  002576  D006               	goto	l4708
  3101  002578                     l635:
  3102                           
  3103                           ;SysRiego.c: 1446: PORTEbits.RE0 = 0;
  3104  002578  9084               	bcf	3972,0,c	;volatile
  3105                           
  3106                           ;SysRiego.c: 1447: break;
  3107  00257A  0012               	return	
  3108  00257C                     l637:
  3109                           
  3110                           ;SysRiego.c: 1450: PORTEbits.RE1 = 0;
  3111  00257C  9284               	bcf	3972,1,c	;volatile
  3112                           
  3113                           ;SysRiego.c: 1451: break;
  3114  00257E  0012               	return	
  3115  002580                     l638:
  3116                           
  3117                           ;SysRiego.c: 1454: PORTEbits.RE2 = 0;
  3118  002580  9484               	bcf	3972,2,c	;volatile
  3119                           
  3120                           ;SysRiego.c: 1457: }
  3121                           
  3122                           ;SysRiego.c: 1455: break;
  3123  002582  0012               	return	
  3124  002584                     l4708:
  3125  002584  501D               	movf	stopIrrigation@zone,w,c
  3126                           
  3127                           ; Switch size 1, requested type "space"
  3128                           ; Number of cases is 3, Range of values is 1 to 3
  3129                           ; switch strategies available:
  3130                           ; Name         Instructions Cycles
  3131                           ; simple_byte           10     6 (average)
  3132                           ;	Chosen strategy is simple_byte
  3133  002586  0A01               	xorlw	1	; case 1
  3134  002588  B4D8               	btfsc	status,2,c
  3135  00258A  D7F6               	goto	l635
  3136  00258C  0A03               	xorlw	3	; case 2
  3137  00258E  B4D8               	btfsc	status,2,c
  3138  002590  D7F5               	goto	l637
  3139  002592  0A01               	xorlw	1	; case 3
  3140  002594  A4D8               	btfss	status,2,c
  3141  002596  0012               	return	
  3142  002598  D7F3               	goto	l638
  3143  00259A                     __end_of_stopIrrigation:
  3144                           	opt stack 0
  3145                           tblptru	equ	0xFF8
  3146                           tblptrh	equ	0xFF7
  3147                           tblptrl	equ	0xFF6
  3148                           tablat	equ	0xFF5
  3149                           prodh	equ	0xFF4
  3150                           prodl	equ	0xFF3
  3151                           intcon	equ	0xFF2
  3152                           intcon2	equ	0xFF1
  3153                           postinc0	equ	0xFEE
  3154                           wreg	equ	0xFE8
  3155                           indf1	equ	0xFE7
  3156                           postdec1	equ	0xFE5
  3157                           fsr1h	equ	0xFE2
  3158                           fsr1l	equ	0xFE1
  3159                           indf2	equ	0xFDF
  3160                           postinc2	equ	0xFDE
  3161                           postdec2	equ	0xFDD
  3162                           fsr2h	equ	0xFDA
  3163                           fsr2l	equ	0xFD9
  3164                           status	equ	0xFD8
  3165                           
  3166 ;; *************** function _startIrrigation *****************
  3167 ;; Defined at:
  3168 ;;		line 1421 in file "SysRiego.c"
  3169 ;; Parameters:    Size  Location     Type
  3170 ;;  zone            1    wreg     unsigned char 
  3171 ;; Auto vars:     Size  Location     Type
  3172 ;;  zone            1   28[COMRAM] unsigned char 
  3173 ;; Return value:  Size  Location     Type
  3174 ;;                  1    wreg      void 
  3175 ;; Registers used:
  3176 ;;		wreg, status,2, status,0
  3177 ;; Tracked objects:
  3178 ;;		On entry : 0/0
  3179 ;;		On exit  : 0/0
  3180 ;;		Unchanged: 0/0
  3181 ;; Data sizes:     COMRAM   BANK0   BANK1   BANK2   BANK3   BANK4   BANK5   BANK6   BANK7   BANK8   BANK9  BANK10  BANK1
      +1  BANK12
  3182 ;;      Params:         0       0       0       0       0       0       0       0       0       0       0       0       
      +0       0
  3183 ;;      Locals:         1       0       0       0       0       0       0       0       0       0       0       0       
      +0       0
  3184 ;;      Temps:          0       0       0       0       0       0       0       0       0       0       0       0       
      +0       0
  3185 ;;      Totals:         1       0       0       0       0       0       0       0       0       0       0       0       
      +0       0
  3186 ;;Total ram usage:        1 bytes
  3187 ;; Hardware stack levels used:    1
  3188 ;; Hardware stack levels required when called:    8
  3189 ;; This function calls:
  3190 ;;		Nothing
  3191 ;; This function is called by:
  3192 ;;		_workingAutomatic
  3193 ;;		_workingTimer
  3194 ;; This function uses a non-reentrant model
  3195 ;;
  3196                           
  3197                           	psect	text10
  3198  00259A                     __ptext10:
  3199                           	opt stack 0
  3200  00259A                     _startIrrigation:
  3201                           	opt stack 21
  3202                           
  3203                           ;incstack = 0
  3204                           ;startIrrigation@zone stored from wreg
  3205  00259A  6E1D               	movwf	startIrrigation@zone,c
  3206                           
  3207                           ;SysRiego.c: 1423: switch(zone) {
  3208  00259C  D006               	goto	l4880
  3209  00259E                     l627:
  3210                           
  3211                           ;SysRiego.c: 1426: PORTEbits.RE0 = 1;
  3212  00259E  8084               	bsf	3972,0,c	;volatile
  3213                           
  3214                           ;SysRiego.c: 1427: break;
  3215  0025A0  0012               	return	
  3216  0025A2                     l629:
  3217                           
  3218                           ;SysRiego.c: 1430: PORTEbits.RE1 = 1;
  3219  0025A2  8284               	bsf	3972,1,c	;volatile
  3220                           
  3221                           ;SysRiego.c: 1431: break;
  3222  0025A4  0012               	return	
  3223  0025A6                     l630:
  3224                           
  3225                           ;SysRiego.c: 1434: PORTEbits.RE2 = 1;
  3226  0025A6  8484               	bsf	3972,2,c	;volatile
  3227                           
  3228                           ;SysRiego.c: 1437: }
  3229                           
  3230                           ;SysRiego.c: 1435: break;
  3231  0025A8  0012               	return	
  3232  0025AA                     l4880:
  3233  0025AA  501D               	movf	startIrrigation@zone,w,c
  3234                           
  3235                           ; Switch size 1, requested type "space"
  3236                           ; Number of cases is 3, Range of values is 1 to 3
  3237                           ; switch strategies available:
  3238                           ; Name         Instructions Cycles
  3239                           ; simple_byte           10     6 (average)
  3240                           ;	Chosen strategy is simple_byte
  3241  0025AC  0A01               	xorlw	1	; case 1
  3242  0025AE  B4D8               	btfsc	status,2,c
  3243  0025B0  D7F6               	goto	l627
  3244  0025B2  0A03               	xorlw	3	; case 2
  3245  0025B4  B4D8               	btfsc	status,2,c
  3246  0025B6  D7F5               	goto	l629
  3247  0025B8  0A01               	xorlw	1	; case 3
  3248  0025BA  A4D8               	btfss	status,2,c
  3249  0025BC  0012               	return	
  3250  0025BE  D7F3               	goto	l630
  3251  0025C0                     __end_of_startIrrigation:
  3252                           	opt stack 0
  3253                           tblptru	equ	0xFF8
  3254                           tblptrh	equ	0xFF7
  3255                           tblptrl	equ	0xFF6
  3256                           tablat	equ	0xFF5
  3257                           prodh	equ	0xFF4
  3258                           prodl	equ	0xFF3
  3259                           intcon	equ	0xFF2
  3260                           intcon2	equ	0xFF1
  3261                           postinc0	equ	0xFEE
  3262                           wreg	equ	0xFE8
  3263                           indf1	equ	0xFE7
  3264                           postdec1	equ	0xFE5
  3265                           fsr1h	equ	0xFE2
  3266                           fsr1l	equ	0xFE1
  3267                           indf2	equ	0xFDF
  3268                           postinc2	equ	0xFDE
  3269                           postdec2	equ	0xFDD
  3270                           fsr2h	equ	0xFDA
  3271                           fsr2l	equ	0xFD9
  3272                           status	equ	0xFD8
  3273                           
  3274 ;; *************** function _startAC *****************
  3275 ;; Defined at:
  3276 ;;		line 1520 in file "SysRiego.c"
  3277 ;; Parameters:    Size  Location     Type
  3278 ;;  acChannel       1    wreg     unsigned char 
  3279 ;; Auto vars:     Size  Location     Type
  3280 ;;  acChannel       1   28[COMRAM] unsigned char 
  3281 ;; Return value:  Size  Location     Type
  3282 ;;                  1    wreg      void 
  3283 ;; Registers used:
  3284 ;;		wreg, status,2, status,0
  3285 ;; Tracked objects:
  3286 ;;		On entry : 0/0
  3287 ;;		On exit  : 0/0
  3288 ;;		Unchanged: 0/0
  3289 ;; Data sizes:     COMRAM   BANK0   BANK1   BANK2   BANK3   BANK4   BANK5   BANK6   BANK7   BANK8   BANK9  BANK10  BANK1
      +1  BANK12
  3290 ;;      Params:         0       0       0       0       0       0       0       0       0       0       0       0       
      +0       0
  3291 ;;      Locals:         1       0       0       0       0       0       0       0       0       0       0       0       
      +0       0
  3292 ;;      Temps:          0       0       0       0       0       0       0       0       0       0       0       0       
      +0       0
  3293 ;;      Totals:         1       0       0       0       0       0       0       0       0       0       0       0       
      +0       0
  3294 ;;Total ram usage:        1 bytes
  3295 ;; Hardware stack levels used:    1
  3296 ;; Hardware stack levels required when called:    8
  3297 ;; This function calls:
  3298 ;;		Nothing
  3299 ;; This function is called by:
  3300 ;;		_workingAutomatic
  3301 ;; This function uses a non-reentrant model
  3302 ;;
  3303                           
  3304                           	psect	text11
  3305  0023D2                     __ptext11:
  3306                           	opt stack 0
  3307  0023D2                     _startAC:
  3308                           	opt stack 21
  3309                           
  3310                           ;incstack = 0
  3311                           ;startAC@acChannel stored from wreg
  3312  0023D2  6E1D               	movwf	startAC@acChannel,c
  3313                           
  3314                           ;SysRiego.c: 1523: PIR1bits.ADIF = 0;
  3315  0023D4  9C9E               	bcf	3998,6,c	;volatile
  3316                           
  3317                           ;SysRiego.c: 1525: PIE1bits.ADIE = 1;
  3318  0023D6  8C9D               	bsf	3997,6,c	;volatile
  3319                           
  3320                           ;SysRiego.c: 1527: switch(acChannel) {
  3321  0023D8  D007               	goto	l4874
  3322  0023DA                     l4866:
  3323                           
  3324                           ;SysRiego.c: 1530: ADCON0 = 0x01;
  3325  0023DA  0E01               	movlw	1
  3326  0023DC  D003               	goto	L2
  3327  0023DE                     l4868:
  3328                           
  3329                           ;SysRiego.c: 1534: ADCON0 = 0x05;
  3330  0023DE  0E05               	movlw	5
  3331  0023E0  D001               	goto	L2
  3332  0023E2                     l4870:
  3333                           
  3334                           ;SysRiego.c: 1538: ADCON0 = 0x09;
  3335  0023E2  0E09               	movlw	9
  3336  0023E4                     L2:
  3337  0023E4  6EC2               	movwf	4034,c	;volatile
  3338                           
  3339                           ;SysRiego.c: 1541: }
  3340                           
  3341                           ;SysRiego.c: 1539: break;
  3342  0023E6  D00A               	goto	l659
  3343  0023E8                     l4874:
  3344  0023E8  501D               	movf	startAC@acChannel,w,c
  3345                           
  3346                           ; Switch size 1, requested type "space"
  3347                           ; Number of cases is 3, Range of values is 1 to 3
  3348                           ; switch strategies available:
  3349                           ; Name         Instructions Cycles
  3350                           ; simple_byte           10     6 (average)
  3351                           ;	Chosen strategy is simple_byte
  3352  0023EA  0A01               	xorlw	1	; case 1
  3353  0023EC  B4D8               	btfsc	status,2,c
  3354  0023EE  D7F5               	goto	l4866
  3355  0023F0  0A03               	xorlw	3	; case 2
  3356  0023F2  B4D8               	btfsc	status,2,c
  3357  0023F4  D7F4               	goto	l4868
  3358  0023F6  0A01               	xorlw	1	; case 3
  3359  0023F8  B4D8               	btfsc	status,2,c
  3360  0023FA  D7F3               	goto	l4870
  3361  0023FC                     l659:
  3362                           
  3363                           ;SysRiego.c: 1543: ADCON0bits.GO_DONE = 1;
  3364  0023FC  82C2               	bsf	4034,1,c	;volatile
  3365  0023FE                     l662:
  3366  0023FE  B2C2               	btfsc	4034,1,c	;volatile
  3367  002400  D7FE               	goto	l662
  3368                           
  3369                           ;SysRiego.c: 1548: PIE1bits.ADIE = 0;
  3370  002402  9C9D               	bcf	3997,6,c	;volatile
  3371  002404  0012               	return		;funcret
  3372  002406                     __end_of_startAC:
  3373                           	opt stack 0
  3374                           tblptru	equ	0xFF8
  3375                           tblptrh	equ	0xFF7
  3376                           tblptrl	equ	0xFF6
  3377                           tablat	equ	0xFF5
  3378                           prodh	equ	0xFF4
  3379                           prodl	equ	0xFF3
  3380                           intcon	equ	0xFF2
  3381                           intcon2	equ	0xFF1
  3382                           postinc0	equ	0xFEE
  3383                           wreg	equ	0xFE8
  3384                           indf1	equ	0xFE7
  3385                           postdec1	equ	0xFE5
  3386                           fsr1h	equ	0xFE2
  3387                           fsr1l	equ	0xFE1
  3388                           indf2	equ	0xFDF
  3389                           postinc2	equ	0xFDE
  3390                           postdec2	equ	0xFDD
  3391                           fsr2h	equ	0xFDA
  3392                           fsr2l	equ	0xFD9
  3393                           status	equ	0xFD8
  3394                           
  3395 ;; *************** function _enableACInterrupts *****************
  3396 ;; Defined at:
  3397 ;;		line 1500 in file "SysRiego.c"
  3398 ;; Parameters:    Size  Location     Type
  3399 ;;		None
  3400 ;; Auto vars:     Size  Location     Type
  3401 ;;		None
  3402 ;; Return value:  Size  Location     Type
  3403 ;;                  1    wreg      void 
  3404 ;; Registers used:
  3405 ;;		wreg, status,2
  3406 ;; Tracked objects:
  3407 ;;		On entry : 0/0
  3408 ;;		On exit  : 0/0
  3409 ;;		Unchanged: 0/0
  3410 ;; Data sizes:     COMRAM   BANK0   BANK1   BANK2   BANK3   BANK4   BANK5   BANK6   BANK7   BANK8   BANK9  BANK10  BANK1
      +1  BANK12
  3411 ;;      Params:         0       0       0       0       0       0       0       0       0       0       0       0       
      +0       0
  3412 ;;      Locals:         0       0       0       0       0       0       0       0       0       0       0       0       
      +0       0
  3413 ;;      Temps:          0       0       0       0       0       0       0       0       0       0       0       0       
      +0       0
  3414 ;;      Totals:         0       0       0       0       0       0       0       0       0       0       0       0       
      +0       0
  3415 ;;Total ram usage:        0 bytes
  3416 ;; Hardware stack levels used:    1
  3417 ;; Hardware stack levels required when called:    8
  3418 ;; This function calls:
  3419 ;;		Nothing
  3420 ;; This function is called by:
  3421 ;;		_workingAutomatic
  3422 ;; This function uses a non-reentrant model
  3423 ;;
  3424                           
  3425                           	psect	text12
  3426  002748                     __ptext12:
  3427                           	opt stack 0
  3428  002748                     _enableACInterrupts:
  3429                           	opt stack 21
  3430                           
  3431                           ;SysRiego.c: 1502: PORTA = 0X00;
  3432                           
  3433                           ;incstack = 0
  3434  002748  0E00               	movlw	0
  3435  00274A  6E80               	movwf	3968,c	;volatile
  3436                           
  3437                           ;SysRiego.c: 1503: LATA = 0X00;
  3438  00274C  0E00               	movlw	0
  3439  00274E  6E89               	movwf	3977,c	;volatile
  3440                           
  3441                           ;SysRiego.c: 1504: TRISA = 0X00;
  3442  002750  0E00               	movlw	0
  3443  002752  6E92               	movwf	3986,c	;volatile
  3444                           
  3445                           ;SysRiego.c: 1506: TRISAbits.RA0 = 1;
  3446  002754  8092               	bsf	3986,0,c	;volatile
  3447                           
  3448                           ;SysRiego.c: 1507: TRISAbits.RA1 = 1;
  3449  002756  8292               	bsf	3986,1,c	;volatile
  3450                           
  3451                           ;SysRiego.c: 1508: TRISAbits.RA2 = 1;
  3452  002758  8492               	bsf	3986,2,c	;volatile
  3453                           
  3454                           ;SysRiego.c: 1511: PIE1bits.ADIE = 0;
  3455  00275A  9C9D               	bcf	3997,6,c	;volatile
  3456                           
  3457                           ;SysRiego.c: 1514: IPR1bits.ADIP = 1;
  3458  00275C  8C9F               	bsf	3999,6,c	;volatile
  3459  00275E  0012               	return		;funcret
  3460  002760                     __end_of_enableACInterrupts:
  3461                           	opt stack 0
  3462                           tblptru	equ	0xFF8
  3463                           tblptrh	equ	0xFF7
  3464                           tblptrl	equ	0xFF6
  3465                           tablat	equ	0xFF5
  3466                           prodh	equ	0xFF4
  3467                           prodl	equ	0xFF3
  3468                           intcon	equ	0xFF2
  3469                           intcon2	equ	0xFF1
  3470                           postinc0	equ	0xFEE
  3471                           wreg	equ	0xFE8
  3472                           indf1	equ	0xFE7
  3473                           postdec1	equ	0xFE5
  3474                           fsr1h	equ	0xFE2
  3475                           fsr1l	equ	0xFE1
  3476                           indf2	equ	0xFDF
  3477                           postinc2	equ	0xFDE
  3478                           postdec2	equ	0xFDD
  3479                           fsr2h	equ	0xFDA
  3480                           fsr2l	equ	0xFD9
  3481                           status	equ	0xFD8
  3482                           
  3483 ;; *************** function _disableACInterrupts *****************
  3484 ;; Defined at:
  3485 ;;		line 1552 in file "SysRiego.c"
  3486 ;; Parameters:    Size  Location     Type
  3487 ;;		None
  3488 ;; Auto vars:     Size  Location     Type
  3489 ;;		None
  3490 ;; Return value:  Size  Location     Type
  3491 ;;                  1    wreg      void 
  3492 ;; Registers used:
  3493 ;;		wreg, status,2
  3494 ;; Tracked objects:
  3495 ;;		On entry : 0/0
  3496 ;;		On exit  : 0/0
  3497 ;;		Unchanged: 0/0
  3498 ;; Data sizes:     COMRAM   BANK0   BANK1   BANK2   BANK3   BANK4   BANK5   BANK6   BANK7   BANK8   BANK9  BANK10  BANK1
      +1  BANK12
  3499 ;;      Params:         0       0       0       0       0       0       0       0       0       0       0       0       
      +0       0
  3500 ;;      Locals:         0       0       0       0       0       0       0       0       0       0       0       0       
      +0       0
  3501 ;;      Temps:          0       0       0       0       0       0       0       0       0       0       0       0       
      +0       0
  3502 ;;      Totals:         0       0       0       0       0       0       0       0       0       0       0       0       
      +0       0
  3503 ;;Total ram usage:        0 bytes
  3504 ;; Hardware stack levels used:    1
  3505 ;; Hardware stack levels required when called:    8
  3506 ;; This function calls:
  3507 ;;		Nothing
  3508 ;; This function is called by:
  3509 ;;		_workingAutomatic
  3510 ;; This function uses a non-reentrant model
  3511 ;;
  3512                           
  3513                           	psect	text13
  3514  00278C                     __ptext13:
  3515                           	opt stack 0
  3516  00278C                     _disableACInterrupts:
  3517                           	opt stack 21
  3518                           
  3519                           ;SysRiego.c: 1554: PORTA = 0X00;
  3520                           
  3521                           ;incstack = 0
  3522  00278C  0E00               	movlw	0
  3523  00278E  6E80               	movwf	3968,c	;volatile
  3524                           
  3525                           ;SysRiego.c: 1555: LATA = 0X00;
  3526  002790  0E00               	movlw	0
  3527  002792  6E89               	movwf	3977,c	;volatile
  3528                           
  3529                           ;SysRiego.c: 1556: TRISA = 0X00;
  3530  002794  0E00               	movlw	0
  3531  002796  6E92               	movwf	3986,c	;volatile
  3532                           
  3533                           ;SysRiego.c: 1559: PIE1bits.ADIE = 0;
  3534  002798  9C9D               	bcf	3997,6,c	;volatile
  3535                           
  3536                           ;SysRiego.c: 1562: PIR1bits.ADIF = 0;
  3537  00279A  9C9E               	bcf	3998,6,c	;volatile
  3538                           
  3539                           ;SysRiego.c: 1564: ADCON0bits.GO_DONE = 0;
  3540  00279C  92C2               	bcf	4034,1,c	;volatile
  3541  00279E  0012               	return		;funcret
  3542  0027A0                     __end_of_disableACInterrupts:
  3543                           	opt stack 0
  3544                           tblptru	equ	0xFF8
  3545                           tblptrh	equ	0xFF7
  3546                           tblptrl	equ	0xFF6
  3547                           tablat	equ	0xFF5
  3548                           prodh	equ	0xFF4
  3549                           prodl	equ	0xFF3
  3550                           intcon	equ	0xFF2
  3551                           intcon2	equ	0xFF1
  3552                           postinc0	equ	0xFEE
  3553                           wreg	equ	0xFE8
  3554                           indf1	equ	0xFE7
  3555                           postdec1	equ	0xFE5
  3556                           fsr1h	equ	0xFE2
  3557                           fsr1l	equ	0xFE1
  3558                           indf2	equ	0xFDF
  3559                           postinc2	equ	0xFDE
  3560                           postdec2	equ	0xFDD
  3561                           fsr2h	equ	0xFDA
  3562                           fsr2l	equ	0xFD9
  3563                           status	equ	0xFD8
  3564                           
  3565 ;; *************** function ___lwtoft *****************
  3566 ;; Defined at:
  3567 ;;		line 28 in file "/Applications/microchip/xc8/v1.36/sources/common/lwtoft.c"
  3568 ;; Parameters:    Size  Location     Type
  3569 ;;  c               2   22[BANK0 ] unsigned int 
  3570 ;; Auto vars:     Size  Location     Type
  3571 ;;		None
  3572 ;; Return value:  Size  Location     Type
  3573 ;;                  3   22[BANK0 ] float 
  3574 ;; Registers used:
  3575 ;;		wreg, status,2, status,0, cstack
  3576 ;; Tracked objects:
  3577 ;;		On entry : 0/0
  3578 ;;		On exit  : 0/0
  3579 ;;		Unchanged: 0/0
  3580 ;; Data sizes:     COMRAM   BANK0   BANK1   BANK2   BANK3   BANK4   BANK5   BANK6   BANK7   BANK8   BANK9  BANK10  BANK1
      +1  BANK12
  3581 ;;      Params:         0       3       0       0       0       0       0       0       0       0       0       0       
      +0       0
  3582 ;;      Locals:         0       0       0       0       0       0       0       0       0       0       0       0       
      +0       0
  3583 ;;      Temps:          0       0       0       0       0       0       0       0       0       0       0       0       
      +0       0
  3584 ;;      Totals:         0       3       0       0       0       0       0       0       0       0       0       0       
      +0       0
  3585 ;;Total ram usage:        3 bytes
  3586 ;; Hardware stack levels used:    1
  3587 ;; Hardware stack levels required when called:    9
  3588 ;; This function calls:
  3589 ;;		___ftpack
  3590 ;; This function is called by:
  3591 ;;		_workingAutomatic
  3592 ;; This function uses a non-reentrant model
  3593 ;;
  3594                           
  3595                           	psect	text14
  3596  002520                     __ptext14:
  3597                           	opt stack 0
  3598  002520                     ___lwtoft:
  3599                           	opt stack 20
  3600                           
  3601                           ;incstack = 0
  3602  002520  C0E4  F0DF         	movff	___lwtoft@c,___ftpack@arg
  3603  002524  C0E5  F0E0         	movff	___lwtoft@c+1,___ftpack@arg+1
  3604  002528  0100               	movlb	0	; () banked
  3605  00252A  6BE1               	clrf	(___ftpack@arg+2)& (0+255),b
  3606  00252C  0E8E               	movlw	142
  3607  00252E  0100               	movlb	0	; () banked
  3608  002530  6FE2               	movwf	___ftpack@exp& (0+255),b
  3609  002532  0E00               	movlw	0
  3610  002534  0100               	movlb	0	; () banked
  3611  002536  6FE3               	movwf	___ftpack@sign& (0+255),b
  3612  002538  ECFD  F00C         	call	___ftpack	;wreg free
  3613  00253C  C0DF  F0E4         	movff	?___ftpack,?___lwtoft
  3614  002540  C0E0  F0E5         	movff	?___ftpack+1,?___lwtoft+1
  3615  002544  C0E1  F0E6         	movff	?___ftpack+2,?___lwtoft+2
  3616  002548  0012               	return	
  3617  00254A                     __end_of___lwtoft:
  3618                           	opt stack 0
  3619                           tblptru	equ	0xFF8
  3620                           tblptrh	equ	0xFF7
  3621                           tblptrl	equ	0xFF6
  3622                           tablat	equ	0xFF5
  3623                           prodh	equ	0xFF4
  3624                           prodl	equ	0xFF3
  3625                           intcon	equ	0xFF2
  3626                           intcon2	equ	0xFF1
  3627                           postinc0	equ	0xFEE
  3628                           wreg	equ	0xFE8
  3629                           indf1	equ	0xFE7
  3630                           postdec1	equ	0xFE5
  3631                           fsr1h	equ	0xFE2
  3632                           fsr1l	equ	0xFE1
  3633                           indf2	equ	0xFDF
  3634                           postinc2	equ	0xFDE
  3635                           postdec2	equ	0xFDD
  3636                           fsr2h	equ	0xFDA
  3637                           fsr2l	equ	0xFD9
  3638                           status	equ	0xFD8
  3639                           
  3640 ;; *************** function ___lbtoft *****************
  3641 ;; Defined at:
  3642 ;;		line 27 in file "/Applications/microchip/xc8/v1.36/sources/common/lbtoft.c"
  3643 ;; Parameters:    Size  Location     Type
  3644 ;;  c               1    wreg     unsigned char 
  3645 ;; Auto vars:     Size  Location     Type
  3646 ;;  c               1   25[BANK0 ] unsigned char 
  3647 ;; Return value:  Size  Location     Type
  3648 ;;                  3   22[BANK0 ] float 
  3649 ;; Registers used:
  3650 ;;		wreg, status,2, status,0, cstack
  3651 ;; Tracked objects:
  3652 ;;		On entry : 0/0
  3653 ;;		On exit  : 0/0
  3654 ;;		Unchanged: 0/0
  3655 ;; Data sizes:     COMRAM   BANK0   BANK1   BANK2   BANK3   BANK4   BANK5   BANK6   BANK7   BANK8   BANK9  BANK10  BANK1
      +1  BANK12
  3656 ;;      Params:         0       3       0       0       0       0       0       0       0       0       0       0       
      +0       0
  3657 ;;      Locals:         0       1       0       0       0       0       0       0       0       0       0       0       
      +0       0
  3658 ;;      Temps:          0       0       0       0       0       0       0       0       0       0       0       0       
      +0       0
  3659 ;;      Totals:         0       4       0       0       0       0       0       0       0       0       0       0       
      +0       0
  3660 ;;Total ram usage:        4 bytes
  3661 ;; Hardware stack levels used:    1
  3662 ;; Hardware stack levels required when called:    9
  3663 ;; This function calls:
  3664 ;;		___ftpack
  3665 ;; This function is called by:
  3666 ;;		_workingAutomatic
  3667 ;; This function uses a non-reentrant model
  3668 ;;
  3669                           
  3670                           	psect	text15
  3671  002498                     __ptext15:
  3672                           	opt stack 0
  3673  002498                     ___lbtoft:
  3674                           	opt stack 20
  3675                           
  3676                           ;incstack = 0
  3677                           ;___lbtoft@c stored from wreg
  3678  002498  0100               	movlb	0	; () banked
  3679  00249A  6FE7               	movwf	___lbtoft@c& (0+255),b
  3680  00249C  0100               	movlb	0	; () banked
  3681  00249E  51E7               	movf	___lbtoft@c& (0+255),w,b
  3682  0024A0  0100               	movlb	0	; () banked
  3683  0024A2  6FDF               	movwf	___ftpack@arg& (0+255),b
  3684  0024A4  6BE0               	clrf	(___ftpack@arg+1)& (0+255),b
  3685  0024A6  6BE1               	clrf	(___ftpack@arg+2)& (0+255),b
  3686  0024A8  0E8E               	movlw	142
  3687  0024AA  0100               	movlb	0	; () banked
  3688  0024AC  6FE2               	movwf	___ftpack@exp& (0+255),b
  3689  0024AE  0E00               	movlw	0
  3690  0024B0  0100               	movlb	0	; () banked
  3691  0024B2  6FE3               	movwf	___ftpack@sign& (0+255),b
  3692  0024B4  ECFD  F00C         	call	___ftpack	;wreg free
  3693  0024B8  C0DF  F0E4         	movff	?___ftpack,?___lbtoft
  3694  0024BC  C0E0  F0E5         	movff	?___ftpack+1,?___lbtoft+1
  3695  0024C0  C0E1  F0E6         	movff	?___ftpack+2,?___lbtoft+2
  3696  0024C4  0012               	return	
  3697  0024C6                     __end_of___lbtoft:
  3698                           	opt stack 0
  3699                           tblptru	equ	0xFF8
  3700                           tblptrh	equ	0xFF7
  3701                           tblptrl	equ	0xFF6
  3702                           tablat	equ	0xFF5
  3703                           prodh	equ	0xFF4
  3704                           prodl	equ	0xFF3
  3705                           intcon	equ	0xFF2
  3706                           intcon2	equ	0xFF1
  3707                           postinc0	equ	0xFEE
  3708                           wreg	equ	0xFE8
  3709                           indf1	equ	0xFE7
  3710                           postdec1	equ	0xFE5
  3711                           fsr1h	equ	0xFE2
  3712                           fsr1l	equ	0xFE1
  3713                           indf2	equ	0xFDF
  3714                           postinc2	equ	0xFDE
  3715                           postdec2	equ	0xFDD
  3716                           fsr2h	equ	0xFDA
  3717                           fsr2l	equ	0xFD9
  3718                           status	equ	0xFD8
  3719                           
  3720 ;; *************** function ___ftmul *****************
  3721 ;; Defined at:
  3722 ;;		line 62 in file "/Applications/microchip/xc8/v1.36/sources/common/ftmul.c"
  3723 ;; Parameters:    Size  Location     Type
  3724 ;;  f1              3    0[BANK1 ] float 
  3725 ;;  f2              3    3[BANK1 ] float 
  3726 ;; Auto vars:     Size  Location     Type
  3727 ;;  f3_as_produc    3   10[BANK1 ] unsigned um
  3728 ;;  sign            1   14[BANK1 ] unsigned char 
  3729 ;;  cntr            1   13[BANK1 ] unsigned char 
  3730 ;;  exp             1    9[BANK1 ] unsigned char 
  3731 ;; Return value:  Size  Location     Type
  3732 ;;                  3    0[BANK1 ] float 
  3733 ;; Registers used:
  3734 ;;		wreg, status,2, status,0, cstack
  3735 ;; Tracked objects:
  3736 ;;		On entry : 0/0
  3737 ;;		On exit  : 0/0
  3738 ;;		Unchanged: 0/0
  3739 ;; Data sizes:     COMRAM   BANK0   BANK1   BANK2   BANK3   BANK4   BANK5   BANK6   BANK7   BANK8   BANK9  BANK10  BANK1
      +1  BANK12
  3740 ;;      Params:         0       0       6       0       0       0       0       0       0       0       0       0       
      +0       0
  3741 ;;      Locals:         0       0       6       0       0       0       0       0       0       0       0       0       
      +0       0
  3742 ;;      Temps:          0       0       3       0       0       0       0       0       0       0       0       0       
      +0       0
  3743 ;;      Totals:         0       0      15       0       0       0       0       0       0       0       0       0       
      +0       0
  3744 ;;Total ram usage:       15 bytes
  3745 ;; Hardware stack levels used:    1
  3746 ;; Hardware stack levels required when called:    9
  3747 ;; This function calls:
  3748 ;;		___ftpack
  3749 ;; This function is called by:
  3750 ;;		_workingAutomatic
  3751 ;; This function uses a non-reentrant model
  3752 ;;
  3753                           
  3754                           	psect	text16
  3755  0013E6                     __ptext16:
  3756                           	opt stack 0
  3757  0013E6                     ___ftmul:
  3758                           	opt stack 20
  3759                           
  3760                           ;incstack = 0
  3761  0013E6  C151  F155         	movff	___ftmul@f1+2,??___ftmul
  3762  0013EA  0101               	movlb	1	; () banked
  3763  0013EC  6B56               	clrf	(??___ftmul+1)& (0+255),b
  3764  0013EE  6B57               	clrf	(??___ftmul+2)& (0+255),b
  3765  0013F0  0101               	movlb	1	; () banked
  3766  0013F2  3550               	rlcf	(___ftmul@f1+1)& (0+255),w,b
  3767  0013F4  0101               	movlb	1	; () banked
  3768  0013F6  3755               	rlcf	??___ftmul& (0+255),f,b
  3769  0013F8  E301               	bnc	u4761
  3770  0013FA  8156               	bsf	(??___ftmul+1)& (0+255),0,b
  3771  0013FC                     u4761:
  3772  0013FC  0101               	movlb	1	; () banked
  3773  0013FE  5155               	movf	??___ftmul& (0+255),w,b
  3774  001400  0101               	movlb	1	; () banked
  3775  001402  6F58               	movwf	___ftmul@exp& (0+255),b
  3776  001404  0101               	movlb	1	; () banked
  3777  001406  5158               	movf	___ftmul@exp& (0+255),w,b
  3778  001408  A4D8               	btfss	status,2,c
  3779  00140A  D00A               	goto	l4968
  3780                           
  3781                           ; BSR set to: 1
  3782  00140C  0E00               	movlw	0
  3783  00140E  0101               	movlb	1	; () banked
  3784  001410  6F4F               	movwf	?___ftmul& (0+255),b
  3785  001412  0E00               	movlw	0
  3786  001414  0101               	movlb	1	; () banked
  3787  001416  6F50               	movwf	(?___ftmul+1)& (0+255),b
  3788  001418  0E00               	movlw	0
  3789  00141A  0101               	movlb	1	; () banked
  3790  00141C  6F51               	movwf	(?___ftmul+2)& (0+255),b
  3791                           
  3792                           ; BSR set to: 1
  3793  00141E  0012               	return	
  3794  001420                     l4968:
  3795                           
  3796                           ; BSR set to: 1
  3797  001420  C154  F155         	movff	___ftmul@f2+2,??___ftmul
  3798  001424  0101               	movlb	1	; () banked
  3799  001426  6B56               	clrf	(??___ftmul+1)& (0+255),b
  3800  001428  6B57               	clrf	(??___ftmul+2)& (0+255),b
  3801  00142A  0101               	movlb	1	; () banked
  3802  00142C  3553               	rlcf	(___ftmul@f2+1)& (0+255),w,b
  3803  00142E  0101               	movlb	1	; () banked
  3804  001430  3755               	rlcf	??___ftmul& (0+255),f,b
  3805  001432  E301               	bnc	u4781
  3806  001434  8156               	bsf	(??___ftmul+1)& (0+255),0,b
  3807  001436                     u4781:
  3808  001436  0101               	movlb	1	; () banked
  3809  001438  5155               	movf	??___ftmul& (0+255),w,b
  3810  00143A  0101               	movlb	1	; () banked
  3811  00143C  6F5D               	movwf	___ftmul@sign& (0+255),b
  3812  00143E  0101               	movlb	1	; () banked
  3813  001440  515D               	movf	___ftmul@sign& (0+255),w,b
  3814  001442  A4D8               	btfss	status,2,c
  3815  001444  D00A               	goto	l4974
  3816                           
  3817                           ; BSR set to: 1
  3818  001446  0E00               	movlw	0
  3819  001448  0101               	movlb	1	; () banked
  3820  00144A  6F4F               	movwf	?___ftmul& (0+255),b
  3821  00144C  0E00               	movlw	0
  3822  00144E  0101               	movlb	1	; () banked
  3823  001450  6F50               	movwf	(?___ftmul+1)& (0+255),b
  3824  001452  0E00               	movlw	0
  3825  001454  0101               	movlb	1	; () banked
  3826  001456  6F51               	movwf	(?___ftmul+2)& (0+255),b
  3827                           
  3828                           ; BSR set to: 1
  3829  001458  0012               	return	
  3830  00145A                     l4974:
  3831                           
  3832                           ; BSR set to: 1
  3833  00145A  0101               	movlb	1	; () banked
  3834  00145C  515D               	movf	___ftmul@sign& (0+255),w,b
  3835  00145E  0F7B               	addlw	123
  3836  001460  0101               	movlb	1	; () banked
  3837  001462  2758               	addwf	___ftmul@exp& (0+255),f,b
  3838                           
  3839                           ; BSR set to: 1
  3840  001464  C151  F15D         	movff	___ftmul@f1+2,___ftmul@sign
  3841  001468  0101               	movlb	1	; () banked
  3842  00146A  5154               	movf	(___ftmul@f2+2)& (0+255),w,b
  3843  00146C  0101               	movlb	1	; () banked
  3844  00146E  1B5D               	xorwf	___ftmul@sign& (0+255),f,b
  3845  001470  0E80               	movlw	128
  3846  001472  0101               	movlb	1	; () banked
  3847  001474  175D               	andwf	___ftmul@sign& (0+255),f,b
  3848                           
  3849                           ; BSR set to: 1
  3850  001476  0101               	movlb	1	; () banked
  3851  001478  8F50               	bsf	(___ftmul@f1+1)& (0+255),7,b
  3852                           
  3853                           ; BSR set to: 1
  3854  00147A  0101               	movlb	1	; () banked
  3855  00147C  8F53               	bsf	(___ftmul@f2+1)& (0+255),7,b
  3856                           
  3857                           ; BSR set to: 1
  3858  00147E  0EFF               	movlw	255
  3859  001480  0101               	movlb	1	; () banked
  3860  001482  1752               	andwf	___ftmul@f2& (0+255),f,b
  3861  001484  0EFF               	movlw	255
  3862  001486  0101               	movlb	1	; () banked
  3863  001488  1753               	andwf	(___ftmul@f2+1)& (0+255),f,b
  3864  00148A  0E00               	movlw	0
  3865  00148C  0101               	movlb	1	; () banked
  3866  00148E  1754               	andwf	(___ftmul@f2+2)& (0+255),f,b
  3867                           
  3868                           ; BSR set to: 1
  3869  001490  0E00               	movlw	0
  3870  001492  0101               	movlb	1	; () banked
  3871  001494  6F59               	movwf	___ftmul@f3_as_product& (0+255),b
  3872  001496  0E00               	movlw	0
  3873  001498  0101               	movlb	1	; () banked
  3874  00149A  6F5A               	movwf	(___ftmul@f3_as_product+1)& (0+255),b
  3875  00149C  0E00               	movlw	0
  3876  00149E  0101               	movlb	1	; () banked
  3877  0014A0  6F5B               	movwf	(___ftmul@f3_as_product+2)& (0+255),b
  3878                           
  3879                           ; BSR set to: 1
  3880  0014A2  0E07               	movlw	7
  3881  0014A4  0101               	movlb	1	; () banked
  3882  0014A6  6F5C               	movwf	___ftmul@cntr& (0+255),b
  3883  0014A8                     l4988:
  3884                           
  3885                           ; BSR set to: 1
  3886  0014A8  0101               	movlb	1	; () banked
  3887  0014AA  A14F               	btfss	___ftmul@f1& (0+255),0,b
  3888  0014AC  D00C               	goto	l4992
  3889                           
  3890                           ; BSR set to: 1
  3891  0014AE  0101               	movlb	1	; () banked
  3892  0014B0  5152               	movf	___ftmul@f2& (0+255),w,b
  3893  0014B2  0101               	movlb	1	; () banked
  3894  0014B4  2759               	addwf	___ftmul@f3_as_product& (0+255),f,b
  3895  0014B6  0101               	movlb	1	; () banked
  3896  0014B8  5153               	movf	(___ftmul@f2+1)& (0+255),w,b
  3897  0014BA  0101               	movlb	1	; () banked
  3898  0014BC  235A               	addwfc	(___ftmul@f3_as_product+1)& (0+255),f,b
  3899  0014BE  0101               	movlb	1	; () banked
  3900  0014C0  5154               	movf	(___ftmul@f2+2)& (0+255),w,b
  3901  0014C2  0101               	movlb	1	; () banked
  3902  0014C4  235B               	addwfc	(___ftmul@f3_as_product+2)& (0+255),f,b
  3903  0014C6                     l4992:
  3904                           
  3905                           ; BSR set to: 1
  3906  0014C6  0101               	movlb	1	; () banked
  3907  0014C8  90D8               	bcf	status,0,c
  3908  0014CA  3351               	rrcf	(___ftmul@f1+2)& (0+255),f,b
  3909  0014CC  3350               	rrcf	(___ftmul@f1+1)& (0+255),f,b
  3910  0014CE  334F               	rrcf	___ftmul@f1& (0+255),f,b
  3911  0014D0  0101               	movlb	1	; () banked
  3912  0014D2  90D8               	bcf	status,0,c
  3913  0014D4  3752               	rlcf	___ftmul@f2& (0+255),f,b
  3914  0014D6  3753               	rlcf	(___ftmul@f2+1)& (0+255),f,b
  3915  0014D8  3754               	rlcf	(___ftmul@f2+2)& (0+255),f,b
  3916                           
  3917                           ; BSR set to: 1
  3918  0014DA  0101               	movlb	1	; () banked
  3919  0014DC  2F5C               	decfsz	___ftmul@cntr& (0+255),f,b
  3920  0014DE  D7E4               	goto	l4988
  3921                           
  3922                           ; BSR set to: 1
  3923                           
  3924                           ; BSR set to: 1
  3925  0014E0  0E09               	movlw	9
  3926  0014E2  0101               	movlb	1	; () banked
  3927  0014E4  6F5C               	movwf	___ftmul@cntr& (0+255),b
  3928  0014E6                     l4998:
  3929                           
  3930                           ; BSR set to: 1
  3931  0014E6  0101               	movlb	1	; () banked
  3932  0014E8  A14F               	btfss	___ftmul@f1& (0+255),0,b
  3933  0014EA  D00C               	goto	l5002
  3934                           
  3935                           ; BSR set to: 1
  3936  0014EC  0101               	movlb	1	; () banked
  3937  0014EE  5152               	movf	___ftmul@f2& (0+255),w,b
  3938  0014F0  0101               	movlb	1	; () banked
  3939  0014F2  2759               	addwf	___ftmul@f3_as_product& (0+255),f,b
  3940  0014F4  0101               	movlb	1	; () banked
  3941  0014F6  5153               	movf	(___ftmul@f2+1)& (0+255),w,b
  3942  0014F8  0101               	movlb	1	; () banked
  3943  0014FA  235A               	addwfc	(___ftmul@f3_as_product+1)& (0+255),f,b
  3944  0014FC  0101               	movlb	1	; () banked
  3945  0014FE  5154               	movf	(___ftmul@f2+2)& (0+255),w,b
  3946  001500  0101               	movlb	1	; () banked
  3947  001502  235B               	addwfc	(___ftmul@f3_as_product+2)& (0+255),f,b
  3948  001504                     l5002:
  3949                           
  3950                           ; BSR set to: 1
  3951  001504  0101               	movlb	1	; () banked
  3952  001506  90D8               	bcf	status,0,c
  3953  001508  3351               	rrcf	(___ftmul@f1+2)& (0+255),f,b
  3954  00150A  3350               	rrcf	(___ftmul@f1+1)& (0+255),f,b
  3955  00150C  334F               	rrcf	___ftmul@f1& (0+255),f,b
  3956  00150E  0101               	movlb	1	; () banked
  3957  001510  90D8               	bcf	status,0,c
  3958  001512  335B               	rrcf	(___ftmul@f3_as_product+2)& (0+255),f,b
  3959  001514  335A               	rrcf	(___ftmul@f3_as_product+1)& (0+255),f,b
  3960  001516  3359               	rrcf	___ftmul@f3_as_product& (0+255),f,b
  3961                           
  3962                           ; BSR set to: 1
  3963  001518  0101               	movlb	1	; () banked
  3964  00151A  2F5C               	decfsz	___ftmul@cntr& (0+255),f,b
  3965  00151C  D7E4               	goto	l4998
  3966                           
  3967                           ; BSR set to: 1
  3968                           
  3969                           ; BSR set to: 1
  3970  00151E  C159  F0DF         	movff	___ftmul@f3_as_product,___ftpack@arg
  3971  001522  C15A  F0E0         	movff	___ftmul@f3_as_product+1,___ftpack@arg+1
  3972  001526  C15B  F0E1         	movff	___ftmul@f3_as_product+2,___ftpack@arg+2
  3973  00152A  C158  F0E2         	movff	___ftmul@exp,___ftpack@exp
  3974  00152E  C15D  F0E3         	movff	___ftmul@sign,___ftpack@sign
  3975  001532  ECFD  F00C         	call	___ftpack	;wreg free
  3976  001536  C0DF  F14F         	movff	?___ftpack,?___ftmul
  3977  00153A  C0E0  F150         	movff	?___ftpack+1,?___ftmul+1
  3978  00153E  C0E1  F151         	movff	?___ftpack+2,?___ftmul+2
  3979  001542  0012               	return	
  3980  001544                     __end_of___ftmul:
  3981                           	opt stack 0
  3982                           tblptru	equ	0xFF8
  3983                           tblptrh	equ	0xFF7
  3984                           tblptrl	equ	0xFF6
  3985                           tablat	equ	0xFF5
  3986                           prodh	equ	0xFF4
  3987                           prodl	equ	0xFF3
  3988                           intcon	equ	0xFF2
  3989                           intcon2	equ	0xFF1
  3990                           postinc0	equ	0xFEE
  3991                           wreg	equ	0xFE8
  3992                           indf1	equ	0xFE7
  3993                           postdec1	equ	0xFE5
  3994                           fsr1h	equ	0xFE2
  3995                           fsr1l	equ	0xFE1
  3996                           indf2	equ	0xFDF
  3997                           postinc2	equ	0xFDE
  3998                           postdec2	equ	0xFDD
  3999                           fsr2h	equ	0xFDA
  4000                           fsr2l	equ	0xFD9
  4001                           status	equ	0xFD8
  4002                           
  4003 ;; *************** function ___ftpack *****************
  4004 ;; Defined at:
  4005 ;;		line 62 in file "/Applications/microchip/xc8/v1.36/sources/common/float.c"
  4006 ;; Parameters:    Size  Location     Type
  4007 ;;  arg             3   17[BANK0 ] unsigned um
  4008 ;;  exp             1   20[BANK0 ] unsigned char 
  4009 ;;  sign            1   21[BANK0 ] unsigned char 
  4010 ;; Auto vars:     Size  Location     Type
  4011 ;;		None
  4012 ;; Return value:  Size  Location     Type
  4013 ;;                  3   17[BANK0 ] float 
  4014 ;; Registers used:
  4015 ;;		wreg, status,2, status,0
  4016 ;; Tracked objects:
  4017 ;;		On entry : 0/0
  4018 ;;		On exit  : 0/0
  4019 ;;		Unchanged: 0/0
  4020 ;; Data sizes:     COMRAM   BANK0   BANK1   BANK2   BANK3   BANK4   BANK5   BANK6   BANK7   BANK8   BANK9  BANK10  BANK1
      +1  BANK12
  4021 ;;      Params:         0       5       0       0       0       0       0       0       0       0       0       0       
      +0       0
  4022 ;;      Locals:         0       0       0       0       0       0       0       0       0       0       0       0       
      +0       0
  4023 ;;      Temps:          3       0       0       0       0       0       0       0       0       0       0       0       
      +0       0
  4024 ;;      Totals:         3       5       0       0       0       0       0       0       0       0       0       0       
      +0       0
  4025 ;;Total ram usage:        8 bytes
  4026 ;; Hardware stack levels used:    1
  4027 ;; Hardware stack levels required when called:    8
  4028 ;; This function calls:
  4029 ;;		Nothing
  4030 ;; This function is called by:
  4031 ;;		___ftmul
  4032 ;;		___lbtoft
  4033 ;;		___lwtoft
  4034 ;; This function uses a non-reentrant model
  4035 ;;
  4036                           
  4037                           	psect	text17
  4038  0019FA                     __ptext17:
  4039                           	opt stack 0
  4040  0019FA                     ___ftpack:
  4041                           	opt stack 20
  4042                           
  4043                           ;incstack = 0
  4044  0019FA  0100               	movlb	0	; () banked
  4045  0019FC  51E2               	movf	___ftpack@exp& (0+255),w,b
  4046  0019FE  0100               	movlb	0	; () banked
  4047  001A00  B4D8               	btfsc	status,2,c
  4048  001A02  D008               	goto	l4736
  4049                           
  4050                           ; BSR set to: 0
  4051  001A04  0100               	movlb	0	; () banked
  4052  001A06  51DF               	movf	___ftpack@arg& (0+255),w,b
  4053  001A08  0100               	movlb	0	; () banked
  4054  001A0A  11E0               	iorwf	(___ftpack@arg+1)& (0+255),w,b
  4055  001A0C  0100               	movlb	0	; () banked
  4056  001A0E  11E1               	iorwf	(___ftpack@arg+2)& (0+255),w,b
  4057  001A10  A4D8               	btfss	status,2,c
  4058  001A12  D011               	goto	l4742
  4059  001A14                     l4736:
  4060                           
  4061                           ; BSR set to: 0
  4062  001A14  0E00               	movlw	0
  4063  001A16  0100               	movlb	0	; () banked
  4064  001A18  6FDF               	movwf	?___ftpack& (0+255),b
  4065  001A1A  0E00               	movlw	0
  4066  001A1C  0100               	movlb	0	; () banked
  4067  001A1E  6FE0               	movwf	(?___ftpack+1)& (0+255),b
  4068  001A20  0E00               	movlw	0
  4069  001A22  0100               	movlb	0	; () banked
  4070  001A24  6FE1               	movwf	(?___ftpack+2)& (0+255),b
  4071                           
  4072                           ; BSR set to: 0
  4073  001A26  0012               	return	
  4074  001A28                     l4740:
  4075                           
  4076                           ; BSR set to: 0
  4077  001A28  0100               	movlb	0	; () banked
  4078  001A2A  2BE2               	incf	___ftpack@exp& (0+255),f,b
  4079  001A2C  0100               	movlb	0	; () banked
  4080  001A2E  90D8               	bcf	status,0,c
  4081  001A30  33E1               	rrcf	(___ftpack@arg+2)& (0+255),f,b
  4082  001A32  33E0               	rrcf	(___ftpack@arg+1)& (0+255),f,b
  4083  001A34  33DF               	rrcf	___ftpack@arg& (0+255),f,b
  4084  001A36                     l4742:
  4085                           
  4086                           ; BSR set to: 0
  4087  001A36  0E00               	movlw	0
  4088  001A38  0100               	movlb	0	; () banked
  4089  001A3A  15DF               	andwf	___ftpack@arg& (0+255),w,b
  4090  001A3C  6E1D               	movwf	??___ftpack& (0+255),c
  4091  001A3E  0E00               	movlw	0
  4092  001A40  0100               	movlb	0	; () banked
  4093  001A42  15E0               	andwf	(___ftpack@arg+1)& (0+255),w,b
  4094  001A44  6E1E               	movwf	(??___ftpack+1)& (0+255),c
  4095  001A46  0EFE               	movlw	254
  4096  001A48  0100               	movlb	0	; () banked
  4097  001A4A  15E1               	andwf	(___ftpack@arg+2)& (0+255),w,b
  4098  001A4C  6E1F               	movwf	(??___ftpack+2)& (0+255),c
  4099  001A4E  501D               	movf	??___ftpack,w,c
  4100  001A50  101E               	iorwf	??___ftpack+1,w,c
  4101  001A52  101F               	iorwf	??___ftpack+2,w,c
  4102  001A54  B4D8               	btfsc	status,2,c
  4103  001A56  D011               	goto	l4748
  4104  001A58  D7E7               	goto	l4740
  4105  001A5A                     l4744:
  4106                           
  4107                           ; BSR set to: 0
  4108  001A5A  0100               	movlb	0	; () banked
  4109  001A5C  2BE2               	incf	___ftpack@exp& (0+255),f,b
  4110                           
  4111                           ; BSR set to: 0
  4112  001A5E  0E01               	movlw	1
  4113  001A60  0100               	movlb	0	; () banked
  4114  001A62  27DF               	addwf	___ftpack@arg& (0+255),f,b
  4115  001A64  0E00               	movlw	0
  4116  001A66  0100               	movlb	0	; () banked
  4117  001A68  23E0               	addwfc	(___ftpack@arg+1)& (0+255),f,b
  4118  001A6A  0E00               	movlw	0
  4119  001A6C  0100               	movlb	0	; () banked
  4120  001A6E  23E1               	addwfc	(___ftpack@arg+2)& (0+255),f,b
  4121  001A70  0100               	movlb	0	; () banked
  4122  001A72  90D8               	bcf	status,0,c
  4123  001A74  33E1               	rrcf	(___ftpack@arg+2)& (0+255),f,b
  4124  001A76  33E0               	rrcf	(___ftpack@arg+1)& (0+255),f,b
  4125  001A78  33DF               	rrcf	___ftpack@arg& (0+255),f,b
  4126  001A7A                     l4748:
  4127                           
  4128                           ; BSR set to: 0
  4129  001A7A  0E00               	movlw	0
  4130  001A7C  0100               	movlb	0	; () banked
  4131  001A7E  15DF               	andwf	___ftpack@arg& (0+255),w,b
  4132  001A80  6E1D               	movwf	??___ftpack& (0+255),c
  4133  001A82  0E00               	movlw	0
  4134  001A84  0100               	movlb	0	; () banked
  4135  001A86  15E0               	andwf	(___ftpack@arg+1)& (0+255),w,b
  4136  001A88  6E1E               	movwf	(??___ftpack+1)& (0+255),c
  4137  001A8A  0EFF               	movlw	255
  4138  001A8C  0100               	movlb	0	; () banked
  4139  001A8E  15E1               	andwf	(___ftpack@arg+2)& (0+255),w,b
  4140  001A90  6E1F               	movwf	(??___ftpack+2)& (0+255),c
  4141  001A92  501D               	movf	??___ftpack,w,c
  4142  001A94  101E               	iorwf	??___ftpack+1,w,c
  4143  001A96  101F               	iorwf	??___ftpack+2,w,c
  4144  001A98  B4D8               	btfsc	status,2,c
  4145  001A9A  D008               	goto	l4752
  4146  001A9C  D7DE               	goto	l4744
  4147  001A9E                     l4750:
  4148                           
  4149                           ; BSR set to: 0
  4150  001A9E  0100               	movlb	0	; () banked
  4151  001AA0  07E2               	decf	___ftpack@exp& (0+255),f,b
  4152  001AA2  0100               	movlb	0	; () banked
  4153  001AA4  90D8               	bcf	status,0,c
  4154  001AA6  37DF               	rlcf	___ftpack@arg& (0+255),f,b
  4155  001AA8  37E0               	rlcf	(___ftpack@arg+1)& (0+255),f,b
  4156  001AAA  37E1               	rlcf	(___ftpack@arg+2)& (0+255),f,b
  4157  001AAC                     l4752:
  4158                           
  4159                           ; BSR set to: 0
  4160  001AAC  0100               	movlb	0	; () banked
  4161  001AAE  BFE0               	btfsc	(___ftpack@arg+1)& (0+255),7,b
  4162  001AB0  D004               	goto	l903
  4163                           
  4164                           ; BSR set to: 0
  4165  001AB2  0E02               	movlw	2
  4166  001AB4  0100               	movlb	0	; () banked
  4167  001AB6  61E2               	cpfslt	___ftpack@exp& (0+255),b
  4168  001AB8  D7F2               	goto	l4750
  4169  001ABA                     l903:
  4170                           
  4171                           ; BSR set to: 0
  4172  001ABA  0100               	movlb	0	; () banked
  4173  001ABC  B1E2               	btfsc	___ftpack@exp& (0+255),0,b
  4174  001ABE  D002               	goto	l4758
  4175                           
  4176                           ; BSR set to: 0
  4177  001AC0  0100               	movlb	0	; () banked
  4178  001AC2  9FE0               	bcf	(___ftpack@arg+1)& (0+255),7,b
  4179  001AC4                     l4758:
  4180                           
  4181                           ; BSR set to: 0
  4182  001AC4  0100               	movlb	0	; () banked
  4183  001AC6  90D8               	bcf	status,0,c
  4184  001AC8  33E2               	rrcf	___ftpack@exp& (0+255),f,b
  4185  001ACA  0100               	movlb	0	; () banked
  4186  001ACC  51E2               	movf	___ftpack@exp& (0+255),w,b
  4187  001ACE  0100               	movlb	0	; () banked
  4188  001AD0  13E1               	iorwf	(___ftpack@arg+2)& (0+255),f,b
  4189                           
  4190                           ; BSR set to: 0
  4191  001AD2  0100               	movlb	0	; () banked
  4192  001AD4  51E3               	movf	___ftpack@sign& (0+255),w,b
  4193  001AD6  0100               	movlb	0	; () banked
  4194  001AD8  B4D8               	btfsc	status,2,c
  4195  001ADA  D002               	goto	l4764
  4196                           
  4197                           ; BSR set to: 0
  4198  001ADC  0100               	movlb	0	; () banked
  4199  001ADE  8FE1               	bsf	(___ftpack@arg+2)& (0+255),7,b
  4200  001AE0                     l4764:
  4201                           
  4202                           ; BSR set to: 0
  4203  001AE0  C0DF  F0DF         	movff	___ftpack@arg,?___ftpack
  4204  001AE4  C0E0  F0E0         	movff	___ftpack@arg+1,?___ftpack+1
  4205  001AE8  C0E1  F0E1         	movff	___ftpack@arg+2,?___ftpack+2
  4206  001AEC  0012               	return	
  4207  001AEE                     __end_of___ftpack:
  4208                           	opt stack 0
  4209                           tblptru	equ	0xFF8
  4210                           tblptrh	equ	0xFF7
  4211                           tblptrl	equ	0xFF6
  4212                           tablat	equ	0xFF5
  4213                           prodh	equ	0xFF4
  4214                           prodl	equ	0xFF3
  4215                           intcon	equ	0xFF2
  4216                           intcon2	equ	0xFF1
  4217                           postinc0	equ	0xFEE
  4218                           wreg	equ	0xFE8
  4219                           indf1	equ	0xFE7
  4220                           postdec1	equ	0xFE5
  4221                           fsr1h	equ	0xFE2
  4222                           fsr1l	equ	0xFE1
  4223                           indf2	equ	0xFDF
  4224                           postinc2	equ	0xFDE
  4225                           postdec2	equ	0xFDD
  4226                           fsr2h	equ	0xFDA
  4227                           fsr2l	equ	0xFD9
  4228                           status	equ	0xFD8
  4229                           
  4230 ;; *************** function ___ftge *****************
  4231 ;; Defined at:
  4232 ;;		line 4 in file "/Applications/microchip/xc8/v1.36/sources/common/ftge.c"
  4233 ;; Parameters:    Size  Location     Type
  4234 ;;  ff1             3   15[BANK1 ] float 
  4235 ;;  ff2             3   18[BANK1 ] float 
  4236 ;; Auto vars:     Size  Location     Type
  4237 ;;		None
  4238 ;; Return value:  Size  Location     Type
  4239 ;;		None               void
  4240 ;; Registers used:
  4241 ;;		wreg, status,2, status,0
  4242 ;; Tracked objects:
  4243 ;;		On entry : 0/0
  4244 ;;		On exit  : 0/0
  4245 ;;		Unchanged: 0/0
  4246 ;; Data sizes:     COMRAM   BANK0   BANK1   BANK2   BANK3   BANK4   BANK5   BANK6   BANK7   BANK8   BANK9  BANK10  BANK1
      +1  BANK12
  4247 ;;      Params:         0       0       6       0       0       0       0       0       0       0       0       0       
      +0       0
  4248 ;;      Locals:         0       0       0       0       0       0       0       0       0       0       0       0       
      +0       0
  4249 ;;      Temps:          0       0       3       0       0       0       0       0       0       0       0       0       
      +0       0
  4250 ;;      Totals:         0       0       9       0       0       0       0       0       0       0       0       0       
      +0       0
  4251 ;;Total ram usage:        9 bytes
  4252 ;; Hardware stack levels used:    1
  4253 ;; Hardware stack levels required when called:    8
  4254 ;; This function calls:
  4255 ;;		Nothing
  4256 ;; This function is called by:
  4257 ;;		_workingAutomatic
  4258 ;; This function uses a non-reentrant model
  4259 ;;
  4260                           
  4261                           	psect	text18
  4262  001F44                     __ptext18:
  4263                           	opt stack 0
  4264  001F44                     ___ftge:
  4265                           	opt stack 21
  4266                           
  4267                           ; BSR set to: 0
  4268                           ;incstack = 0
  4269  001F44  0101               	movlb	1	; () banked
  4270  001F46  AF60               	btfss	(___ftge@ff1+2)& (0+255),7,b
  4271  001F48  D01D               	goto	l5014
  4272                           
  4273                           ; BSR set to: 1
  4274  001F4A  C15E  F164         	movff	___ftge@ff1,??___ftge
  4275  001F4E  C15F  F165         	movff	___ftge@ff1+1,??___ftge+1
  4276  001F52  C160  F166         	movff	___ftge@ff1+2,??___ftge+2
  4277  001F56  0101               	movlb	1	; () banked
  4278  001F58  1F64               	comf	??___ftge& (0+255),f,b
  4279  001F5A  1F65               	comf	(??___ftge+1)& (0+255),f,b
  4280  001F5C  1F66               	comf	(??___ftge+2)& (0+255),f,b
  4281  001F5E  2B64               	incf	??___ftge& (0+255),f,b
  4282  001F60  0E00               	movlw	0
  4283  001F62  2365               	addwfc	(??___ftge+1)& (0+255),f,b
  4284  001F64  2366               	addwfc	(??___ftge+2)& (0+255),f,b
  4285  001F66  0E00               	movlw	0
  4286  001F68  0101               	movlb	1	; () banked
  4287  001F6A  2564               	addwf	??___ftge& (0+255),w,b
  4288  001F6C  0101               	movlb	1	; () banked
  4289  001F6E  6F5E               	movwf	___ftge@ff1& (0+255),b
  4290  001F70  0E00               	movlw	0
  4291  001F72  0101               	movlb	1	; () banked
  4292  001F74  2165               	addwfc	(??___ftge+1)& (0+255),w,b
  4293  001F76  0101               	movlb	1	; () banked
  4294  001F78  6F5F               	movwf	(___ftge@ff1+1)& (0+255),b
  4295  001F7A  0E80               	movlw	128
  4296  001F7C  0101               	movlb	1	; () banked
  4297  001F7E  2166               	addwfc	(??___ftge+2)& (0+255),w,b
  4298  001F80  0101               	movlb	1	; () banked
  4299  001F82  6F60               	movwf	(___ftge@ff1+2)& (0+255),b
  4300  001F84                     l5014:
  4301                           
  4302                           ; BSR set to: 1
  4303  001F84  0101               	movlb	1	; () banked
  4304  001F86  AF63               	btfss	(___ftge@ff2+2)& (0+255),7,b
  4305  001F88  D01D               	goto	l5018
  4306                           
  4307                           ; BSR set to: 1
  4308  001F8A  C161  F164         	movff	___ftge@ff2,??___ftge
  4309  001F8E  C162  F165         	movff	___ftge@ff2+1,??___ftge+1
  4310  001F92  C163  F166         	movff	___ftge@ff2+2,??___ftge+2
  4311  001F96  0101               	movlb	1	; () banked
  4312  001F98  1F64               	comf	??___ftge& (0+255),f,b
  4313  001F9A  1F65               	comf	(??___ftge+1)& (0+255),f,b
  4314  001F9C  1F66               	comf	(??___ftge+2)& (0+255),f,b
  4315  001F9E  2B64               	incf	??___ftge& (0+255),f,b
  4316  001FA0  0E00               	movlw	0
  4317  001FA2  2365               	addwfc	(??___ftge+1)& (0+255),f,b
  4318  001FA4  2366               	addwfc	(??___ftge+2)& (0+255),f,b
  4319  001FA6  0E00               	movlw	0
  4320  001FA8  0101               	movlb	1	; () banked
  4321  001FAA  2564               	addwf	??___ftge& (0+255),w,b
  4322  001FAC  0101               	movlb	1	; () banked
  4323  001FAE  6F61               	movwf	___ftge@ff2& (0+255),b
  4324  001FB0  0E00               	movlw	0
  4325  001FB2  0101               	movlb	1	; () banked
  4326  001FB4  2165               	addwfc	(??___ftge+1)& (0+255),w,b
  4327  001FB6  0101               	movlb	1	; () banked
  4328  001FB8  6F62               	movwf	(___ftge@ff2+1)& (0+255),b
  4329  001FBA  0E80               	movlw	128
  4330  001FBC  0101               	movlb	1	; () banked
  4331  001FBE  2166               	addwfc	(??___ftge+2)& (0+255),w,b
  4332  001FC0  0101               	movlb	1	; () banked
  4333  001FC2  6F63               	movwf	(___ftge@ff2+2)& (0+255),b
  4334  001FC4                     l5018:
  4335                           
  4336                           ; BSR set to: 1
  4337  001FC4  0E00               	movlw	0
  4338  001FC6  0101               	movlb	1	; () banked
  4339  001FC8  1B5E               	xorwf	___ftge@ff1& (0+255),f,b
  4340  001FCA  0E00               	movlw	0
  4341  001FCC  0101               	movlb	1	; () banked
  4342  001FCE  1B5F               	xorwf	(___ftge@ff1+1)& (0+255),f,b
  4343  001FD0  0E80               	movlw	128
  4344  001FD2  0101               	movlb	1	; () banked
  4345  001FD4  1B60               	xorwf	(___ftge@ff1+2)& (0+255),f,b
  4346                           
  4347                           ; BSR set to: 1
  4348  001FD6  0E00               	movlw	0
  4349  001FD8  0101               	movlb	1	; () banked
  4350  001FDA  1B61               	xorwf	___ftge@ff2& (0+255),f,b
  4351  001FDC  0E00               	movlw	0
  4352  001FDE  0101               	movlb	1	; () banked
  4353  001FE0  1B62               	xorwf	(___ftge@ff2+1)& (0+255),f,b
  4354  001FE2  0E80               	movlw	128
  4355  001FE4  0101               	movlb	1	; () banked
  4356  001FE6  1B63               	xorwf	(___ftge@ff2+2)& (0+255),f,b
  4357  001FE8  0101               	movlb	1	; () banked
  4358  001FEA  5161               	movf	___ftge@ff2& (0+255),w,b
  4359  001FEC  0101               	movlb	1	; () banked
  4360  001FEE  5D5E               	subwf	___ftge@ff1& (0+255),w,b
  4361  001FF0  0101               	movlb	1	; () banked
  4362  001FF2  5162               	movf	(___ftge@ff2+1)& (0+255),w,b
  4363  001FF4  0101               	movlb	1	; () banked
  4364  001FF6  595F               	subwfb	(___ftge@ff1+1)& (0+255),w,b
  4365  001FF8  0101               	movlb	1	; () banked
  4366  001FFA  5163               	movf	(___ftge@ff2+2)& (0+255),w,b
  4367  001FFC  0101               	movlb	1	; () banked
  4368  001FFE  5960               	subwfb	(___ftge@ff1+2)& (0+255),w,b
  4369  002000  B0D8               	btfsc	status,0,c
  4370  002002  D002               	goto	l5024
  4371                           
  4372                           ; BSR set to: 1
  4373  002004  90D8               	bcf	status,0,c
  4374  002006  0012               	return	
  4375  002008                     l5024:
  4376                           
  4377                           ; BSR set to: 1
  4378  002008  80D8               	bsf	status,0,c
  4379                           
  4380                           ; BSR set to: 1
  4381  00200A  0012               	return	
  4382  00200C                     __end_of___ftge:
  4383                           	opt stack 0
  4384                           tblptru	equ	0xFF8
  4385                           tblptrh	equ	0xFF7
  4386                           tblptrl	equ	0xFF6
  4387                           tablat	equ	0xFF5
  4388                           prodh	equ	0xFF4
  4389                           prodl	equ	0xFF3
  4390                           intcon	equ	0xFF2
  4391                           intcon2	equ	0xFF1
  4392                           postinc0	equ	0xFEE
  4393                           wreg	equ	0xFE8
  4394                           indf1	equ	0xFE7
  4395                           postdec1	equ	0xFE5
  4396                           fsr1h	equ	0xFE2
  4397                           fsr1l	equ	0xFE1
  4398                           indf2	equ	0xFDF
  4399                           postinc2	equ	0xFDE
  4400                           postdec2	equ	0xFDD
  4401                           fsr2h	equ	0xFDA
  4402                           fsr2l	equ	0xFD9
  4403                           status	equ	0xFD8
  4404                           
  4405 ;; *************** function _timerConfiguration *****************
  4406 ;; Defined at:
  4407 ;;		line 556 in file "SysRiego.c"
  4408 ;; Parameters:    Size  Location     Type
  4409 ;;		None
  4410 ;; Auto vars:     Size  Location     Type
  4411 ;;  input           1   17[BANK0 ] unsigned char 
  4412 ;; Return value:  Size  Location     Type
  4413 ;;                  1    wreg      void 
  4414 ;; Registers used:
  4415 ;;		wreg, status,2, status,0, cstack
  4416 ;; Tracked objects:
  4417 ;;		On entry : 0/0
  4418 ;;		On exit  : 0/0
  4419 ;;		Unchanged: 0/0
  4420 ;; Data sizes:     COMRAM   BANK0   BANK1   BANK2   BANK3   BANK4   BANK5   BANK6   BANK7   BANK8   BANK9  BANK10  BANK1
      +1  BANK12
  4421 ;;      Params:         0       0       0       0       0       0       0       0       0       0       0       0       
      +0       0
  4422 ;;      Locals:         0       1       0       0       0       0       0       0       0       0       0       0       
      +0       0
  4423 ;;      Temps:          0       0       0       0       0       0       0       0       0       0       0       0       
      +0       0
  4424 ;;      Totals:         0       1       0       0       0       0       0       0       0       0       0       0       
      +0       0
  4425 ;;Total ram usage:        1 bytes
  4426 ;; Hardware stack levels used:    1
  4427 ;; Hardware stack levels required when called:   13
  4428 ;; This function calls:
  4429 ;;		_clearDisplay
  4430 ;;		_disableIntRBIE
  4431 ;;		_enableIntRBIE
  4432 ;;		_getInput
  4433 ;; This function is called by:
  4434 ;;		_main
  4435 ;; This function uses a non-reentrant model
  4436 ;;
  4437                           
  4438                           	psect	text19
  4439  0024F4                     __ptext19:
  4440                           	opt stack 0
  4441  0024F4                     _timerConfiguration:
  4442                           	opt stack 17
  4443                           
  4444                           ;SysRiego.c: 558: disableIntRBIE();
  4445                           
  4446                           ; BSR set to: 1
  4447                           ;incstack = 0
  4448  0024F4  EC25  F014         	call	_disableIntRBIE	;wreg free
  4449                           
  4450                           ;SysRiego.c: 560: unsigned char input = ' ';
  4451  0024F8  0E20               	movlw	32
  4452  0024FA  0100               	movlb	0	; () banked
  4453  0024FC  6FDF               	movwf	timerConfiguration@input& (0+255),b
  4454                           
  4455                           ; BSR set to: 0
  4456                           ;SysRiego.c: 562: clearDisplay();
  4457  0024FE  ECF8  F013         	call	_clearDisplay	;wreg free
  4458                           
  4459                           ;SysRiego.c: 564: if (hourConfiguration == 0) {
  4460  002502  503E               	movf	_hourConfiguration,w,c
  4461  002504  B4D8               	btfsc	status,2,c
  4462  002506  D006               	goto	l5230
  4463                           
  4464                           ;SysRiego.c: 570: else {
  4465                           ;SysRiego.c: 574: input = getInput();
  4466                           
  4467                           ;SysRiego.c: 569: }
  4468  002508  ECA5  F012         	call	_getInput	;wreg free
  4469  00250C  0100               	movlb	0	; () banked
  4470  00250E  6FDF               	movwf	timerConfiguration@input& (0+255),b
  4471                           
  4472                           ; BSR set to: 0
  4473                           ;SysRiego.c: 577: hourConfiguration = 0;
  4474  002510  0E00               	movlw	0
  4475  002512  6E3E               	movwf	_hourConfiguration,c
  4476  002514                     l5230:
  4477                           
  4478                           ;SysRiego.c: 578: }
  4479                           ;SysRiego.c: 580: enableIntRBIE();
  4480  002514  EC20  F014         	call	_enableIntRBIE	;wreg free
  4481                           
  4482                           ;SysRiego.c: 582: statusConfiguration = 0;
  4483  002518  0E00               	movlw	0
  4484  00251A  0100               	movlb	0	; () banked
  4485  00251C  6FEE               	movwf	_statusConfiguration& (0+255),b
  4486                           
  4487                           ; BSR set to: 0
  4488  00251E  0012               	return		;funcret
  4489  002520                     __end_of_timerConfiguration:
  4490                           	opt stack 0
  4491                           tblptru	equ	0xFF8
  4492                           tblptrh	equ	0xFF7
  4493                           tblptrl	equ	0xFF6
  4494                           tablat	equ	0xFF5
  4495                           prodh	equ	0xFF4
  4496                           prodl	equ	0xFF3
  4497                           intcon	equ	0xFF2
  4498                           intcon2	equ	0xFF1
  4499                           postinc0	equ	0xFEE
  4500                           wreg	equ	0xFE8
  4501                           indf1	equ	0xFE7
  4502                           postdec1	equ	0xFE5
  4503                           fsr1h	equ	0xFE2
  4504                           fsr1l	equ	0xFE1
  4505                           indf2	equ	0xFDF
  4506                           postinc2	equ	0xFDE
  4507                           postdec2	equ	0xFDD
  4508                           fsr2h	equ	0xFDA
  4509                           fsr2l	equ	0xFD9
  4510                           status	equ	0xFD8
  4511                           
  4512 ;; *************** function _manualConfiguration *****************
  4513 ;; Defined at:
  4514 ;;		line 587 in file "SysRiego.c"
  4515 ;; Parameters:    Size  Location     Type
  4516 ;;		None
  4517 ;; Auto vars:     Size  Location     Type
  4518 ;;  input           1    1[BANK1 ] unsigned char 
  4519 ;; Return value:  Size  Location     Type
  4520 ;;                  1    wreg      void 
  4521 ;; Registers used:
  4522 ;;		wreg, fsr0l, fsr0h, fsr2l, fsr2h, status,2, status,0, tblptrl, tblptrh, tblptru, prodl, prodh, cstack
  4523 ;; Tracked objects:
  4524 ;;		On entry : 0/0
  4525 ;;		On exit  : 0/0
  4526 ;;		Unchanged: 0/0
  4527 ;; Data sizes:     COMRAM   BANK0   BANK1   BANK2   BANK3   BANK4   BANK5   BANK6   BANK7   BANK8   BANK9  BANK10  BANK1
      +1  BANK12
  4528 ;;      Params:         0       0       0       0       0       0       0       0       0       0       0       0       
      +0       0
  4529 ;;      Locals:         0       0       1       0       0       0       0       0       0       0       0       0       
      +0       0
  4530 ;;      Temps:          0       0       1       0       0       0       0       0       0       0       0       0       
      +0       0
  4531 ;;      Totals:         0       0       2       0       0       0       0       0       0       0       0       0       
      +0       0
  4532 ;;Total ram usage:        2 bytes
  4533 ;; Hardware stack levels used:    1
  4534 ;; Hardware stack levels required when called:   13
  4535 ;; This function calls:
  4536 ;;		_clearDisplay
  4537 ;;		_disableIntRBIE
  4538 ;;		_displayLineOnLCD
  4539 ;;		_enableIntRBIE
  4540 ;;		_getInput
  4541 ;; This function is called by:
  4542 ;;		_main
  4543 ;; This function uses a non-reentrant model
  4544 ;;
  4545                           
  4546                           	psect	text20
  4547  0018F0                     __ptext20:
  4548                           	opt stack 0
  4549  0018F0                     _manualConfiguration:
  4550                           	opt stack 17
  4551                           
  4552                           ;SysRiego.c: 589: disableIntRBIE();
  4553                           
  4554                           ; BSR set to: 0
  4555                           ;incstack = 0
  4556  0018F0  EC25  F014         	call	_disableIntRBIE	;wreg free
  4557                           
  4558                           ;SysRiego.c: 591: unsigned char input = ' ';
  4559  0018F4  0E20               	movlw	32
  4560  0018F6  0101               	movlb	1	; () banked
  4561  0018F8  6F50               	movwf	manualConfiguration@input& (0+255),b
  4562                           
  4563                           ; BSR set to: 1
  4564                           ;SysRiego.c: 593: clearDisplay();
  4565  0018FA  ECF8  F013         	call	_clearDisplay	;wreg free
  4566                           
  4567                           ;SysRiego.c: 595: if(*zoneSelected == '1') {
  4568  0018FE  C0EB  FFD9         	movff	_zoneSelected,fsr2l
  4569  001902  C0EC  FFDA         	movff	_zoneSelected+1,fsr2h
  4570  001906  0E31               	movlw	49
  4571  001908  18DE               	xorwf	postinc2,w,c
  4572  00190A  A4D8               	btfss	status,2,c
  4573  00190C  D00C               	goto	l5244
  4574                           
  4575                           ;SysRiego.c: 596: displayLineOnLCD(manualActiveMessage, sizeof(manualActiveMessage) / si
      +                          zeof(manualActiveMessage[0]));
  4576  00190E  0E78               	movlw	low _manualActiveMessage
  4577  001910  0100               	movlb	0	; () banked
  4578  001912  6FDF               	movwf	displayLineOnLCD@array& (0+255),b
  4579  001914  0E00               	movlw	high _manualActiveMessage
  4580  001916  0100               	movlb	0	; () banked
  4581  001918  6FE0               	movwf	(displayLineOnLCD@array+1)& (0+255),b
  4582  00191A  0E07               	movlw	7
  4583  00191C  0100               	movlb	0	; () banked
  4584  00191E  6FE1               	movwf	displayLineOnLCD@sizeOfArray& (0+255),b
  4585  001920  EC50  F010         	call	_displayLineOnLCD	;wreg free
  4586                           
  4587                           ;SysRiego.c: 597: }
  4588  001924  D05F               	goto	l5266
  4589  001926                     l5244:
  4590                           
  4591                           ;SysRiego.c: 599: else {
  4592                           ;SysRiego.c: 600: displayLineOnLCD(manualInactiveMessage, sizeof(manualInactiveMessage) 
      +                          / sizeof(manualInactiveMessage[0]));
  4593  001926  0E6F               	movlw	low _manualInactiveMessage
  4594  001928  0100               	movlb	0	; () banked
  4595  00192A  6FDF               	movwf	displayLineOnLCD@array& (0+255),b
  4596  00192C  0E00               	movlw	high _manualInactiveMessage
  4597  00192E  0100               	movlb	0	; () banked
  4598  001930  6FE0               	movwf	(displayLineOnLCD@array+1)& (0+255),b
  4599  001932  0E09               	movlw	9
  4600  001934  0100               	movlb	0	; () banked
  4601  001936  6FE1               	movwf	displayLineOnLCD@sizeOfArray& (0+255),b
  4602  001938  EC50  F010         	call	_displayLineOnLCD	;wreg free
  4603                           
  4604                           ;SysRiego.c: 601: }
  4605                           ;SysRiego.c: 604: while(input != '#') {
  4606  00193C  D053               	goto	l5266
  4607  00193E                     l5246:
  4608                           
  4609                           ;SysRiego.c: 606: input = getInput();
  4610  00193E  ECA5  F012         	call	_getInput	;wreg free
  4611  001942  0101               	movlb	1	; () banked
  4612  001944  6F50               	movwf	manualConfiguration@input& (0+255),b
  4613                           
  4614                           ;SysRiego.c: 608: clearDisplay();
  4615  001946  ECF8  F013         	call	_clearDisplay	;wreg free
  4616                           
  4617                           ;SysRiego.c: 610: if(input == '1') {
  4618  00194A  0E31               	movlw	49
  4619  00194C  0101               	movlb	1	; () banked
  4620  00194E  1950               	xorwf	manualConfiguration@input& (0+255),w,b
  4621  001950  A4D8               	btfss	status,2,c
  4622  001952  D012               	goto	l5254
  4623                           
  4624                           ; BSR set to: 1
  4625                           ;SysRiego.c: 611: *zoneSelected = '1';
  4626  001954  C0EB  FFD9         	movff	_zoneSelected,fsr2l
  4627  001958  C0EC  FFDA         	movff	_zoneSelected+1,fsr2h
  4628  00195C  0E31               	movlw	49
  4629  00195E  6EDF               	movwf	indf2,c
  4630                           
  4631                           ; BSR set to: 1
  4632                           ;SysRiego.c: 612: displayLineOnLCD(manualActiveMessage, sizeof(manualActiveMessage) / si
      +                          zeof(manualActiveMessage[0]));
  4633  001960  0E78               	movlw	low _manualActiveMessage
  4634  001962  0100               	movlb	0	; () banked
  4635  001964  6FDF               	movwf	displayLineOnLCD@array& (0+255),b
  4636  001966  0E00               	movlw	high _manualActiveMessage
  4637  001968  0100               	movlb	0	; () banked
  4638  00196A  6FE0               	movwf	(displayLineOnLCD@array+1)& (0+255),b
  4639  00196C  0E07               	movlw	7
  4640  00196E  0100               	movlb	0	; () banked
  4641  001970  6FE1               	movwf	displayLineOnLCD@sizeOfArray& (0+255),b
  4642  001972  EC50  F010         	call	_displayLineOnLCD	;wreg free
  4643                           
  4644                           ;SysRiego.c: 613: }
  4645  001976  D036               	goto	l5266
  4646  001978                     l5254:
  4647                           
  4648                           ;SysRiego.c: 615: else if (input == '0') {
  4649  001978  0E30               	movlw	48
  4650  00197A  0101               	movlb	1	; () banked
  4651  00197C  1950               	xorwf	manualConfiguration@input& (0+255),w,b
  4652  00197E  A4D8               	btfss	status,2,c
  4653  001980  D012               	goto	l5260
  4654                           
  4655                           ; BSR set to: 1
  4656                           ;SysRiego.c: 616: *zoneSelected = '0';
  4657  001982  C0EB  FFD9         	movff	_zoneSelected,fsr2l
  4658  001986  C0EC  FFDA         	movff	_zoneSelected+1,fsr2h
  4659  00198A  0E30               	movlw	48
  4660  00198C  6EDF               	movwf	indf2,c
  4661                           
  4662                           ; BSR set to: 1
  4663                           ;SysRiego.c: 617: displayLineOnLCD(manualInactiveMessage, sizeof(manualInactiveMessage) 
      +                          / sizeof(manualInactiveMessage[0]));
  4664  00198E  0E6F               	movlw	low _manualInactiveMessage
  4665  001990  0100               	movlb	0	; () banked
  4666  001992  6FDF               	movwf	displayLineOnLCD@array& (0+255),b
  4667  001994  0E00               	movlw	high _manualInactiveMessage
  4668  001996  0100               	movlb	0	; () banked
  4669  001998  6FE0               	movwf	(displayLineOnLCD@array+1)& (0+255),b
  4670  00199A  0E09               	movlw	9
  4671  00199C  0100               	movlb	0	; () banked
  4672  00199E  6FE1               	movwf	displayLineOnLCD@sizeOfArray& (0+255),b
  4673  0019A0  EC50  F010         	call	_displayLineOnLCD	;wreg free
  4674                           
  4675                           ;SysRiego.c: 618: }
  4676  0019A4  D01F               	goto	l5266
  4677  0019A6                     l5260:
  4678                           
  4679                           ;SysRiego.c: 620: else {
  4680                           ;SysRiego.c: 621: if (*zoneSelected == '1') {
  4681  0019A6  C0EB  FFD9         	movff	_zoneSelected,fsr2l
  4682  0019AA  C0EC  FFDA         	movff	_zoneSelected+1,fsr2h
  4683  0019AE  0E31               	movlw	49
  4684  0019B0  18DE               	xorwf	postinc2,w,c
  4685  0019B2  A4D8               	btfss	status,2,c
  4686  0019B4  D00C               	goto	l5264
  4687                           
  4688                           ;SysRiego.c: 622: displayLineOnLCD(manualActiveMessage, sizeof (manualActiveMessage) / s
      +                          izeof (manualActiveMessage[0]));
  4689  0019B6  0E78               	movlw	low _manualActiveMessage
  4690  0019B8  0100               	movlb	0	; () banked
  4691  0019BA  6FDF               	movwf	displayLineOnLCD@array& (0+255),b
  4692  0019BC  0E00               	movlw	high _manualActiveMessage
  4693  0019BE  0100               	movlb	0	; () banked
  4694  0019C0  6FE0               	movwf	(displayLineOnLCD@array+1)& (0+255),b
  4695  0019C2  0E07               	movlw	7
  4696  0019C4  0100               	movlb	0	; () banked
  4697  0019C6  6FE1               	movwf	displayLineOnLCD@sizeOfArray& (0+255),b
  4698  0019C8  EC50  F010         	call	_displayLineOnLCD	;wreg free
  4699                           
  4700                           ;SysRiego.c: 623: }
  4701  0019CC  D00B               	goto	l5266
  4702  0019CE                     l5264:
  4703                           
  4704                           ;SysRiego.c: 624: else {
  4705                           ;SysRiego.c: 625: displayLineOnLCD(manualInactiveMessage, sizeof (manualInactiveMessage)
      +                           / sizeof (manualInactiveMessage[0]));
  4706  0019CE  0E6F               	movlw	low _manualInactiveMessage
  4707  0019D0  0100               	movlb	0	; () banked
  4708  0019D2  6FDF               	movwf	displayLineOnLCD@array& (0+255),b
  4709  0019D4  0E00               	movlw	high _manualInactiveMessage
  4710  0019D6  0100               	movlb	0	; () banked
  4711  0019D8  6FE0               	movwf	(displayLineOnLCD@array+1)& (0+255),b
  4712  0019DA  0E09               	movlw	9
  4713  0019DC  0100               	movlb	0	; () banked
  4714  0019DE  6FE1               	movwf	displayLineOnLCD@sizeOfArray& (0+255),b
  4715  0019E0  EC50  F010         	call	_displayLineOnLCD	;wreg free
  4716  0019E4                     l5266:
  4717  0019E4  0E23               	movlw	35
  4718  0019E6  0101               	movlb	1	; () banked
  4719  0019E8  1950               	xorwf	manualConfiguration@input& (0+255),w,b
  4720  0019EA  A4D8               	btfss	status,2,c
  4721  0019EC  D7A8               	goto	l5246
  4722                           
  4723                           ; BSR set to: 1
  4724                           ;SysRiego.c: 626: }
  4725                           ;SysRiego.c: 627: }
  4726                           ;SysRiego.c: 629: }
  4727                           ;SysRiego.c: 631: enableIntRBIE();
  4728                           
  4729                           ; BSR set to: 1
  4730  0019EE  EC20  F014         	call	_enableIntRBIE	;wreg free
  4731                           
  4732                           ;SysRiego.c: 633: statusConfiguration = 0;
  4733  0019F2  0E00               	movlw	0
  4734  0019F4  0100               	movlb	0	; () banked
  4735  0019F6  6FEE               	movwf	_statusConfiguration& (0+255),b
  4736                           
  4737                           ; BSR set to: 0
  4738  0019F8  0012               	return		;funcret
  4739  0019FA                     __end_of_manualConfiguration:
  4740                           	opt stack 0
  4741                           tblptru	equ	0xFF8
  4742                           tblptrh	equ	0xFF7
  4743                           tblptrl	equ	0xFF6
  4744                           tablat	equ	0xFF5
  4745                           prodh	equ	0xFF4
  4746                           prodl	equ	0xFF3
  4747                           intcon	equ	0xFF2
  4748                           intcon2	equ	0xFF1
  4749                           postinc0	equ	0xFEE
  4750                           wreg	equ	0xFE8
  4751                           indf1	equ	0xFE7
  4752                           postdec1	equ	0xFE5
  4753                           fsr1h	equ	0xFE2
  4754                           fsr1l	equ	0xFE1
  4755                           indf2	equ	0xFDF
  4756                           postinc2	equ	0xFDE
  4757                           postdec2	equ	0xFDD
  4758                           fsr2h	equ	0xFDA
  4759                           fsr2l	equ	0xFD9
  4760                           status	equ	0xFD8
  4761                           
  4762 ;; *************** function _automaticConfiguration *****************
  4763 ;; Defined at:
  4764 ;;		line 519 in file "SysRiego.c"
  4765 ;; Parameters:    Size  Location     Type
  4766 ;;		None
  4767 ;; Auto vars:     Size  Location     Type
  4768 ;;  input           1    2[BANK1 ] unsigned char 
  4769 ;;  counter         1    1[BANK1 ] unsigned char 
  4770 ;; Return value:  Size  Location     Type
  4771 ;;                  1    wreg      void 
  4772 ;; Registers used:
  4773 ;;		wreg, fsr0l, fsr0h, fsr2l, fsr2h, status,2, status,0, tblptrl, tblptrh, tblptru, prodl, prodh, cstack
  4774 ;; Tracked objects:
  4775 ;;		On entry : 0/0
  4776 ;;		On exit  : 0/0
  4777 ;;		Unchanged: 0/0
  4778 ;; Data sizes:     COMRAM   BANK0   BANK1   BANK2   BANK3   BANK4   BANK5   BANK6   BANK7   BANK8   BANK9  BANK10  BANK1
      +1  BANK12
  4779 ;;      Params:         0       0       0       0       0       0       0       0       0       0       0       0       
      +0       0
  4780 ;;      Locals:         0       0       2       0       0       0       0       0       0       0       0       0       
      +0       0
  4781 ;;      Temps:          0       0       1       0       0       0       0       0       0       0       0       0       
      +0       0
  4782 ;;      Totals:         0       0       3       0       0       0       0       0       0       0       0       0       
      +0       0
  4783 ;;Total ram usage:        3 bytes
  4784 ;; Hardware stack levels used:    1
  4785 ;; Hardware stack levels required when called:   13
  4786 ;; This function calls:
  4787 ;;		_clearDisplay
  4788 ;;		_convertCharsToInt
  4789 ;;		_disableIntRBIE
  4790 ;;		_displayCharOnLCD
  4791 ;;		_displayLineOnLCD
  4792 ;;		_enableIntRBIE
  4793 ;;		_getInput
  4794 ;; This function is called by:
  4795 ;;		_main
  4796 ;; This function uses a non-reentrant model
  4797 ;;
  4798                           
  4799                           	psect	text21
  4800  001AEE                     __ptext21:
  4801                           	opt stack 0
  4802  001AEE                     _automaticConfiguration:
  4803                           	opt stack 17
  4804                           
  4805                           ;SysRiego.c: 522: disableIntRBIE();
  4806                           
  4807                           ; BSR set to: 0
  4808                           ;incstack = 0
  4809  001AEE  EC25  F014         	call	_disableIntRBIE	;wreg free
  4810                           
  4811                           ;SysRiego.c: 524: unsigned char input = ' ';
  4812  001AF2  0E20               	movlw	32
  4813  001AF4  0101               	movlb	1	; () banked
  4814  001AF6  6F51               	movwf	automaticConfiguration@input& (0+255),b
  4815                           
  4816                           ; BSR set to: 1
  4817                           ;SysRiego.c: 525: unsigned char counter = 0;
  4818  001AF8  0E00               	movlw	0
  4819  001AFA  0101               	movlb	1	; () banked
  4820  001AFC  6F50               	movwf	automaticConfiguration@counter& (0+255),b
  4821                           
  4822                           ; BSR set to: 1
  4823                           ;SysRiego.c: 527: clearDisplay();
  4824  001AFE  ECF8  F013         	call	_clearDisplay	;wreg free
  4825                           
  4826                           ;SysRiego.c: 528: displayLineOnLCD(configAutoMessage, sizeof(configAutoMessage) / sizeof
      +                          (configAutoMessage[0]));
  4827  001B02  0E44               	movlw	low _configAutoMessage
  4828  001B04  0100               	movlb	0	; () banked
  4829  001B06  6FDF               	movwf	displayLineOnLCD@array& (0+255),b
  4830  001B08  0E01               	movlw	high _configAutoMessage
  4831  001B0A  0100               	movlb	0	; () banked
  4832  001B0C  6FE0               	movwf	(displayLineOnLCD@array+1)& (0+255),b
  4833  001B0E  0E0B               	movlw	11
  4834  001B10  0100               	movlb	0	; () banked
  4835  001B12  6FE1               	movwf	displayLineOnLCD@sizeOfArray& (0+255),b
  4836  001B14  EC50  F010         	call	_displayLineOnLCD	;wreg free
  4837                           
  4838                           ;SysRiego.c: 529: displayCharOnLCD(zoneSelected[0]);
  4839  001B18  C0EB  FFD9         	movff	_zoneSelected,fsr2l
  4840  001B1C  C0EC  FFDA         	movff	_zoneSelected+1,fsr2h
  4841  001B20  50DF               	movf	indf2,w,c
  4842  001B22  ECD0  F013         	call	_displayCharOnLCD
  4843                           
  4844                           ;SysRiego.c: 530: displayCharOnLCD(zoneSelected[1]);
  4845  001B26  0100               	movlb	0	; () banked
  4846  001B28  EE20 F001          	lfsr	2,1
  4847  001B2C  51EB               	movf	_zoneSelected& (0+255),w,b
  4848  001B2E  26D9               	addwf	fsr2l,f,c
  4849  001B30  51EC               	movf	(_zoneSelected+1)& (0+255),w,b
  4850  001B32  22DA               	addwfc	fsr2h,f,c
  4851  001B34  50DF               	movf	indf2,w,c
  4852  001B36  ECD0  F013         	call	_displayCharOnLCD
  4853                           
  4854                           ;SysRiego.c: 533: while(input != '#') {
  4855  001B3A  D037               	goto	l5208
  4856  001B3C                     l5190:
  4857                           
  4858                           ;SysRiego.c: 535: input = getInput();
  4859  001B3C  ECA5  F012         	call	_getInput	;wreg free
  4860  001B40  0101               	movlb	1	; () banked
  4861  001B42  6F51               	movwf	automaticConfiguration@input& (0+255),b
  4862                           
  4863                           ; BSR set to: 1
  4864                           ;SysRiego.c: 537: if(input != '#' && input) {
  4865  001B44  0E23               	movlw	35
  4866  001B46  0101               	movlb	1	; () banked
  4867  001B48  1951               	xorwf	automaticConfiguration@input& (0+255),w,b
  4868  001B4A  B4D8               	btfsc	status,2,c
  4869  001B4C  D02E               	goto	l5208
  4870                           
  4871                           ; BSR set to: 1
  4872  001B4E  0101               	movlb	1	; () banked
  4873  001B50  5151               	movf	automaticConfiguration@input& (0+255),w,b
  4874  001B52  0101               	movlb	1	; () banked
  4875  001B54  B4D8               	btfsc	status,2,c
  4876  001B56  D029               	goto	l5208
  4877                           
  4878                           ; BSR set to: 1
  4879                           ;SysRiego.c: 538: zoneSelected[counter%2] = input;
  4880  001B58  C150  F14F         	movff	automaticConfiguration@counter,??_automaticConfiguration
  4881  001B5C  0E01               	movlw	1
  4882  001B5E  0101               	movlb	1	; () banked
  4883  001B60  174F               	andwf	??_automaticConfiguration& (0+255),f,b
  4884  001B62  0101               	movlb	1	; () banked
  4885  001B64  514F               	movf	??_automaticConfiguration& (0+255),w,b
  4886  001B66  0100               	movlb	0	; () banked
  4887  001B68  25EB               	addwf	_zoneSelected& (0+255),w,b
  4888  001B6A  6ED9               	movwf	fsr2l,c
  4889  001B6C  0101               	movlb	1	; () banked
  4890  001B6E  0E00               	movlw	0
  4891  001B70  0100               	movlb	0	; () banked
  4892  001B72  21EC               	addwfc	(_zoneSelected+1)& (0+255),w,b
  4893  001B74  6EDA               	movwf	fsr2h,c
  4894  001B76  C151  FFDF         	movff	automaticConfiguration@input,indf2
  4895                           
  4896                           ; BSR set to: 0
  4897                           ;SysRiego.c: 539: clearDisplay();
  4898  001B7A  ECF8  F013         	call	_clearDisplay	;wreg free
  4899                           
  4900                           ;SysRiego.c: 540: displayCharOnLCD(zoneSelected[0]);
  4901  001B7E  C0EB  FFD9         	movff	_zoneSelected,fsr2l
  4902  001B82  C0EC  FFDA         	movff	_zoneSelected+1,fsr2h
  4903  001B86  50DF               	movf	indf2,w,c
  4904  001B88  ECD0  F013         	call	_displayCharOnLCD
  4905                           
  4906                           ;SysRiego.c: 541: displayCharOnLCD(zoneSelected[1]);
  4907  001B8C  0100               	movlb	0	; () banked
  4908  001B8E  EE20 F001          	lfsr	2,1
  4909  001B92  51EB               	movf	_zoneSelected& (0+255),w,b
  4910  001B94  26D9               	addwf	fsr2l,f,c
  4911  001B96  51EC               	movf	(_zoneSelected+1)& (0+255),w,b
  4912  001B98  22DA               	addwfc	fsr2h,f,c
  4913  001B9A  50DF               	movf	indf2,w,c
  4914  001B9C  ECD0  F013         	call	_displayCharOnLCD
  4915                           
  4916                           ;SysRiego.c: 542: displayCharOnLCD('%');
  4917  001BA0  0E25               	movlw	37
  4918  001BA2  ECD0  F013         	call	_displayCharOnLCD
  4919                           
  4920                           ;SysRiego.c: 543: counter++;
  4921  001BA6  0101               	movlb	1	; () banked
  4922  001BA8  2B50               	incf	automaticConfiguration@counter& (0+255),f,b
  4923  001BAA                     l5208:
  4924  001BAA  0E23               	movlw	35
  4925  001BAC  0101               	movlb	1	; () banked
  4926  001BAE  1951               	xorwf	automaticConfiguration@input& (0+255),w,b
  4927  001BB0  A4D8               	btfss	status,2,c
  4928  001BB2  D7C4               	goto	l5190
  4929                           
  4930                           ; BSR set to: 1
  4931                           ;SysRiego.c: 544: }
  4932                           ;SysRiego.c: 546: }
  4933                           ;SysRiego.c: 548: *humidityZnValInt = convertCharsToInt(zoneSelected);
  4934                           
  4935                           ; BSR set to: 1
  4936  001BB4  C0EB  F01D         	movff	_zoneSelected,convertCharsToInt@humidityValue
  4937  001BB8  C0EC  F01E         	movff	_zoneSelected+1,convertCharsToInt@humidityValue+1
  4938  001BBC  EC1C  F012         	call	_convertCharsToInt	;wreg free
  4939  001BC0  C0E9  FFD9         	movff	_humidityZnValInt,fsr2l
  4940  001BC4  C0EA  FFDA         	movff	_humidityZnValInt+1,fsr2h
  4941  001BC8  6EDF               	movwf	indf2,c
  4942                           
  4943                           ;SysRiego.c: 550: enableIntRBIE();
  4944  001BCA  EC20  F014         	call	_enableIntRBIE	;wreg free
  4945                           
  4946                           ;SysRiego.c: 552: statusConfiguration = 0;
  4947  001BCE  0E00               	movlw	0
  4948  001BD0  0100               	movlb	0	; () banked
  4949  001BD2  6FEE               	movwf	_statusConfiguration& (0+255),b
  4950                           
  4951                           ; BSR set to: 0
  4952  001BD4  0012               	return		;funcret
  4953  001BD6                     __end_of_automaticConfiguration:
  4954                           	opt stack 0
  4955                           tblptru	equ	0xFF8
  4956                           tblptrh	equ	0xFF7
  4957                           tblptrl	equ	0xFF6
  4958                           tablat	equ	0xFF5
  4959                           prodh	equ	0xFF4
  4960                           prodl	equ	0xFF3
  4961                           intcon	equ	0xFF2
  4962                           intcon2	equ	0xFF1
  4963                           postinc0	equ	0xFEE
  4964                           wreg	equ	0xFE8
  4965                           indf1	equ	0xFE7
  4966                           postdec1	equ	0xFE5
  4967                           fsr1h	equ	0xFE2
  4968                           fsr1l	equ	0xFE1
  4969                           indf2	equ	0xFDF
  4970                           postinc2	equ	0xFDE
  4971                           postdec2	equ	0xFDD
  4972                           fsr2h	equ	0xFDA
  4973                           fsr2l	equ	0xFD9
  4974                           status	equ	0xFD8
  4975                           
  4976 ;; *************** function _getInput *****************
  4977 ;; Defined at:
  4978 ;;		line 869 in file "SysRiego.c"
  4979 ;; Parameters:    Size  Location     Type
  4980 ;;		None
  4981 ;; Auto vars:     Size  Location     Type
  4982 ;;		None
  4983 ;; Return value:  Size  Location     Type
  4984 ;;                  1    wreg      unsigned char 
  4985 ;; Registers used:
  4986 ;;		wreg, status,2, status,0, cstack
  4987 ;; Tracked objects:
  4988 ;;		On entry : 0/0
  4989 ;;		On exit  : 0/0
  4990 ;;		Unchanged: 0/0
  4991 ;; Data sizes:     COMRAM   BANK0   BANK1   BANK2   BANK3   BANK4   BANK5   BANK6   BANK7   BANK8   BANK9  BANK10  BANK1
      +1  BANK12
  4992 ;;      Params:         0       0       0       0       0       0       0       0       0       0       0       0       
      +0       0
  4993 ;;      Locals:         0       0       0       0       0       0       0       0       0       0       0       0       
      +0       0
  4994 ;;      Temps:          0       0       0       0       0       0       0       0       0       0       0       0       
      +0       0
  4995 ;;      Totals:         0       0       0       0       0       0       0       0       0       0       0       0       
      +0       0
  4996 ;;Total ram usage:        0 bytes
  4997 ;; Hardware stack levels used:    1
  4998 ;; Hardware stack levels required when called:   12
  4999 ;; This function calls:
  5000 ;;		_groundAllRows
  5001 ;;		_readInput
  5002 ;;		_resetReadInput
  5003 ;; This function is called by:
  5004 ;;		_automaticConfiguration
  5005 ;;		_timerConfiguration
  5006 ;;		_manualConfiguration
  5007 ;; This function uses a non-reentrant model
  5008 ;;
  5009                           
  5010                           	psect	text22
  5011  00254A                     __ptext22:
  5012                           	opt stack 0
  5013  00254A                     _getInput:
  5014                           	opt stack 17
  5015                           
  5016                           ;SysRiego.c: 871: getValueStatus = 0;
  5017                           
  5018                           ; BSR set to: 0
  5019                           ;incstack = 0
  5020  00254A  0E00               	movlw	0
  5021  00254C  6E3D               	movwf	_getValueStatus,c
  5022                           
  5023                           ;SysRiego.c: 873: oneShotFlag = 0;
  5024  00254E  0E00               	movlw	0
  5025  002550  6E41               	movwf	_oneShotFlag,c
  5026                           
  5027                           ;SysRiego.c: 875: while(getValueStatus == 0) {
  5028  002552  D00B               	goto	l4832
  5029  002554                     l4822:
  5030                           
  5031                           ;SysRiego.c: 877: groundAllRows();
  5032  002554  EC1B  F014         	call	_groundAllRows	;wreg free
  5033                           
  5034                           ;SysRiego.c: 879: if (PORTB != 0xF0) {
  5035  002558  0EF0               	movlw	240
  5036  00255A  1881               	xorwf	3969,w,c	;volatile
  5037  00255C  A4D8               	btfss	status,2,c
  5038                           
  5039                           ;SysRiego.c: 880: readInput();
  5040  00255E  EC36  F013         	call	_readInput	;wreg free
  5041                           
  5042                           ;SysRiego.c: 881: }
  5043                           ;SysRiego.c: 883: if (oneShotFlag == 1) {
  5044  002562  0441               	decf	_oneShotFlag,w,c
  5045  002564  B4D8               	btfsc	status,2,c
  5046                           
  5047                           ;SysRiego.c: 884: resetReadInput();
  5048  002566  EC19  F013         	call	_resetReadInput	;wreg free
  5049  00256A                     l4832:
  5050  00256A  503D               	movf	_getValueStatus,w,c
  5051  00256C  B4D8               	btfsc	status,2,c
  5052  00256E  D7F2               	goto	l4822
  5053                           
  5054                           ;SysRiego.c: 885: }
  5055                           ;SysRiego.c: 887: }
  5056                           ;SysRiego.c: 889: return keyCode;
  5057  002570  5040               	movf	_keyCode,w,c
  5058  002572  0012               	return	
  5059  002574                     __end_of_getInput:
  5060                           	opt stack 0
  5061                           tblptru	equ	0xFF8
  5062                           tblptrh	equ	0xFF7
  5063                           tblptrl	equ	0xFF6
  5064                           tablat	equ	0xFF5
  5065                           prodh	equ	0xFF4
  5066                           prodl	equ	0xFF3
  5067                           intcon	equ	0xFF2
  5068                           intcon2	equ	0xFF1
  5069                           postinc0	equ	0xFEE
  5070                           wreg	equ	0xFE8
  5071                           indf1	equ	0xFE7
  5072                           postdec1	equ	0xFE5
  5073                           fsr1h	equ	0xFE2
  5074                           fsr1l	equ	0xFE1
  5075                           indf2	equ	0xFDF
  5076                           postinc2	equ	0xFDE
  5077                           postdec2	equ	0xFDD
  5078                           fsr2h	equ	0xFDA
  5079                           fsr2l	equ	0xFD9
  5080                           status	equ	0xFD8
  5081                           
  5082 ;; *************** function _resetReadInput *****************
  5083 ;; Defined at:
  5084 ;;		line 1287 in file "SysRiego.c"
  5085 ;; Parameters:    Size  Location     Type
  5086 ;;		None
  5087 ;; Auto vars:     Size  Location     Type
  5088 ;;		None
  5089 ;; Return value:  Size  Location     Type
  5090 ;;                  1    wreg      void 
  5091 ;; Registers used:
  5092 ;;		wreg, status,2, status,0, cstack
  5093 ;; Tracked objects:
  5094 ;;		On entry : 0/0
  5095 ;;		On exit  : 0/0
  5096 ;;		Unchanged: 0/0
  5097 ;; Data sizes:     COMRAM   BANK0   BANK1   BANK2   BANK3   BANK4   BANK5   BANK6   BANK7   BANK8   BANK9  BANK10  BANK1
      +1  BANK12
  5098 ;;      Params:         0       0       0       0       0       0       0       0       0       0       0       0       
      +0       0
  5099 ;;      Locals:         0       0       0       0       0       0       0       0       0       0       0       0       
      +0       0
  5100 ;;      Temps:          0       0       0       0       0       0       0       0       0       0       0       0       
      +0       0
  5101 ;;      Totals:         0       0       0       0       0       0       0       0       0       0       0       0       
      +0       0
  5102 ;;Total ram usage:        0 bytes
  5103 ;; Hardware stack levels used:    1
  5104 ;; Hardware stack levels required when called:    9
  5105 ;; This function calls:
  5106 ;;		_delay
  5107 ;; This function is called by:
  5108 ;;		_getInput
  5109 ;; This function uses a non-reentrant model
  5110 ;;
  5111                           
  5112                           	psect	text23
  5113  002632                     __ptext23:
  5114                           	opt stack 0
  5115  002632                     _resetReadInput:
  5116                           	opt stack 19
  5117                           
  5118                           ;SysRiego.c: 1288: if (PORTB == 0xF0)
  5119                           
  5120                           ;incstack = 0
  5121  002632  0EF0               	movlw	240
  5122  002634  1881               	xorwf	3969,w,c	;volatile
  5123  002636  A4D8               	btfss	status,2,c
  5124  002638  0012               	return	
  5125                           
  5126                           ;SysRiego.c: 1289: delay();
  5127  00263A  EC44  F013         	call	_delay	;wreg free
  5128                           
  5129                           ;SysRiego.c: 1292: if (PORTB == 0XF0){
  5130                           
  5131                           ;SysRiego.c: 1290: else
  5132                           ;SysRiego.c: 1291: return;
  5133  00263E  0EF0               	movlw	240
  5134  002640  1881               	xorwf	3969,w,c	;volatile
  5135  002642  A4D8               	btfss	status,2,c
  5136  002644  0012               	return	
  5137                           
  5138                           ;SysRiego.c: 1293: oneShotFlag = 0;
  5139  002646  0E00               	movlw	0
  5140  002648  6E41               	movwf	_oneShotFlag,c
  5141                           
  5142                           ;SysRiego.c: 1294: getValueStatus = 1;
  5143  00264A  0E01               	movlw	1
  5144  00264C  6E3D               	movwf	_getValueStatus,c
  5145  00264E  0012               	return	
  5146  002650                     __end_of_resetReadInput:
  5147                           	opt stack 0
  5148                           tblptru	equ	0xFF8
  5149                           tblptrh	equ	0xFF7
  5150                           tblptrl	equ	0xFF6
  5151                           tablat	equ	0xFF5
  5152                           prodh	equ	0xFF4
  5153                           prodl	equ	0xFF3
  5154                           intcon	equ	0xFF2
  5155                           intcon2	equ	0xFF1
  5156                           postinc0	equ	0xFEE
  5157                           wreg	equ	0xFE8
  5158                           indf1	equ	0xFE7
  5159                           postdec1	equ	0xFE5
  5160                           fsr1h	equ	0xFE2
  5161                           fsr1l	equ	0xFE1
  5162                           indf2	equ	0xFDF
  5163                           postinc2	equ	0xFDE
  5164                           postdec2	equ	0xFDD
  5165                           fsr2h	equ	0xFDA
  5166                           fsr2l	equ	0xFD9
  5167                           status	equ	0xFD8
  5168                           
  5169 ;; *************** function _readInput *****************
  5170 ;; Defined at:
  5171 ;;		line 1264 in file "SysRiego.c"
  5172 ;; Parameters:    Size  Location     Type
  5173 ;;		None
  5174 ;; Auto vars:     Size  Location     Type
  5175 ;;		None
  5176 ;; Return value:  Size  Location     Type
  5177 ;;                  1    wreg      void 
  5178 ;; Registers used:
  5179 ;;		wreg, status,2, status,0, cstack
  5180 ;; Tracked objects:
  5181 ;;		On entry : 0/0
  5182 ;;		On exit  : 0/0
  5183 ;;		Unchanged: 0/0
  5184 ;; Data sizes:     COMRAM   BANK0   BANK1   BANK2   BANK3   BANK4   BANK5   BANK6   BANK7   BANK8   BANK9  BANK10  BANK1
      +1  BANK12
  5185 ;;      Params:         0       0       0       0       0       0       0       0       0       0       0       0       
      +0       0
  5186 ;;      Locals:         0       0       0       0       0       0       0       0       0       0       0       0       
      +0       0
  5187 ;;      Temps:          0       0       0       0       0       0       0       0       0       0       0       0       
      +0       0
  5188 ;;      Totals:         0       0       0       0       0       0       0       0       0       0       0       0       
      +0       0
  5189 ;;Total ram usage:        0 bytes
  5190 ;; Hardware stack levels used:    1
  5191 ;; Hardware stack levels required when called:   11
  5192 ;; This function calls:
  5193 ;;		_delay
  5194 ;;		_readKey
  5195 ;; This function is called by:
  5196 ;;		_getInput
  5197 ;; This function uses a non-reentrant model
  5198 ;;
  5199                           
  5200                           	psect	text24
  5201  00266C                     __ptext24:
  5202                           	opt stack 0
  5203  00266C                     _readInput:
  5204                           	opt stack 17
  5205                           
  5206                           ;SysRiego.c: 1265: if (oneShotFlag == 1)
  5207                           
  5208                           ;incstack = 0
  5209  00266C  0441               	decf	_oneShotFlag,w,c
  5210  00266E  B4D8               	btfsc	status,2,c
  5211  002670  0012               	return	
  5212                           
  5213                           ;SysRiego.c: 1267: delay();
  5214                           
  5215                           ;SysRiego.c: 1266: return;
  5216  002672  EC44  F013         	call	_delay	;wreg free
  5217                           
  5218                           ;SysRiego.c: 1268: if (PORTB != 0xF0){
  5219  002676  0EF0               	movlw	240
  5220  002678  1881               	xorwf	3969,w,c	;volatile
  5221  00267A  B4D8               	btfsc	status,2,c
  5222  00267C  0012               	return	
  5223                           
  5224                           ;SysRiego.c: 1269: readKey();
  5225  00267E  ECC9  F011         	call	_readKey	;wreg free
  5226                           
  5227                           ;SysRiego.c: 1270: oneShotFlag = 1;
  5228  002682  0E01               	movlw	1
  5229  002684  6E41               	movwf	_oneShotFlag,c
  5230  002686  0012               	return	
  5231  002688                     __end_of_readInput:
  5232                           	opt stack 0
  5233                           tblptru	equ	0xFF8
  5234                           tblptrh	equ	0xFF7
  5235                           tblptrl	equ	0xFF6
  5236                           tablat	equ	0xFF5
  5237                           prodh	equ	0xFF4
  5238                           prodl	equ	0xFF3
  5239                           intcon	equ	0xFF2
  5240                           intcon2	equ	0xFF1
  5241                           postinc0	equ	0xFEE
  5242                           wreg	equ	0xFE8
  5243                           indf1	equ	0xFE7
  5244                           postdec1	equ	0xFE5
  5245                           fsr1h	equ	0xFE2
  5246                           fsr1l	equ	0xFE1
  5247                           indf2	equ	0xFDF
  5248                           postinc2	equ	0xFDE
  5249                           postdec2	equ	0xFDD
  5250                           fsr2h	equ	0xFDA
  5251                           fsr2l	equ	0xFD9
  5252                           status	equ	0xFD8
  5253                           
  5254 ;; *************** function _readKey *****************
  5255 ;; Defined at:
  5256 ;;		line 1274 in file "SysRiego.c"
  5257 ;; Parameters:    Size  Location     Type
  5258 ;;		None
  5259 ;; Auto vars:     Size  Location     Type
  5260 ;;		None
  5261 ;; Return value:  Size  Location     Type
  5262 ;;                  1    wreg      void 
  5263 ;; Registers used:
  5264 ;;		wreg, status,2, status,0, cstack
  5265 ;; Tracked objects:
  5266 ;;		On entry : 0/0
  5267 ;;		On exit  : 0/0
  5268 ;;		Unchanged: 0/0
  5269 ;; Data sizes:     COMRAM   BANK0   BANK1   BANK2   BANK3   BANK4   BANK5   BANK6   BANK7   BANK8   BANK9  BANK10  BANK1
      +1  BANK12
  5270 ;;      Params:         0       0       0       0       0       0       0       0       0       0       0       0       
      +0       0
  5271 ;;      Locals:         0       0       0       0       0       0       0       0       0       0       0       0       
      +0       0
  5272 ;;      Temps:          0       0       0       0       0       0       0       0       0       0       0       0       
      +0       0
  5273 ;;      Totals:         0       0       0       0       0       0       0       0       0       0       0       0       
      +0       0
  5274 ;;Total ram usage:        0 bytes
  5275 ;; Hardware stack levels used:    1
  5276 ;; Hardware stack levels required when called:   10
  5277 ;; This function calls:
  5278 ;;		_determinePressedRow
  5279 ;;		_getKeyCode
  5280 ;; This function is called by:
  5281 ;;		_readInput
  5282 ;; This function uses a non-reentrant model
  5283 ;;
  5284                           
  5285                           	psect	text25
  5286  002392                     __ptext25:
  5287                           	opt stack 0
  5288  002392                     _readKey:
  5289                           	opt stack 17
  5290                           
  5291                           ;SysRiego.c: 1276: switch(PORTB){
  5292                           
  5293                           ;incstack = 0
  5294  002392  D00B               	goto	l4662
  5295  002394                     l4652:
  5296  002394  0E01               	movlw	1
  5297  002396  D007               	goto	L6
  5298  002398                     l4654:
  5299  002398  0E02               	movlw	2
  5300  00239A  D005               	goto	L6
  5301  00239C                     l4656:
  5302  00239C  0E03               	movlw	3
  5303  00239E  D003               	goto	L6
  5304  0023A0                     l4658:
  5305  0023A0  0E04               	movlw	4
  5306  0023A2  D001               	goto	L6
  5307  0023A4                     l4660:
  5308  0023A4  0E64               	movlw	100
  5309  0023A6                     L6:
  5310  0023A6  6E3C               	movwf	_columnSelected,c
  5311                           
  5312                           ;SysRiego.c: 1282: }
  5313  0023A8  D00E               	goto	l4664
  5314  0023AA                     l4662:
  5315  0023AA  5081               	movf	3969,w,c	;volatile
  5316                           
  5317                           ; Switch size 1, requested type "space"
  5318                           ; Number of cases is 4, Range of values is 112 to 224
  5319                           ; switch strategies available:
  5320                           ; Name         Instructions Cycles
  5321                           ; simple_byte           13     7 (average)
  5322                           ;	Chosen strategy is simple_byte
  5323  0023AC  0A70               	xorlw	112	; case 112
  5324  0023AE  B4D8               	btfsc	status,2,c
  5325  0023B0  D7F7               	goto	l4658
  5326  0023B2  0AC0               	xorlw	192	; case 176
  5327  0023B4  B4D8               	btfsc	status,2,c
  5328  0023B6  D7F2               	goto	l4656
  5329  0023B8  0A60               	xorlw	96	; case 208
  5330  0023BA  B4D8               	btfsc	status,2,c
  5331  0023BC  D7ED               	goto	l4654
  5332  0023BE  0A30               	xorlw	48	; case 224
  5333  0023C0  B4D8               	btfsc	status,2,c
  5334  0023C2  D7E8               	goto	l4652
  5335  0023C4  D7EF               	goto	l4660
  5336  0023C6                     l4664:
  5337                           
  5338                           ;SysRiego.c: 1283: determinePressedRow();
  5339  0023C6  EC4E  F00B         	call	_determinePressedRow	;wreg free
  5340                           
  5341                           ;SysRiego.c: 1284: keyCode = getKeyCode();
  5342  0023CA  ECCA  F00E         	call	_getKeyCode	;wreg free
  5343  0023CE  6E40               	movwf	_keyCode,c
  5344  0023D0  0012               	return		;funcret
  5345  0023D2                     __end_of_readKey:
  5346                           	opt stack 0
  5347                           tblptru	equ	0xFF8
  5348                           tblptrh	equ	0xFF7
  5349                           tblptrl	equ	0xFF6
  5350                           tablat	equ	0xFF5
  5351                           prodh	equ	0xFF4
  5352                           prodl	equ	0xFF3
  5353                           intcon	equ	0xFF2
  5354                           intcon2	equ	0xFF1
  5355                           postinc0	equ	0xFEE
  5356                           wreg	equ	0xFE8
  5357                           indf1	equ	0xFE7
  5358                           postdec1	equ	0xFE5
  5359                           fsr1h	equ	0xFE2
  5360                           fsr1l	equ	0xFE1
  5361                           indf2	equ	0xFDF
  5362                           postinc2	equ	0xFDE
  5363                           postdec2	equ	0xFDD
  5364                           fsr2h	equ	0xFDA
  5365                           fsr2l	equ	0xFD9
  5366                           status	equ	0xFD8
  5367                           
  5368 ;; *************** function _getKeyCode *****************
  5369 ;; Defined at:
  5370 ;;		line 1040 in file "SysRiego.c"
  5371 ;; Parameters:    Size  Location     Type
  5372 ;;		None
  5373 ;; Auto vars:     Size  Location     Type
  5374 ;;		None
  5375 ;; Return value:  Size  Location     Type
  5376 ;;                  1    wreg      unsigned char 
  5377 ;; Registers used:
  5378 ;;		wreg, status,2, status,0
  5379 ;; Tracked objects:
  5380 ;;		On entry : 0/0
  5381 ;;		On exit  : 0/0
  5382 ;;		Unchanged: 0/0
  5383 ;; Data sizes:     COMRAM   BANK0   BANK1   BANK2   BANK3   BANK4   BANK5   BANK6   BANK7   BANK8   BANK9  BANK10  BANK1
      +1  BANK12
  5384 ;;      Params:         0       0       0       0       0       0       0       0       0       0       0       0       
      +0       0
  5385 ;;      Locals:         0       0       0       0       0       0       0       0       0       0       0       0       
      +0       0
  5386 ;;      Temps:          0       0       0       0       0       0       0       0       0       0       0       0       
      +0       0
  5387 ;;      Totals:         0       0       0       0       0       0       0       0       0       0       0       0       
      +0       0
  5388 ;;Total ram usage:        0 bytes
  5389 ;; Hardware stack levels used:    1
  5390 ;; Hardware stack levels required when called:    8
  5391 ;; This function calls:
  5392 ;;		Nothing
  5393 ;; This function is called by:
  5394 ;;		_readKey
  5395 ;; This function uses a non-reentrant model
  5396 ;;
  5397                           
  5398                           	psect	text26
  5399  001D94                     __ptext26:
  5400                           	opt stack 0
  5401  001D94                     _getKeyCode:
  5402                           	opt stack 18
  5403                           
  5404                           ;SysRiego.c: 1041: if(rowSelected == 1){
  5405                           
  5406                           ;incstack = 0
  5407  001D94  0442               	decf	_rowSelected,w,c
  5408  001D96  B4D8               	btfsc	status,2,c
  5409  001D98  D009               	goto	l4558
  5410  001D9A  D016               	goto	l4560
  5411  001D9C                     l4540:
  5412  001D9C  0E31               	movlw	49
  5413  001D9E  0012               	return	
  5414  001DA0                     l4544:
  5415  001DA0  0E32               	movlw	50
  5416  001DA2  0012               	return	
  5417  001DA4                     l4548:
  5418  001DA4  0E33               	movlw	51
  5419  001DA6  0012               	return	
  5420  001DA8                     l4552:
  5421  001DA8  0E41               	movlw	65
  5422  001DAA  0012               	return	
  5423  001DAC                     l4558:
  5424  001DAC  503C               	movf	_columnSelected,w,c
  5425                           
  5426                           ; Switch size 1, requested type "space"
  5427                           ; Number of cases is 4, Range of values is 1 to 4
  5428                           ; switch strategies available:
  5429                           ; Name         Instructions Cycles
  5430                           ; simple_byte           13     7 (average)
  5431                           ;	Chosen strategy is simple_byte
  5432  001DAE  0A01               	xorlw	1	; case 1
  5433  001DB0  B4D8               	btfsc	status,2,c
  5434  001DB2  D7F4               	goto	l4540
  5435  001DB4  0A03               	xorlw	3	; case 2
  5436  001DB6  B4D8               	btfsc	status,2,c
  5437  001DB8  D7F3               	goto	l4544
  5438  001DBA  0A01               	xorlw	1	; case 3
  5439  001DBC  B4D8               	btfsc	status,2,c
  5440  001DBE  D7F2               	goto	l4548
  5441  001DC0  0A07               	xorlw	7	; case 4
  5442  001DC2  B4D8               	btfsc	status,2,c
  5443  001DC4  D7F1               	goto	l4552
  5444                           
  5445                           ;SysRiego.c: 1048: }
  5446  001DC6  D050               	goto	l4632
  5447  001DC8                     l4560:
  5448                           
  5449                           ;SysRiego.c: 1049: else if(rowSelected == 2){
  5450  001DC8  0E02               	movlw	2
  5451  001DCA  1842               	xorwf	_rowSelected,w,c
  5452  001DCC  B4D8               	btfsc	status,2,c
  5453  001DCE  D009               	goto	l4582
  5454  001DD0  D016               	goto	l4584
  5455  001DD2                     l4564:
  5456  001DD2  0E34               	movlw	52
  5457  001DD4  0012               	return	
  5458  001DD6                     l4568:
  5459  001DD6  0E35               	movlw	53
  5460  001DD8  0012               	return	
  5461  001DDA                     l4572:
  5462  001DDA  0E36               	movlw	54
  5463  001DDC  0012               	return	
  5464  001DDE                     l4576:
  5465  001DDE  0E42               	movlw	66
  5466  001DE0  0012               	return	
  5467  001DE2                     l4582:
  5468  001DE2  503C               	movf	_columnSelected,w,c
  5469                           
  5470                           ; Switch size 1, requested type "space"
  5471                           ; Number of cases is 4, Range of values is 1 to 4
  5472                           ; switch strategies available:
  5473                           ; Name         Instructions Cycles
  5474                           ; simple_byte           13     7 (average)
  5475                           ;	Chosen strategy is simple_byte
  5476  001DE4  0A01               	xorlw	1	; case 1
  5477  001DE6  B4D8               	btfsc	status,2,c
  5478  001DE8  D7F4               	goto	l4564
  5479  001DEA  0A03               	xorlw	3	; case 2
  5480  001DEC  B4D8               	btfsc	status,2,c
  5481  001DEE  D7F3               	goto	l4568
  5482  001DF0  0A01               	xorlw	1	; case 3
  5483  001DF2  B4D8               	btfsc	status,2,c
  5484  001DF4  D7F2               	goto	l4572
  5485  001DF6  0A07               	xorlw	7	; case 4
  5486  001DF8  B4D8               	btfsc	status,2,c
  5487  001DFA  D7F1               	goto	l4576
  5488                           
  5489                           ;SysRiego.c: 1056: }
  5490  001DFC  D035               	goto	l4632
  5491  001DFE                     l4584:
  5492                           
  5493                           ;SysRiego.c: 1057: else if(rowSelected == 3){
  5494  001DFE  0E03               	movlw	3
  5495  001E00  1842               	xorwf	_rowSelected,w,c
  5496  001E02  B4D8               	btfsc	status,2,c
  5497  001E04  D009               	goto	l4606
  5498  001E06  D016               	goto	l4608
  5499  001E08                     l4588:
  5500  001E08  0E37               	movlw	55
  5501  001E0A  0012               	return	
  5502  001E0C                     l4592:
  5503  001E0C  0E38               	movlw	56
  5504  001E0E  0012               	return	
  5505  001E10                     l4596:
  5506  001E10  0E39               	movlw	57
  5507  001E12  0012               	return	
  5508  001E14                     l4600:
  5509  001E14  0E43               	movlw	67
  5510  001E16  0012               	return	
  5511  001E18                     l4606:
  5512  001E18  503C               	movf	_columnSelected,w,c
  5513                           
  5514                           ; Switch size 1, requested type "space"
  5515                           ; Number of cases is 4, Range of values is 1 to 4
  5516                           ; switch strategies available:
  5517                           ; Name         Instructions Cycles
  5518                           ; simple_byte           13     7 (average)
  5519                           ;	Chosen strategy is simple_byte
  5520  001E1A  0A01               	xorlw	1	; case 1
  5521  001E1C  B4D8               	btfsc	status,2,c
  5522  001E1E  D7F4               	goto	l4588
  5523  001E20  0A03               	xorlw	3	; case 2
  5524  001E22  B4D8               	btfsc	status,2,c
  5525  001E24  D7F3               	goto	l4592
  5526  001E26  0A01               	xorlw	1	; case 3
  5527  001E28  B4D8               	btfsc	status,2,c
  5528  001E2A  D7F2               	goto	l4596
  5529  001E2C  0A07               	xorlw	7	; case 4
  5530  001E2E  B4D8               	btfsc	status,2,c
  5531  001E30  D7F1               	goto	l4600
  5532                           
  5533                           ;SysRiego.c: 1064: }
  5534  001E32  D01A               	goto	l4632
  5535  001E34                     l4608:
  5536                           
  5537                           ;SysRiego.c: 1065: else if(rowSelected == 4){
  5538  001E34  0E04               	movlw	4
  5539  001E36  1842               	xorwf	_rowSelected,w,c
  5540  001E38  B4D8               	btfsc	status,2,c
  5541  001E3A  D009               	goto	l4630
  5542  001E3C  D015               	goto	l4632
  5543  001E3E                     l4612:
  5544  001E3E  0E2A               	movlw	42
  5545  001E40  0012               	return	
  5546  001E42                     l4616:
  5547  001E42  0E30               	movlw	48
  5548  001E44  0012               	return	
  5549  001E46                     l4620:
  5550  001E46  0E23               	movlw	35
  5551  001E48  0012               	return	
  5552  001E4A                     l4624:
  5553  001E4A  0E44               	movlw	68
  5554  001E4C  0012               	return	
  5555  001E4E                     l4630:
  5556  001E4E  503C               	movf	_columnSelected,w,c
  5557                           
  5558                           ; Switch size 1, requested type "space"
  5559                           ; Number of cases is 4, Range of values is 1 to 4
  5560                           ; switch strategies available:
  5561                           ; Name         Instructions Cycles
  5562                           ; simple_byte           13     7 (average)
  5563                           ;	Chosen strategy is simple_byte
  5564  001E50  0A01               	xorlw	1	; case 1
  5565  001E52  B4D8               	btfsc	status,2,c
  5566  001E54  D7F4               	goto	l4612
  5567  001E56  0A03               	xorlw	3	; case 2
  5568  001E58  B4D8               	btfsc	status,2,c
  5569  001E5A  D7F3               	goto	l4616
  5570  001E5C  0A01               	xorlw	1	; case 3
  5571  001E5E  B4D8               	btfsc	status,2,c
  5572  001E60  D7F2               	goto	l4620
  5573  001E62  0A07               	xorlw	7	; case 4
  5574  001E64  B4D8               	btfsc	status,2,c
  5575  001E66  D7F1               	goto	l4624
  5576  001E68                     l4632:
  5577                           
  5578                           ;SysRiego.c: 1072: }
  5579                           ;SysRiego.c: 1073: return -1;
  5580  001E68  0EFF               	movlw	255
  5581  001E6A  0012               	return	
  5582  001E6C                     __end_of_getKeyCode:
  5583                           	opt stack 0
  5584                           tblptru	equ	0xFF8
  5585                           tblptrh	equ	0xFF7
  5586                           tblptrl	equ	0xFF6
  5587                           tablat	equ	0xFF5
  5588                           prodh	equ	0xFF4
  5589                           prodl	equ	0xFF3
  5590                           intcon	equ	0xFF2
  5591                           intcon2	equ	0xFF1
  5592                           postinc0	equ	0xFEE
  5593                           wreg	equ	0xFE8
  5594                           indf1	equ	0xFE7
  5595                           postdec1	equ	0xFE5
  5596                           fsr1h	equ	0xFE2
  5597                           fsr1l	equ	0xFE1
  5598                           indf2	equ	0xFDF
  5599                           postinc2	equ	0xFDE
  5600                           postdec2	equ	0xFDD
  5601                           fsr2h	equ	0xFDA
  5602                           fsr2l	equ	0xFD9
  5603                           status	equ	0xFD8
  5604                           
  5605 ;; *************** function _determinePressedRow *****************
  5606 ;; Defined at:
  5607 ;;		line 951 in file "SysRiego.c"
  5608 ;; Parameters:    Size  Location     Type
  5609 ;;		None
  5610 ;; Auto vars:     Size  Location     Type
  5611 ;;  i               1   28[COMRAM] unsigned char 
  5612 ;; Return value:  Size  Location     Type
  5613 ;;                  1    wreg      void 
  5614 ;; Registers used:
  5615 ;;		wreg, status,2, status,0, cstack
  5616 ;; Tracked objects:
  5617 ;;		On entry : 0/0
  5618 ;;		On exit  : 0/0
  5619 ;;		Unchanged: 0/0
  5620 ;; Data sizes:     COMRAM   BANK0   BANK1   BANK2   BANK3   BANK4   BANK5   BANK6   BANK7   BANK8   BANK9  BANK10  BANK1
      +1  BANK12
  5621 ;;      Params:         0       0       0       0       0       0       0       0       0       0       0       0       
      +0       0
  5622 ;;      Locals:         1       0       0       0       0       0       0       0       0       0       0       0       
      +0       0
  5623 ;;      Temps:          0       0       0       0       0       0       0       0       0       0       0       0       
      +0       0
  5624 ;;      Totals:         1       0       0       0       0       0       0       0       0       0       0       0       
      +0       0
  5625 ;;Total ram usage:        1 bytes
  5626 ;; Hardware stack levels used:    1
  5627 ;; Hardware stack levels required when called:    9
  5628 ;; This function calls:
  5629 ;;		_turnOnAllRows
  5630 ;; This function is called by:
  5631 ;;		_readKey
  5632 ;; This function uses a non-reentrant model
  5633 ;;
  5634                           
  5635                           	psect	text27
  5636  00169C                     __ptext27:
  5637                           	opt stack 0
  5638  00169C                     _determinePressedRow:
  5639                           	opt stack 17
  5640                           
  5641                           ;SysRiego.c: 952: char i;
  5642                           ;SysRiego.c: 953: for(i=0; i<4; i++){
  5643                           
  5644                           ;incstack = 0
  5645  00169C  0E00               	movlw	0
  5646  00169E  6E1D               	movwf	determinePressedRow@i,c
  5647  0016A0                     l4394:
  5648  0016A0  0E03               	movlw	3
  5649  0016A2  641D               	cpfsgt	determinePressedRow@i,c
  5650  0016A4  D001               	goto	l4398
  5651  0016A6  0012               	return	
  5652  0016A8                     l4398:
  5653                           
  5654                           ;SysRiego.c: 954: turnOnAllRows();
  5655  0016A8  EC16  F014         	call	_turnOnAllRows	;wreg free
  5656                           
  5657                           ;SysRiego.c: 955: switch(i){
  5658  0016AC  D07D               	goto	l4530
  5659  0016AE                     l476:
  5660                           
  5661                           ;SysRiego.c: 958: PORTBbits.RB0 = 0;
  5662  0016AE  9081               	bcf	3969,0,c	;volatile
  5663                           
  5664                           ;SysRiego.c: 960: if( (columnSelected == 1) && (PORTBbits.RB4 == 0)){
  5665  0016B0  043C               	decf	_columnSelected,w,c
  5666  0016B2  B4D8               	btfsc	status,2,c
  5667  0016B4  B881               	btfsc	3969,4,c	;volatile
  5668  0016B6  D003               	goto	l4408
  5669                           
  5670                           ;SysRiego.c: 961: rowSelected = 1;
  5671  0016B8  0E01               	movlw	1
  5672  0016BA  6E42               	movwf	_rowSelected,c
  5673                           
  5674                           ;SysRiego.c: 962: return;
  5675  0016BC  0012               	return	
  5676  0016BE                     l4408:
  5677                           
  5678                           ;SysRiego.c: 963: }
  5679                           ;SysRiego.c: 964: if( (columnSelected == 2) && (PORTBbits.RB5 == 0)){
  5680  0016BE  0E02               	movlw	2
  5681  0016C0  183C               	xorwf	_columnSelected,w,c
  5682  0016C2  B4D8               	btfsc	status,2,c
  5683  0016C4  BA81               	btfsc	3969,5,c	;volatile
  5684  0016C6  D003               	goto	l4416
  5685                           
  5686                           ;SysRiego.c: 965: rowSelected = 1;
  5687  0016C8  0E01               	movlw	1
  5688  0016CA  6E42               	movwf	_rowSelected,c
  5689                           
  5690                           ;SysRiego.c: 966: return;
  5691  0016CC  0012               	return	
  5692  0016CE                     l4416:
  5693                           
  5694                           ;SysRiego.c: 967: }
  5695                           ;SysRiego.c: 968: if( (columnSelected == 3) && (PORTBbits.RB6 == 0)){
  5696  0016CE  0E03               	movlw	3
  5697  0016D0  183C               	xorwf	_columnSelected,w,c
  5698  0016D2  B4D8               	btfsc	status,2,c
  5699  0016D4  BC81               	btfsc	3969,6,c	;volatile
  5700  0016D6  D003               	goto	l4424
  5701                           
  5702                           ;SysRiego.c: 969: rowSelected = 1;
  5703  0016D8  0E01               	movlw	1
  5704  0016DA  6E42               	movwf	_rowSelected,c
  5705                           
  5706                           ;SysRiego.c: 970: return;
  5707  0016DC  0012               	return	
  5708  0016DE                     l4424:
  5709                           
  5710                           ;SysRiego.c: 971: }
  5711                           ;SysRiego.c: 972: if( (columnSelected == 4) && (PORTBbits.RB7 == 0)){
  5712  0016DE  0E04               	movlw	4
  5713  0016E0  183C               	xorwf	_columnSelected,w,c
  5714  0016E2  B4D8               	btfsc	status,2,c
  5715  0016E4  BE81               	btfsc	3969,7,c	;volatile
  5716  0016E6  D06D               	goto	l4532
  5717                           
  5718                           ;SysRiego.c: 973: rowSelected = 1;
  5719  0016E8  0E01               	movlw	1
  5720  0016EA                     L7:
  5721  0016EA  6E42               	movwf	_rowSelected,c
  5722                           
  5723                           ;SysRiego.c: 974: return;
  5724  0016EC  0012               	return	
  5725  0016EE                     l483:
  5726                           
  5727                           ;SysRiego.c: 978: PORTBbits.RB1 = 0;
  5728  0016EE  9281               	bcf	3969,1,c	;volatile
  5729                           
  5730                           ;SysRiego.c: 979: if( (columnSelected == 1) && (PORTBbits.RB4 == 0)){
  5731  0016F0  043C               	decf	_columnSelected,w,c
  5732  0016F2  B4D8               	btfsc	status,2,c
  5733  0016F4  B881               	btfsc	3969,4,c	;volatile
  5734  0016F6  D003               	goto	l4440
  5735                           
  5736                           ;SysRiego.c: 980: rowSelected = 2;
  5737  0016F8  0E02               	movlw	2
  5738  0016FA  6E42               	movwf	_rowSelected,c
  5739                           
  5740                           ;SysRiego.c: 981: return;
  5741  0016FC  0012               	return	
  5742  0016FE                     l4440:
  5743                           
  5744                           ;SysRiego.c: 982: }
  5745                           ;SysRiego.c: 983: if( (columnSelected == 2) && (PORTBbits.RB5 == 0)){
  5746  0016FE  0E02               	movlw	2
  5747  001700  183C               	xorwf	_columnSelected,w,c
  5748  001702  B4D8               	btfsc	status,2,c
  5749  001704  BA81               	btfsc	3969,5,c	;volatile
  5750  001706  D003               	goto	l4448
  5751                           
  5752                           ;SysRiego.c: 984: rowSelected = 2;
  5753  001708  0E02               	movlw	2
  5754  00170A  6E42               	movwf	_rowSelected,c
  5755                           
  5756                           ;SysRiego.c: 985: return;
  5757  00170C  0012               	return	
  5758  00170E                     l4448:
  5759                           
  5760                           ;SysRiego.c: 986: }
  5761                           ;SysRiego.c: 987: if( (columnSelected == 3) && (PORTBbits.RB6 == 0)){
  5762  00170E  0E03               	movlw	3
  5763  001710  183C               	xorwf	_columnSelected,w,c
  5764  001712  B4D8               	btfsc	status,2,c
  5765  001714  BC81               	btfsc	3969,6,c	;volatile
  5766  001716  D003               	goto	l4456
  5767                           
  5768                           ;SysRiego.c: 988: rowSelected = 2;
  5769  001718  0E02               	movlw	2
  5770  00171A  6E42               	movwf	_rowSelected,c
  5771                           
  5772                           ;SysRiego.c: 989: return;
  5773  00171C  0012               	return	
  5774  00171E                     l4456:
  5775                           
  5776                           ;SysRiego.c: 990: }
  5777                           ;SysRiego.c: 991: if( (columnSelected == 4) && (PORTBbits.RB7 == 0)){
  5778  00171E  0E04               	movlw	4
  5779  001720  183C               	xorwf	_columnSelected,w,c
  5780  001722  B4D8               	btfsc	status,2,c
  5781  001724  BE81               	btfsc	3969,7,c	;volatile
  5782  001726  D04D               	goto	l4532
  5783                           
  5784                           ;SysRiego.c: 992: rowSelected = 2;
  5785  001728  0E02               	movlw	2
  5786  00172A  D7DF               	goto	L7
  5787  00172C                     l488:
  5788                           
  5789                           ;SysRiego.c: 997: PORTBbits.RB2 = 0;
  5790  00172C  9481               	bcf	3969,2,c	;volatile
  5791                           
  5792                           ;SysRiego.c: 998: if( (columnSelected == 1) && (PORTBbits.RB4 == 0)){
  5793  00172E  043C               	decf	_columnSelected,w,c
  5794  001730  B4D8               	btfsc	status,2,c
  5795  001732  B881               	btfsc	3969,4,c	;volatile
  5796  001734  D003               	goto	l4472
  5797                           
  5798                           ;SysRiego.c: 999: rowSelected = 3;
  5799  001736  0E03               	movlw	3
  5800  001738  6E42               	movwf	_rowSelected,c
  5801                           
  5802                           ;SysRiego.c: 1000: return;
  5803  00173A  0012               	return	
  5804  00173C                     l4472:
  5805                           
  5806                           ;SysRiego.c: 1001: }
  5807                           ;SysRiego.c: 1002: if( (columnSelected == 2) && (PORTBbits.RB5 == 0)){
  5808  00173C  0E02               	movlw	2
  5809  00173E  183C               	xorwf	_columnSelected,w,c
  5810  001740  B4D8               	btfsc	status,2,c
  5811  001742  BA81               	btfsc	3969,5,c	;volatile
  5812  001744  D003               	goto	l4480
  5813                           
  5814                           ;SysRiego.c: 1003: rowSelected = 3;
  5815  001746  0E03               	movlw	3
  5816  001748  6E42               	movwf	_rowSelected,c
  5817                           
  5818                           ;SysRiego.c: 1004: return;
  5819  00174A  0012               	return	
  5820  00174C                     l4480:
  5821                           
  5822                           ;SysRiego.c: 1005: }
  5823                           ;SysRiego.c: 1006: if( (columnSelected == 3) && (PORTBbits.RB6 == 0)){
  5824  00174C  0E03               	movlw	3
  5825  00174E  183C               	xorwf	_columnSelected,w,c
  5826  001750  B4D8               	btfsc	status,2,c
  5827  001752  BC81               	btfsc	3969,6,c	;volatile
  5828  001754  D003               	goto	l4488
  5829                           
  5830                           ;SysRiego.c: 1007: rowSelected = 3;
  5831  001756  0E03               	movlw	3
  5832  001758  6E42               	movwf	_rowSelected,c
  5833                           
  5834                           ;SysRiego.c: 1008: return;
  5835  00175A  0012               	return	
  5836  00175C                     l4488:
  5837                           
  5838                           ;SysRiego.c: 1009: }
  5839                           ;SysRiego.c: 1010: if( (columnSelected == 4) && (PORTBbits.RB7 == 0)){
  5840  00175C  0E04               	movlw	4
  5841  00175E  183C               	xorwf	_columnSelected,w,c
  5842  001760  B4D8               	btfsc	status,2,c
  5843  001762  BE81               	btfsc	3969,7,c	;volatile
  5844  001764  D02E               	goto	l4532
  5845                           
  5846                           ;SysRiego.c: 1011: rowSelected = 3;
  5847  001766  0E03               	movlw	3
  5848  001768  D7C0               	goto	L7
  5849  00176A                     l493:
  5850                           
  5851                           ;SysRiego.c: 1017: PORTBbits.RB3 = 0;
  5852  00176A  9681               	bcf	3969,3,c	;volatile
  5853                           
  5854                           ;SysRiego.c: 1018: if( (columnSelected == 1) && (PORTBbits.RB4 == 0)){
  5855  00176C  043C               	decf	_columnSelected,w,c
  5856  00176E  B4D8               	btfsc	status,2,c
  5857  001770  B881               	btfsc	3969,4,c	;volatile
  5858  001772  D003               	goto	l4504
  5859                           
  5860                           ;SysRiego.c: 1019: rowSelected = 4;
  5861  001774  0E04               	movlw	4
  5862  001776  6E42               	movwf	_rowSelected,c
  5863                           
  5864                           ;SysRiego.c: 1020: return;
  5865  001778  0012               	return	
  5866  00177A                     l4504:
  5867                           
  5868                           ;SysRiego.c: 1021: }
  5869                           ;SysRiego.c: 1022: if( (columnSelected == 2) && (PORTBbits.RB5 == 0)){
  5870  00177A  0E02               	movlw	2
  5871  00177C  183C               	xorwf	_columnSelected,w,c
  5872  00177E  B4D8               	btfsc	status,2,c
  5873  001780  BA81               	btfsc	3969,5,c	;volatile
  5874  001782  D003               	goto	l4512
  5875                           
  5876                           ;SysRiego.c: 1023: rowSelected = 4;
  5877  001784  0E04               	movlw	4
  5878  001786  6E42               	movwf	_rowSelected,c
  5879                           
  5880                           ;SysRiego.c: 1024: return;
  5881  001788  0012               	return	
  5882  00178A                     l4512:
  5883                           
  5884                           ;SysRiego.c: 1025: }
  5885                           ;SysRiego.c: 1026: if( (columnSelected == 3) && (PORTBbits.RB6 == 0)){
  5886  00178A  0E03               	movlw	3
  5887  00178C  183C               	xorwf	_columnSelected,w,c
  5888  00178E  B4D8               	btfsc	status,2,c
  5889  001790  BC81               	btfsc	3969,6,c	;volatile
  5890  001792  D003               	goto	l4520
  5891                           
  5892                           ;SysRiego.c: 1027: rowSelected = 4;
  5893  001794  0E04               	movlw	4
  5894  001796  6E42               	movwf	_rowSelected,c
  5895                           
  5896                           ;SysRiego.c: 1028: return;
  5897  001798  0012               	return	
  5898  00179A                     l4520:
  5899                           
  5900                           ;SysRiego.c: 1029: }
  5901                           ;SysRiego.c: 1030: if( (columnSelected == 4) && (PORTBbits.RB7 == 0)){
  5902  00179A  0E04               	movlw	4
  5903  00179C  183C               	xorwf	_columnSelected,w,c
  5904  00179E  B4D8               	btfsc	status,2,c
  5905  0017A0  BE81               	btfsc	3969,7,c	;volatile
  5906  0017A2  D00F               	goto	l4532
  5907                           
  5908                           ;SysRiego.c: 1031: rowSelected = 4;
  5909  0017A4  0E04               	movlw	4
  5910  0017A6  D7A1               	goto	L7
  5911  0017A8                     l4530:
  5912  0017A8  501D               	movf	determinePressedRow@i,w,c
  5913                           
  5914                           ; Switch size 1, requested type "space"
  5915                           ; Number of cases is 4, Range of values is 0 to 3
  5916                           ; switch strategies available:
  5917                           ; Name         Instructions Cycles
  5918                           ; simple_byte           13     7 (average)
  5919                           ;	Chosen strategy is simple_byte
  5920  0017AA  0A00               	xorlw	0	; case 0
  5921  0017AC  B4D8               	btfsc	status,2,c
  5922  0017AE  D77F               	goto	l476
  5923  0017B0  0A01               	xorlw	1	; case 1
  5924  0017B2  B4D8               	btfsc	status,2,c
  5925  0017B4  D79C               	goto	l483
  5926  0017B6  0A03               	xorlw	3	; case 2
  5927  0017B8  B4D8               	btfsc	status,2,c
  5928  0017BA  D7B8               	goto	l488
  5929  0017BC  0A01               	xorlw	1	; case 3
  5930  0017BE  B4D8               	btfsc	status,2,c
  5931  0017C0  D7D4               	goto	l493
  5932  0017C2                     l4532:
  5933  0017C2  2A1D               	incf	determinePressedRow@i,f,c
  5934  0017C4  D76D               	goto	l4394
  5935  0017C6                     __end_of_determinePressedRow:
  5936                           	opt stack 0
  5937                           tblptru	equ	0xFF8
  5938                           tblptrh	equ	0xFF7
  5939                           tblptrl	equ	0xFF6
  5940                           tablat	equ	0xFF5
  5941                           prodh	equ	0xFF4
  5942                           prodl	equ	0xFF3
  5943                           intcon	equ	0xFF2
  5944                           intcon2	equ	0xFF1
  5945                           postinc0	equ	0xFEE
  5946                           wreg	equ	0xFE8
  5947                           indf1	equ	0xFE7
  5948                           postdec1	equ	0xFE5
  5949                           fsr1h	equ	0xFE2
  5950                           fsr1l	equ	0xFE1
  5951                           indf2	equ	0xFDF
  5952                           postinc2	equ	0xFDE
  5953                           postdec2	equ	0xFDD
  5954                           fsr2h	equ	0xFDA
  5955                           fsr2l	equ	0xFD9
  5956                           status	equ	0xFD8
  5957                           
  5958 ;; *************** function _turnOnAllRows *****************
  5959 ;; Defined at:
  5960 ;;		line 1254 in file "SysRiego.c"
  5961 ;; Parameters:    Size  Location     Type
  5962 ;;		None
  5963 ;; Auto vars:     Size  Location     Type
  5964 ;;		None
  5965 ;; Return value:  Size  Location     Type
  5966 ;;                  1    wreg      void 
  5967 ;; Registers used:
  5968 ;;		None
  5969 ;; Tracked objects:
  5970 ;;		On entry : 0/0
  5971 ;;		On exit  : 0/0
  5972 ;;		Unchanged: 0/0
  5973 ;; Data sizes:     COMRAM   BANK0   BANK1   BANK2   BANK3   BANK4   BANK5   BANK6   BANK7   BANK8   BANK9  BANK10  BANK1
      +1  BANK12
  5974 ;;      Params:         0       0       0       0       0       0       0       0       0       0       0       0       
      +0       0
  5975 ;;      Locals:         0       0       0       0       0       0       0       0       0       0       0       0       
      +0       0
  5976 ;;      Temps:          0       0       0       0       0       0       0       0       0       0       0       0       
      +0       0
  5977 ;;      Totals:         0       0       0       0       0       0       0       0       0       0       0       0       
      +0       0
  5978 ;;Total ram usage:        0 bytes
  5979 ;; Hardware stack levels used:    1
  5980 ;; Hardware stack levels required when called:    8
  5981 ;; This function calls:
  5982 ;;		Nothing
  5983 ;; This function is called by:
  5984 ;;		_determinePressedRow
  5985 ;; This function uses a non-reentrant model
  5986 ;;
  5987                           
  5988                           	psect	text28
  5989  00282C                     __ptext28:
  5990                           	opt stack 0
  5991  00282C                     _turnOnAllRows:
  5992                           	opt stack 17
  5993                           
  5994                           ;SysRiego.c: 1255: PORTBbits.RB0 = 1;
  5995                           
  5996                           ;incstack = 0
  5997  00282C  8081               	bsf	3969,0,c	;volatile
  5998                           
  5999                           ;SysRiego.c: 1256: PORTBbits.RB1 = 1;
  6000  00282E  8281               	bsf	3969,1,c	;volatile
  6001                           
  6002                           ;SysRiego.c: 1257: PORTBbits.RB2 = 1;
  6003  002830  8481               	bsf	3969,2,c	;volatile
  6004                           
  6005                           ;SysRiego.c: 1258: PORTBbits.RB3 = 1;
  6006  002832  8681               	bsf	3969,3,c	;volatile
  6007  002834  0012               	return		;funcret
  6008  002836                     __end_of_turnOnAllRows:
  6009                           	opt stack 0
  6010                           tblptru	equ	0xFF8
  6011                           tblptrh	equ	0xFF7
  6012                           tblptrl	equ	0xFF6
  6013                           tablat	equ	0xFF5
  6014                           prodh	equ	0xFF4
  6015                           prodl	equ	0xFF3
  6016                           intcon	equ	0xFF2
  6017                           intcon2	equ	0xFF1
  6018                           postinc0	equ	0xFEE
  6019                           wreg	equ	0xFE8
  6020                           indf1	equ	0xFE7
  6021                           postdec1	equ	0xFE5
  6022                           fsr1h	equ	0xFE2
  6023                           fsr1l	equ	0xFE1
  6024                           indf2	equ	0xFDF
  6025                           postinc2	equ	0xFDE
  6026                           postdec2	equ	0xFDD
  6027                           fsr2h	equ	0xFDA
  6028                           fsr2l	equ	0xFD9
  6029                           status	equ	0xFD8
  6030                           
  6031 ;; *************** function _delay *****************
  6032 ;; Defined at:
  6033 ;;		line 916 in file "SysRiego.c"
  6034 ;; Parameters:    Size  Location     Type
  6035 ;;		None
  6036 ;; Auto vars:     Size  Location     Type
  6037 ;;  L2REG           1   30[COMRAM] unsigned char 
  6038 ;;  L1REG           1   29[COMRAM] unsigned char 
  6039 ;; Return value:  Size  Location     Type
  6040 ;;                  1    wreg      void 
  6041 ;; Registers used:
  6042 ;;		wreg, status,2, status,0
  6043 ;; Tracked objects:
  6044 ;;		On entry : 0/0
  6045 ;;		On exit  : 0/0
  6046 ;;		Unchanged: 0/0
  6047 ;; Data sizes:     COMRAM   BANK0   BANK1   BANK2   BANK3   BANK4   BANK5   BANK6   BANK7   BANK8   BANK9  BANK10  BANK1
      +1  BANK12
  6048 ;;      Params:         0       0       0       0       0       0       0       0       0       0       0       0       
      +0       0
  6049 ;;      Locals:         2       0       0       0       0       0       0       0       0       0       0       0       
      +0       0
  6050 ;;      Temps:          1       0       0       0       0       0       0       0       0       0       0       0       
      +0       0
  6051 ;;      Totals:         3       0       0       0       0       0       0       0       0       0       0       0       
      +0       0
  6052 ;;Total ram usage:        3 bytes
  6053 ;; Hardware stack levels used:    1
  6054 ;; Hardware stack levels required when called:    8
  6055 ;; This function calls:
  6056 ;;		Nothing
  6057 ;; This function is called by:
  6058 ;;		_readInput
  6059 ;;		_resetReadInput
  6060 ;; This function uses a non-reentrant model
  6061 ;;
  6062                           
  6063                           	psect	text29
  6064  002688                     __ptext29:
  6065                           	opt stack 0
  6066  002688                     _delay:
  6067                           	opt stack 19
  6068                           
  6069                           ;SysRiego.c: 917: unsigned char L1REG = 0;
  6070                           
  6071                           ;incstack = 0
  6072  002688  0E00               	movlw	0
  6073  00268A  6E1E               	movwf	delay@L1REG,c
  6074                           
  6075                           ;SysRiego.c: 918: unsigned char L2REG;
  6076                           ;SysRiego.c: 919: while(L1REG++ < 13){
  6077  00268C  D004               	goto	l4648
  6078  00268E                     l4646:
  6079                           
  6080                           ;SysRiego.c: 920: L2REG = 0;
  6081  00268E  0E00               	movlw	0
  6082  002690  6E1F               	movwf	delay@L2REG,c
  6083  002692                     l450:
  6084  002692  3E1F               	incfsz	delay@L2REG,f,c
  6085  002694  D7FE               	goto	l450
  6086  002696                     l4648:
  6087  002696  2A1E               	incf	delay@L1REG,f,c
  6088  002698  041E               	decf	delay@L1REG,w,c
  6089  00269A  6E1D               	movwf	??_delay& (0+255),c
  6090  00269C  0E0C               	movlw	12
  6091  00269E  641D               	cpfsgt	??_delay,c
  6092  0026A0  D7F6               	goto	l4646
  6093  0026A2  0012               	return	
  6094  0026A4                     __end_of_delay:
  6095                           	opt stack 0
  6096                           tblptru	equ	0xFF8
  6097                           tblptrh	equ	0xFF7
  6098                           tblptrl	equ	0xFF6
  6099                           tablat	equ	0xFF5
  6100                           prodh	equ	0xFF4
  6101                           prodl	equ	0xFF3
  6102                           intcon	equ	0xFF2
  6103                           intcon2	equ	0xFF1
  6104                           postinc0	equ	0xFEE
  6105                           wreg	equ	0xFE8
  6106                           indf1	equ	0xFE7
  6107                           postdec1	equ	0xFE5
  6108                           fsr1h	equ	0xFE2
  6109                           fsr1l	equ	0xFE1
  6110                           indf2	equ	0xFDF
  6111                           postinc2	equ	0xFDE
  6112                           postdec2	equ	0xFDD
  6113                           fsr2h	equ	0xFDA
  6114                           fsr2l	equ	0xFD9
  6115                           status	equ	0xFD8
  6116                           
  6117 ;; *************** function _groundAllRows *****************
  6118 ;; Defined at:
  6119 ;;		line 898 in file "SysRiego.c"
  6120 ;; Parameters:    Size  Location     Type
  6121 ;;		None
  6122 ;; Auto vars:     Size  Location     Type
  6123 ;;		None
  6124 ;; Return value:  Size  Location     Type
  6125 ;;                  1    wreg      void 
  6126 ;; Registers used:
  6127 ;;		None
  6128 ;; Tracked objects:
  6129 ;;		On entry : 0/0
  6130 ;;		On exit  : 0/0
  6131 ;;		Unchanged: 0/0
  6132 ;; Data sizes:     COMRAM   BANK0   BANK1   BANK2   BANK3   BANK4   BANK5   BANK6   BANK7   BANK8   BANK9  BANK10  BANK1
      +1  BANK12
  6133 ;;      Params:         0       0       0       0       0       0       0       0       0       0       0       0       
      +0       0
  6134 ;;      Locals:         0       0       0       0       0       0       0       0       0       0       0       0       
      +0       0
  6135 ;;      Temps:          0       0       0       0       0       0       0       0       0       0       0       0       
      +0       0
  6136 ;;      Totals:         0       0       0       0       0       0       0       0       0       0       0       0       
      +0       0
  6137 ;;Total ram usage:        0 bytes
  6138 ;; Hardware stack levels used:    1
  6139 ;; Hardware stack levels required when called:    8
  6140 ;; This function calls:
  6141 ;;		Nothing
  6142 ;; This function is called by:
  6143 ;;		_getInput
  6144 ;; This function uses a non-reentrant model
  6145 ;;
  6146                           
  6147                           	psect	text30
  6148  002836                     __ptext30:
  6149                           	opt stack 0
  6150  002836                     _groundAllRows:
  6151                           	opt stack 20
  6152                           
  6153                           ;SysRiego.c: 899: PORTBbits.RB0 = 0;
  6154                           
  6155                           ;incstack = 0
  6156  002836  9081               	bcf	3969,0,c	;volatile
  6157                           
  6158                           ;SysRiego.c: 900: PORTBbits.RB1 = 0;
  6159  002838  9281               	bcf	3969,1,c	;volatile
  6160                           
  6161                           ;SysRiego.c: 901: PORTBbits.RB2 = 0;
  6162  00283A  9481               	bcf	3969,2,c	;volatile
  6163                           
  6164                           ;SysRiego.c: 902: PORTBbits.RB3 = 0;
  6165  00283C  9681               	bcf	3969,3,c	;volatile
  6166  00283E  0012               	return		;funcret
  6167  002840                     __end_of_groundAllRows:
  6168                           	opt stack 0
  6169                           tblptru	equ	0xFF8
  6170                           tblptrh	equ	0xFF7
  6171                           tblptrl	equ	0xFF6
  6172                           tablat	equ	0xFF5
  6173                           prodh	equ	0xFF4
  6174                           prodl	equ	0xFF3
  6175                           intcon	equ	0xFF2
  6176                           intcon2	equ	0xFF1
  6177                           postinc0	equ	0xFEE
  6178                           wreg	equ	0xFE8
  6179                           indf1	equ	0xFE7
  6180                           postdec1	equ	0xFE5
  6181                           fsr1h	equ	0xFE2
  6182                           fsr1l	equ	0xFE1
  6183                           indf2	equ	0xFDF
  6184                           postinc2	equ	0xFDE
  6185                           postdec2	equ	0xFDD
  6186                           fsr2h	equ	0xFDA
  6187                           fsr2l	equ	0xFD9
  6188                           status	equ	0xFD8
  6189                           
  6190 ;; *************** function _enableIntRBIE *****************
  6191 ;; Defined at:
  6192 ;;		line 1306 in file "SysRiego.c"
  6193 ;; Parameters:    Size  Location     Type
  6194 ;;		None
  6195 ;; Auto vars:     Size  Location     Type
  6196 ;;		None
  6197 ;; Return value:  Size  Location     Type
  6198 ;;                  1    wreg      void 
  6199 ;; Registers used:
  6200 ;;		wreg, status,2
  6201 ;; Tracked objects:
  6202 ;;		On entry : 0/0
  6203 ;;		On exit  : 0/0
  6204 ;;		Unchanged: 0/0
  6205 ;; Data sizes:     COMRAM   BANK0   BANK1   BANK2   BANK3   BANK4   BANK5   BANK6   BANK7   BANK8   BANK9  BANK10  BANK1
      +1  BANK12
  6206 ;;      Params:         0       0       0       0       0       0       0       0       0       0       0       0       
      +0       0
  6207 ;;      Locals:         0       0       0       0       0       0       0       0       0       0       0       0       
      +0       0
  6208 ;;      Temps:          0       0       0       0       0       0       0       0       0       0       0       0       
      +0       0
  6209 ;;      Totals:         0       0       0       0       0       0       0       0       0       0       0       0       
      +0       0
  6210 ;;Total ram usage:        0 bytes
  6211 ;; Hardware stack levels used:    1
  6212 ;; Hardware stack levels required when called:    8
  6213 ;; This function calls:
  6214 ;;		Nothing
  6215 ;; This function is called by:
  6216 ;;		_automaticConfiguration
  6217 ;;		_timerConfiguration
  6218 ;;		_manualConfiguration
  6219 ;; This function uses a non-reentrant model
  6220 ;;
  6221                           
  6222                           	psect	text31
  6223  002840                     __ptext31:
  6224                           	opt stack 0
  6225  002840                     _enableIntRBIE:
  6226                           	opt stack 21
  6227                           
  6228                           ;SysRiego.c: 1308: LATB = 0X00;
  6229                           
  6230                           ;incstack = 0
  6231  002840  0E00               	movlw	0
  6232  002842  6E8A               	movwf	3978,c	;volatile
  6233                           
  6234                           ;SysRiego.c: 1309: INTCONbits.RBIF = 0;
  6235  002844  90F2               	bcf	intcon,0,c	;volatile
  6236                           
  6237                           ;SysRiego.c: 1310: INTCONbits.RBIE = 1;
  6238  002846  86F2               	bsf	intcon,3,c	;volatile
  6239  002848  0012               	return		;funcret
  6240  00284A                     __end_of_enableIntRBIE:
  6241                           	opt stack 0
  6242                           tblptru	equ	0xFF8
  6243                           tblptrh	equ	0xFF7
  6244                           tblptrl	equ	0xFF6
  6245                           tablat	equ	0xFF5
  6246                           prodh	equ	0xFF4
  6247                           prodl	equ	0xFF3
  6248                           intcon	equ	0xFF2
  6249                           intcon2	equ	0xFF1
  6250                           postinc0	equ	0xFEE
  6251                           wreg	equ	0xFE8
  6252                           indf1	equ	0xFE7
  6253                           postdec1	equ	0xFE5
  6254                           fsr1h	equ	0xFE2
  6255                           fsr1l	equ	0xFE1
  6256                           indf2	equ	0xFDF
  6257                           postinc2	equ	0xFDE
  6258                           postdec2	equ	0xFDD
  6259                           fsr2h	equ	0xFDA
  6260                           fsr2l	equ	0xFD9
  6261                           status	equ	0xFD8
  6262                           
  6263 ;; *************** function _displayLineOnLCD *****************
  6264 ;; Defined at:
  6265 ;;		line 477 in file "SysRiego.c"
  6266 ;; Parameters:    Size  Location     Type
  6267 ;;  array           2   17[BANK0 ] PTR unsigned char 
  6268 ;;		 -> dayName(4), STR_3(7), STR_2(6), STR_1(6), 
  6269 ;;		 -> manualMessage(12), counterMIN(3), counterHOUR(3), timerMessage(11), 
  6270 ;;		 -> automaticMessage(15), manualInactiveMessage(9), manualActiveMessage(7), configAutoMessage(11), 
  6271 ;;  sizeOfArray     1   19[BANK0 ] unsigned char 
  6272 ;; Auto vars:     Size  Location     Type
  6273 ;;  i               1   30[COMRAM] unsigned char 
  6274 ;; Return value:  Size  Location     Type
  6275 ;;                  1    wreg      void 
  6276 ;; Registers used:
  6277 ;;		wreg, fsr0l, fsr0h, status,2, status,0, tblptrl, tblptrh, tblptru, prodl, prodh, cstack
  6278 ;; Tracked objects:
  6279 ;;		On entry : 0/0
  6280 ;;		On exit  : 0/0
  6281 ;;		Unchanged: 0/0
  6282 ;; Data sizes:     COMRAM   BANK0   BANK1   BANK2   BANK3   BANK4   BANK5   BANK6   BANK7   BANK8   BANK9  BANK10  BANK1
      +1  BANK12
  6283 ;;      Params:         0       3       0       0       0       0       0       0       0       0       0       0       
      +0       0
  6284 ;;      Locals:         1       0       0       0       0       0       0       0       0       0       0       0       
      +0       0
  6285 ;;      Temps:          0       7       0       0       0       0       0       0       0       0       0       0       
      +0       0
  6286 ;;      Totals:         1      10       0       0       0       0       0       0       0       0       0       0       
      +0       0
  6287 ;;Total ram usage:       11 bytes
  6288 ;; Hardware stack levels used:    1
  6289 ;; Hardware stack levels required when called:   10
  6290 ;; This function calls:
  6291 ;;		_displayCharOnLCD
  6292 ;; This function is called by:
  6293 ;;		_automaticConfiguration
  6294 ;;		_manualConfiguration
  6295 ;;		_workingAutomatic
  6296 ;;		_workingTimer
  6297 ;;		_workingManual
  6298 ;;		_displayTime
  6299 ;; This function uses a non-reentrant model
  6300 ;;
  6301                           
  6302                           	psect	text32
  6303  0020A0                     __ptext32:
  6304                           	opt stack 0
  6305  0020A0                     _displayLineOnLCD:
  6306                           	opt stack 19
  6307                           
  6308                           ;SysRiego.c: 478: unsigned char i;
  6309                           ;SysRiego.c: 479: for(i=0; i<sizeOfArray-1; i++){
  6310                           
  6311                           ;incstack = 0
  6312  0020A0  0E00               	movlw	0
  6313  0020A2  6E1F               	movwf	displayLineOnLCD@i,c
  6314  0020A4  D01F               	goto	l4810
  6315  0020A6                     l4806:
  6316                           
  6317                           ;SysRiego.c: 480: displayCharOnLCD(array[i]);
  6318  0020A6  501F               	movf	displayLineOnLCD@i,w,c
  6319  0020A8  0D01               	mullw	1
  6320  0020AA  C0DF  F0E2         	movff	displayLineOnLCD@array,??_displayLineOnLCD
  6321  0020AE  C0E0  F0E3         	movff	displayLineOnLCD@array+1,??_displayLineOnLCD+1
  6322  0020B2  50F3               	movf	prodl,w,c
  6323  0020B4  0100               	movlb	0	; () banked
  6324  0020B6  27E2               	addwf	??_displayLineOnLCD& (0+255),f,b
  6325  0020B8  50F4               	movf	prodh,w,c
  6326  0020BA  0100               	movlb	0	; () banked
  6327  0020BC  23E3               	addwfc	(??_displayLineOnLCD+1)& (0+255),f,b
  6328  0020BE  C0E2  FFF6         	movff	??_displayLineOnLCD,tblptrl
  6329  0020C2  C0E3  FFF7         	movff	??_displayLineOnLCD+1,tblptrh
  6330  0020C6  6AF8               	clrf	tblptru,c
  6331  0020C8  0E0C               	movlw	(high __ramtop+-1)
  6332  0020CA  64F7               	cpfsgt	tblptrh,c
  6333  0020CC  D003               	bra	u4607
  6334  0020CE  0008               	tblrd		*
  6335  0020D0  50F5               	movf	tablat,w,c
  6336  0020D2  D005               	bra	u4600
  6337  0020D4                     u4607:
  6338  0020D4  CFF6 FFE9          	movff	tblptrl,fsr0l
  6339  0020D8  CFF7 FFEA          	movff	tblptrh,fsr0h
  6340  0020DC  50EF               	movf	indf0,w,c
  6341  0020DE                     u4600:
  6342  0020DE  ECD0  F013         	call	_displayCharOnLCD
  6343  0020E2  2A1F               	incf	displayLineOnLCD@i,f,c
  6344  0020E4                     l4810:
  6345  0020E4  0EFF               	movlw	255
  6346  0020E6  0100               	movlb	0	; () banked
  6347  0020E8  6FE2               	movwf	??_displayLineOnLCD& (0+255),b
  6348  0020EA  0EFF               	movlw	255
  6349  0020EC  0100               	movlb	0	; () banked
  6350  0020EE  6FE3               	movwf	(??_displayLineOnLCD+1)& (0+255),b
  6351  0020F0  0100               	movlb	0	; () banked
  6352  0020F2  51E1               	movf	displayLineOnLCD@sizeOfArray& (0+255),w,b
  6353  0020F4  0100               	movlb	0	; () banked
  6354  0020F6  6FE4               	movwf	(??_displayLineOnLCD+2)& (0+255),b
  6355  0020F8  6BE5               	clrf	(??_displayLineOnLCD+3)& (0+255),b
  6356  0020FA  0100               	movlb	0	; () banked
  6357  0020FC  51E2               	movf	??_displayLineOnLCD& (0+255),w,b
  6358  0020FE  0100               	movlb	0	; () banked
  6359  002100  27E4               	addwf	(??_displayLineOnLCD+2)& (0+255),f,b
  6360  002102  0100               	movlb	0	; () banked
  6361  002104  51E3               	movf	(??_displayLineOnLCD+1)& (0+255),w,b
  6362  002106  0100               	movlb	0	; () banked
  6363  002108  23E5               	addwfc	(??_displayLineOnLCD+3)& (0+255),f,b
  6364  00210A  501F               	movf	displayLineOnLCD@i,w,c
  6365  00210C  0100               	movlb	0	; () banked
  6366  00210E  6FE6               	movwf	(??_displayLineOnLCD+4)& (0+255),b
  6367  002110  6BE7               	clrf	(??_displayLineOnLCD+5)& (0+255),b
  6368  002112  0100               	movlb	0	; () banked
  6369  002114  51E4               	movf	(??_displayLineOnLCD+2)& (0+255),w,b
  6370  002116  0100               	movlb	0	; () banked
  6371  002118  5DE6               	subwf	(??_displayLineOnLCD+4)& (0+255),w,b
  6372  00211A  0100               	movlb	0	; () banked
  6373  00211C  51E7               	movf	(??_displayLineOnLCD+5)& (0+255),w,b
  6374  00211E  0A80               	xorlw	128
  6375  002120  0100               	movlb	0	; () banked
  6376  002122  6FE8               	movwf	(??_displayLineOnLCD+6)& (0+255),b
  6377  002124  0100               	movlb	0	; () banked
  6378  002126  51E5               	movf	(??_displayLineOnLCD+3)& (0+255),w,b
  6379  002128  0A80               	xorlw	128
  6380  00212A  0100               	movlb	0	; () banked
  6381  00212C  59E8               	subwfb	(??_displayLineOnLCD+6)& (0+255),w,b
  6382  00212E  B0D8               	btfsc	status,0,c
  6383  002130  0012               	return	
  6384  002132  D7B9               	goto	l4806
  6385  002134                     __end_of_displayLineOnLCD:
  6386                           	opt stack 0
  6387                           tblptru	equ	0xFF8
  6388                           tblptrh	equ	0xFF7
  6389                           tblptrl	equ	0xFF6
  6390                           tablat	equ	0xFF5
  6391                           prodh	equ	0xFF4
  6392                           prodl	equ	0xFF3
  6393                           intcon	equ	0xFF2
  6394                           intcon2	equ	0xFF1
  6395                           indf0	equ	0xFEF
  6396                           postinc0	equ	0xFEE
  6397                           fsr0h	equ	0xFEA
  6398                           fsr0l	equ	0xFE9
  6399                           wreg	equ	0xFE8
  6400                           indf1	equ	0xFE7
  6401                           postdec1	equ	0xFE5
  6402                           fsr1h	equ	0xFE2
  6403                           fsr1l	equ	0xFE1
  6404                           indf2	equ	0xFDF
  6405                           postinc2	equ	0xFDE
  6406                           postdec2	equ	0xFDD
  6407                           fsr2h	equ	0xFDA
  6408                           fsr2l	equ	0xFD9
  6409                           status	equ	0xFD8
  6410                           
  6411 ;; *************** function _displayCharOnLCD *****************
  6412 ;; Defined at:
  6413 ;;		line 468 in file "SysRiego.c"
  6414 ;; Parameters:    Size  Location     Type
  6415 ;;  character       1    wreg     unsigned char 
  6416 ;; Auto vars:     Size  Location     Type
  6417 ;;  character       1   29[COMRAM] unsigned char 
  6418 ;; Return value:  Size  Location     Type
  6419 ;;                  1    wreg      void 
  6420 ;; Registers used:
  6421 ;;		wreg, status,2, status,0, cstack
  6422 ;; Tracked objects:
  6423 ;;		On entry : 0/0
  6424 ;;		On exit  : 0/0
  6425 ;;		Unchanged: 0/0
  6426 ;; Data sizes:     COMRAM   BANK0   BANK1   BANK2   BANK3   BANK4   BANK5   BANK6   BANK7   BANK8   BANK9  BANK10  BANK1
      +1  BANK12
  6427 ;;      Params:         0       0       0       0       0       0       0       0       0       0       0       0       
      +0       0
  6428 ;;      Locals:         1       0       0       0       0       0       0       0       0       0       0       0       
      +0       0
  6429 ;;      Temps:          0       0       0       0       0       0       0       0       0       0       0       0       
      +0       0
  6430 ;;      Totals:         1       0       0       0       0       0       0       0       0       0       0       0       
      +0       0
  6431 ;;Total ram usage:        1 bytes
  6432 ;; Hardware stack levels used:    1
  6433 ;; Hardware stack levels required when called:    9
  6434 ;; This function calls:
  6435 ;;		_shortDelay
  6436 ;; This function is called by:
  6437 ;;		_displayLineOnLCD
  6438 ;;		_automaticConfiguration
  6439 ;;		_displayTime
  6440 ;; This function uses a non-reentrant model
  6441 ;;
  6442                           
  6443                           	psect	text33
  6444  0027A0                     __ptext33:
  6445                           	opt stack 0
  6446  0027A0                     _displayCharOnLCD:
  6447                           	opt stack 19
  6448                           
  6449                           ; BSR set to: 0
  6450                           ;incstack = 0
  6451                           ;displayCharOnLCD@character stored from wreg
  6452  0027A0  6E1E               	movwf	displayCharOnLCD@character,c
  6453                           
  6454                           ;SysRiego.c: 469: PORTD = character;
  6455  0027A2  C01E  FF83         	movff	displayCharOnLCD@character,3971	;volatile
  6456                           
  6457                           ;SysRiego.c: 470: PORTCbits.RC0 = 1;
  6458  0027A6  8082               	bsf	3970,0,c	;volatile
  6459                           
  6460                           ;SysRiego.c: 471: PORTCbits.RC1 = 0;
  6461  0027A8  9282               	bcf	3970,1,c	;volatile
  6462                           
  6463                           ;SysRiego.c: 472: PORTCbits.RC2 = 1;
  6464  0027AA  8482               	bsf	3970,2,c	;volatile
  6465                           
  6466                           ;SysRiego.c: 473: shortDelay();
  6467  0027AC  EC08  F014         	call	_shortDelay	;wreg free
  6468                           
  6469                           ;SysRiego.c: 474: PORTCbits.RC2 = 0;
  6470  0027B0  9482               	bcf	3970,2,c	;volatile
  6471  0027B2  0012               	return		;funcret
  6472  0027B4                     __end_of_displayCharOnLCD:
  6473                           	opt stack 0
  6474                           tblptru	equ	0xFF8
  6475                           tblptrh	equ	0xFF7
  6476                           tblptrl	equ	0xFF6
  6477                           tablat	equ	0xFF5
  6478                           prodh	equ	0xFF4
  6479                           prodl	equ	0xFF3
  6480                           intcon	equ	0xFF2
  6481                           intcon2	equ	0xFF1
  6482                           indf0	equ	0xFEF
  6483                           postinc0	equ	0xFEE
  6484                           fsr0h	equ	0xFEA
  6485                           fsr0l	equ	0xFE9
  6486                           wreg	equ	0xFE8
  6487                           indf1	equ	0xFE7
  6488                           postdec1	equ	0xFE5
  6489                           fsr1h	equ	0xFE2
  6490                           fsr1l	equ	0xFE1
  6491                           indf2	equ	0xFDF
  6492                           postinc2	equ	0xFDE
  6493                           postdec2	equ	0xFDD
  6494                           fsr2h	equ	0xFDA
  6495                           fsr2l	equ	0xFD9
  6496                           status	equ	0xFD8
  6497                           
  6498 ;; *************** function _disableIntRBIE *****************
  6499 ;; Defined at:
  6500 ;;		line 1298 in file "SysRiego.c"
  6501 ;; Parameters:    Size  Location     Type
  6502 ;;		None
  6503 ;; Auto vars:     Size  Location     Type
  6504 ;;		None
  6505 ;; Return value:  Size  Location     Type
  6506 ;;                  1    wreg      void 
  6507 ;; Registers used:
  6508 ;;		wreg, status,2
  6509 ;; Tracked objects:
  6510 ;;		On entry : 0/0
  6511 ;;		On exit  : 0/0
  6512 ;;		Unchanged: 0/0
  6513 ;; Data sizes:     COMRAM   BANK0   BANK1   BANK2   BANK3   BANK4   BANK5   BANK6   BANK7   BANK8   BANK9  BANK10  BANK1
      +1  BANK12
  6514 ;;      Params:         0       0       0       0       0       0       0       0       0       0       0       0       
      +0       0
  6515 ;;      Locals:         0       0       0       0       0       0       0       0       0       0       0       0       
      +0       0
  6516 ;;      Temps:          0       0       0       0       0       0       0       0       0       0       0       0       
      +0       0
  6517 ;;      Totals:         0       0       0       0       0       0       0       0       0       0       0       0       
      +0       0
  6518 ;;Total ram usage:        0 bytes
  6519 ;; Hardware stack levels used:    1
  6520 ;; Hardware stack levels required when called:    8
  6521 ;; This function calls:
  6522 ;;		Nothing
  6523 ;; This function is called by:
  6524 ;;		_automaticConfiguration
  6525 ;;		_timerConfiguration
  6526 ;;		_manualConfiguration
  6527 ;; This function uses a non-reentrant model
  6528 ;;
  6529                           
  6530                           	psect	text34
  6531  00284A                     __ptext34:
  6532                           	opt stack 0
  6533  00284A                     _disableIntRBIE:
  6534                           	opt stack 21
  6535                           
  6536                           ;SysRiego.c: 1300: LATB = 0X00;
  6537                           
  6538                           ;incstack = 0
  6539  00284A  0E00               	movlw	0
  6540  00284C  6E8A               	movwf	3978,c	;volatile
  6541                           
  6542                           ;SysRiego.c: 1301: INTCONbits.RBIF = 0;
  6543  00284E  90F2               	bcf	intcon,0,c	;volatile
  6544                           
  6545                           ;SysRiego.c: 1302: INTCONbits.RBIE = 0;
  6546  002850  96F2               	bcf	intcon,3,c	;volatile
  6547  002852  0012               	return		;funcret
  6548  002854                     __end_of_disableIntRBIE:
  6549                           	opt stack 0
  6550                           tblptru	equ	0xFF8
  6551                           tblptrh	equ	0xFF7
  6552                           tblptrl	equ	0xFF6
  6553                           tablat	equ	0xFF5
  6554                           prodh	equ	0xFF4
  6555                           prodl	equ	0xFF3
  6556                           intcon	equ	0xFF2
  6557                           intcon2	equ	0xFF1
  6558                           indf0	equ	0xFEF
  6559                           postinc0	equ	0xFEE
  6560                           fsr0h	equ	0xFEA
  6561                           fsr0l	equ	0xFE9
  6562                           wreg	equ	0xFE8
  6563                           indf1	equ	0xFE7
  6564                           postdec1	equ	0xFE5
  6565                           fsr1h	equ	0xFE2
  6566                           fsr1l	equ	0xFE1
  6567                           indf2	equ	0xFDF
  6568                           postinc2	equ	0xFDE
  6569                           postdec2	equ	0xFDD
  6570                           fsr2h	equ	0xFDA
  6571                           fsr2l	equ	0xFD9
  6572                           status	equ	0xFD8
  6573                           
  6574 ;; *************** function _convertCharsToInt *****************
  6575 ;; Defined at:
  6576 ;;		line 1489 in file "SysRiego.c"
  6577 ;; Parameters:    Size  Location     Type
  6578 ;;  humidityValu    2   28[COMRAM] PTR unsigned char 
  6579 ;;		 -> NULL(0), manualZn3Val(1), humidityZn3Val(3), manualZn2Val(1), 
  6580 ;;		 -> humidityZn2Val(3), manualZn1Val(1), humidityZn1Val(3), 
  6581 ;; Auto vars:     Size  Location     Type
  6582 ;;  dozens          1   18[BANK0 ] unsigned char 
  6583 ;;  units           1   17[BANK0 ] unsigned char 
  6584 ;; Return value:  Size  Location     Type
  6585 ;;                  1    wreg      unsigned char 
  6586 ;; Registers used:
  6587 ;;		wreg, fsr2l, fsr2h, status,2, status,0, prodl, prodh
  6588 ;; Tracked objects:
  6589 ;;		On entry : 0/0
  6590 ;;		On exit  : 0/0
  6591 ;;		Unchanged: 0/0
  6592 ;; Data sizes:     COMRAM   BANK0   BANK1   BANK2   BANK3   BANK4   BANK5   BANK6   BANK7   BANK8   BANK9  BANK10  BANK1
      +1  BANK12
  6593 ;;      Params:         2       0       0       0       0       0       0       0       0       0       0       0       
      +0       0
  6594 ;;      Locals:         0       2       0       0       0       0       0       0       0       0       0       0       
      +0       0
  6595 ;;      Temps:          0       0       0       0       0       0       0       0       0       0       0       0       
      +0       0
  6596 ;;      Totals:         2       2       0       0       0       0       0       0       0       0       0       0       
      +0       0
  6597 ;;Total ram usage:        4 bytes
  6598 ;; Hardware stack levels used:    1
  6599 ;; Hardware stack levels required when called:    8
  6600 ;; This function calls:
  6601 ;;		Nothing
  6602 ;; This function is called by:
  6603 ;;		_automaticConfiguration
  6604 ;; This function uses a non-reentrant model
  6605 ;;
  6606                           
  6607                           	psect	text35
  6608  002438                     __ptext35:
  6609                           	opt stack 0
  6610  002438                     _convertCharsToInt:
  6611                           	opt stack 21
  6612                           
  6613                           ;SysRiego.c: 1491: unsigned char units;
  6614                           ;SysRiego.c: 1492: unsigned char dozens;
  6615                           ;SysRiego.c: 1494: units = humidityValue[1] - 48;
  6616                           
  6617                           ;incstack = 0
  6618  002438  EE20 F001          	lfsr	2,1
  6619  00243C  501D               	movf	convertCharsToInt@humidityValue,w,c
  6620  00243E  26D9               	addwf	fsr2l,f,c
  6621  002440  501E               	movf	convertCharsToInt@humidityValue+1,w,c
  6622  002442  22DA               	addwfc	fsr2h,f,c
  6623  002444  50DF               	movf	indf2,w,c
  6624  002446  0FD0               	addlw	208
  6625  002448  0100               	movlb	0	; () banked
  6626  00244A  6FDF               	movwf	convertCharsToInt@units& (0+255),b
  6627                           
  6628                           ; BSR set to: 0
  6629                           ;SysRiego.c: 1495: dozens = (humidityValue[0] - 48)*10;
  6630  00244C  C01D  FFD9         	movff	convertCharsToInt@humidityValue,fsr2l
  6631  002450  C01E  FFDA         	movff	convertCharsToInt@humidityValue+1,fsr2h
  6632  002454  50DF               	movf	indf2,w,c
  6633  002456  0FD0               	addlw	208
  6634  002458  0D0A               	mullw	10
  6635  00245A  CFF3 F0E0          	movff	prodl,convertCharsToInt@dozens
  6636                           
  6637                           ; BSR set to: 0
  6638                           ;SysRiego.c: 1497: return (units + dozens);
  6639  00245E  0100               	movlb	0	; () banked
  6640  002460  51DF               	movf	convertCharsToInt@units& (0+255),w,b
  6641  002462  0100               	movlb	0	; () banked
  6642  002464  25E0               	addwf	convertCharsToInt@dozens& (0+255),w,b
  6643  002466  0012               	return	
  6644  002468                     __end_of_convertCharsToInt:
  6645                           	opt stack 0
  6646                           tblptru	equ	0xFF8
  6647                           tblptrh	equ	0xFF7
  6648                           tblptrl	equ	0xFF6
  6649                           tablat	equ	0xFF5
  6650                           prodh	equ	0xFF4
  6651                           prodl	equ	0xFF3
  6652                           intcon	equ	0xFF2
  6653                           intcon2	equ	0xFF1
  6654                           indf0	equ	0xFEF
  6655                           postinc0	equ	0xFEE
  6656                           fsr0h	equ	0xFEA
  6657                           fsr0l	equ	0xFE9
  6658                           wreg	equ	0xFE8
  6659                           indf1	equ	0xFE7
  6660                           postdec1	equ	0xFE5
  6661                           fsr1h	equ	0xFE2
  6662                           fsr1l	equ	0xFE1
  6663                           indf2	equ	0xFDF
  6664                           postinc2	equ	0xFDE
  6665                           postdec2	equ	0xFDD
  6666                           fsr2h	equ	0xFDA
  6667                           fsr2l	equ	0xFD9
  6668                           status	equ	0xFD8
  6669                           
  6670 ;; *************** function _clearDisplay *****************
  6671 ;; Defined at:
  6672 ;;		line 484 in file "SysRiego.c"
  6673 ;; Parameters:    Size  Location     Type
  6674 ;;		None
  6675 ;; Auto vars:     Size  Location     Type
  6676 ;;		None
  6677 ;; Return value:  Size  Location     Type
  6678 ;;                  1    wreg      void 
  6679 ;; Registers used:
  6680 ;;		wreg, status,2, status,0, cstack
  6681 ;; Tracked objects:
  6682 ;;		On entry : 0/0
  6683 ;;		On exit  : 0/0
  6684 ;;		Unchanged: 0/0
  6685 ;; Data sizes:     COMRAM   BANK0   BANK1   BANK2   BANK3   BANK4   BANK5   BANK6   BANK7   BANK8   BANK9  BANK10  BANK1
      +1  BANK12
  6686 ;;      Params:         0       0       0       0       0       0       0       0       0       0       0       0       
      +0       0
  6687 ;;      Locals:         0       0       0       0       0       0       0       0       0       0       0       0       
      +0       0
  6688 ;;      Temps:          0       0       0       0       0       0       0       0       0       0       0       0       
      +0       0
  6689 ;;      Totals:         0       0       0       0       0       0       0       0       0       0       0       0       
      +0       0
  6690 ;;Total ram usage:        0 bytes
  6691 ;; Hardware stack levels used:    1
  6692 ;; Hardware stack levels required when called:   10
  6693 ;; This function calls:
  6694 ;;		_command
  6695 ;;		_isReady
  6696 ;;		_shortDelay
  6697 ;; This function is called by:
  6698 ;;		_automaticConfiguration
  6699 ;;		_timerConfiguration
  6700 ;;		_manualConfiguration
  6701 ;;		_workingAutomatic
  6702 ;;		_workingTimer
  6703 ;;		_workingManual
  6704 ;; This function uses a non-reentrant model
  6705 ;;
  6706                           
  6707                           	psect	text36
  6708  0027F0                     __ptext36:
  6709                           	opt stack 0
  6710  0027F0                     _clearDisplay:
  6711                           	opt stack 19
  6712                           
  6713                           ;SysRiego.c: 485: command(0x01);
  6714                           
  6715                           ; BSR set to: 0
  6716                           ;incstack = 0
  6717  0027F0  0E01               	movlw	1
  6718  0027F2  ECDA  F013         	call	_command
  6719                           
  6720                           ;SysRiego.c: 486: shortDelay();
  6721  0027F6  EC08  F014         	call	_shortDelay	;wreg free
  6722                           
  6723                           ;SysRiego.c: 487: isReady();
  6724  0027FA  EC52  F013         	call	_isReady	;wreg free
  6725  0027FE  0012               	return		;funcret
  6726  002800                     __end_of_clearDisplay:
  6727                           	opt stack 0
  6728                           tblptru	equ	0xFF8
  6729                           tblptrh	equ	0xFF7
  6730                           tblptrl	equ	0xFF6
  6731                           tablat	equ	0xFF5
  6732                           prodh	equ	0xFF4
  6733                           prodl	equ	0xFF3
  6734                           intcon	equ	0xFF2
  6735                           intcon2	equ	0xFF1
  6736                           indf0	equ	0xFEF
  6737                           postinc0	equ	0xFEE
  6738                           fsr0h	equ	0xFEA
  6739                           fsr0l	equ	0xFE9
  6740                           wreg	equ	0xFE8
  6741                           indf1	equ	0xFE7
  6742                           postdec1	equ	0xFE5
  6743                           fsr1h	equ	0xFE2
  6744                           fsr1l	equ	0xFE1
  6745                           indf2	equ	0xFDF
  6746                           postinc2	equ	0xFDE
  6747                           postdec2	equ	0xFDD
  6748                           fsr2h	equ	0xFDA
  6749                           fsr2l	equ	0xFD9
  6750                           status	equ	0xFD8
  6751                           
  6752 ;; *************** function _LCDSetup *****************
  6753 ;; Defined at:
  6754 ;;		line 414 in file "SysRiego.c"
  6755 ;; Parameters:    Size  Location     Type
  6756 ;;		None
  6757 ;; Auto vars:     Size  Location     Type
  6758 ;;		None
  6759 ;; Return value:  Size  Location     Type
  6760 ;;                  1    wreg      void 
  6761 ;; Registers used:
  6762 ;;		wreg, status,2, status,0, cstack
  6763 ;; Tracked objects:
  6764 ;;		On entry : 0/0
  6765 ;;		On exit  : 0/0
  6766 ;;		Unchanged: 0/0
  6767 ;; Data sizes:     COMRAM   BANK0   BANK1   BANK2   BANK3   BANK4   BANK5   BANK6   BANK7   BANK8   BANK9  BANK10  BANK1
      +1  BANK12
  6768 ;;      Params:         0       0       0       0       0       0       0       0       0       0       0       0       
      +0       0
  6769 ;;      Locals:         0       0       0       0       0       0       0       0       0       0       0       0       
      +0       0
  6770 ;;      Temps:          0       0       0       0       0       0       0       0       0       0       0       0       
      +0       0
  6771 ;;      Totals:         0       0       0       0       0       0       0       0       0       0       0       0       
      +0       0
  6772 ;;Total ram usage:        0 bytes
  6773 ;; Hardware stack levels used:    1
  6774 ;; Hardware stack levels required when called:   10
  6775 ;; This function calls:
  6776 ;;		_command
  6777 ;;		_isReady
  6778 ;;		_longDelay
  6779 ;; This function is called by:
  6780 ;;		_main
  6781 ;; This function uses a non-reentrant model
  6782 ;;
  6783                           
  6784                           	psect	text37
  6785  0025C0                     __ptext37:
  6786                           	opt stack 0
  6787  0025C0                     _LCDSetup:
  6788                           	opt stack 20
  6789                           
  6790                           ;SysRiego.c: 415: PORTCbits.RC2 = 0;
  6791                           
  6792                           ;incstack = 0
  6793  0025C0  9482               	bcf	3970,2,c	;volatile
  6794                           
  6795                           ;SysRiego.c: 416: longDelay();
  6796  0025C2  EC63  F012         	call	_longDelay	;wreg free
  6797                           
  6798                           ;SysRiego.c: 417: command(0x38);
  6799  0025C6  0E38               	movlw	56
  6800  0025C8  ECDA  F013         	call	_command
  6801                           
  6802                           ;SysRiego.c: 418: longDelay();
  6803  0025CC  EC63  F012         	call	_longDelay	;wreg free
  6804                           
  6805                           ;SysRiego.c: 419: command(0x0F);
  6806  0025D0  0E0F               	movlw	15
  6807  0025D2  ECDA  F013         	call	_command
  6808                           
  6809                           ;SysRiego.c: 420: isReady();
  6810  0025D6  EC52  F013         	call	_isReady	;wreg free
  6811                           
  6812                           ;SysRiego.c: 421: command(0x01);
  6813  0025DA  0E01               	movlw	1
  6814  0025DC  ECDA  F013         	call	_command
  6815                           
  6816                           ;SysRiego.c: 422: isReady();
  6817  0025E0  EC52  F013         	call	_isReady	;wreg free
  6818  0025E4  0012               	return		;funcret
  6819  0025E6                     __end_of_LCDSetup:
  6820                           	opt stack 0
  6821                           tblptru	equ	0xFF8
  6822                           tblptrh	equ	0xFF7
  6823                           tblptrl	equ	0xFF6
  6824                           tablat	equ	0xFF5
  6825                           prodh	equ	0xFF4
  6826                           prodl	equ	0xFF3
  6827                           intcon	equ	0xFF2
  6828                           intcon2	equ	0xFF1
  6829                           indf0	equ	0xFEF
  6830                           postinc0	equ	0xFEE
  6831                           fsr0h	equ	0xFEA
  6832                           fsr0l	equ	0xFE9
  6833                           wreg	equ	0xFE8
  6834                           indf1	equ	0xFE7
  6835                           postdec1	equ	0xFE5
  6836                           fsr1h	equ	0xFE2
  6837                           fsr1l	equ	0xFE1
  6838                           indf2	equ	0xFDF
  6839                           postinc2	equ	0xFDE
  6840                           postdec2	equ	0xFDD
  6841                           fsr2h	equ	0xFDA
  6842                           fsr2l	equ	0xFD9
  6843                           status	equ	0xFD8
  6844                           
  6845 ;; *************** function _longDelay *****************
  6846 ;; Defined at:
  6847 ;;		line 432 in file "SysRiego.c"
  6848 ;; Parameters:    Size  Location     Type
  6849 ;;		None
  6850 ;; Auto vars:     Size  Location     Type
  6851 ;;  L3REG           1   30[COMRAM] unsigned char 
  6852 ;;  L2REG           1   29[COMRAM] unsigned char 
  6853 ;;  L1REG           1   28[COMRAM] unsigned char 
  6854 ;; Return value:  Size  Location     Type
  6855 ;;                  1    wreg      void 
  6856 ;; Registers used:
  6857 ;;		wreg, status,2, status,0
  6858 ;; Tracked objects:
  6859 ;;		On entry : 0/0
  6860 ;;		On exit  : 0/0
  6861 ;;		Unchanged: 0/0
  6862 ;; Data sizes:     COMRAM   BANK0   BANK1   BANK2   BANK3   BANK4   BANK5   BANK6   BANK7   BANK8   BANK9  BANK10  BANK1
      +1  BANK12
  6863 ;;      Params:         0       0       0       0       0       0       0       0       0       0       0       0       
      +0       0
  6864 ;;      Locals:         3       0       0       0       0       0       0       0       0       0       0       0       
      +0       0
  6865 ;;      Temps:          0       0       0       0       0       0       0       0       0       0       0       0       
      +0       0
  6866 ;;      Totals:         3       0       0       0       0       0       0       0       0       0       0       0       
      +0       0
  6867 ;;Total ram usage:        3 bytes
  6868 ;; Hardware stack levels used:    1
  6869 ;; Hardware stack levels required when called:    8
  6870 ;; This function calls:
  6871 ;;		Nothing
  6872 ;; This function is called by:
  6873 ;;		_LCDSetup
  6874 ;; This function uses a non-reentrant model
  6875 ;;
  6876                           
  6877                           	psect	text38
  6878  0024C6                     __ptext38:
  6879                           	opt stack 0
  6880  0024C6                     _longDelay:
  6881                           	opt stack 21
  6882                           
  6883                           ;SysRiego.c: 433: unsigned char L1REG = 2;
  6884                           
  6885                           ;incstack = 0
  6886  0024C6  0E02               	movlw	2
  6887  0024C8  6E1D               	movwf	longDelay@L1REG,c
  6888                           
  6889                           ;SysRiego.c: 434: unsigned char L2REG = 162;
  6890  0024CA  0EA2               	movlw	162
  6891  0024CC  6E1E               	movwf	longDelay@L2REG,c
  6892                           
  6893                           ;SysRiego.c: 435: unsigned char L3REG = 255;
  6894  0024CE  681F               	setf	longDelay@L3REG,c
  6895                           
  6896                           ;SysRiego.c: 437: while(L1REG-- > 0){
  6897  0024D0  D00C               	goto	l3668
  6898  0024D2                     l3662:
  6899                           
  6900                           ;SysRiego.c: 438: L2REG = 162;
  6901  0024D2  0EA2               	movlw	162
  6902  0024D4  6E1E               	movwf	longDelay@L2REG,c
  6903                           
  6904                           ;SysRiego.c: 439: while(L2REG-- > 0){
  6905  0024D6  D005               	goto	l3666
  6906  0024D8                     l295:
  6907                           
  6908                           ;SysRiego.c: 440: L3REG = 255;
  6909  0024D8  681F               	setf	longDelay@L3REG,c
  6910  0024DA                     l3664:
  6911  0024DA  061F               	decf	longDelay@L3REG,f,c
  6912  0024DC  281F               	incf	longDelay@L3REG,w,c
  6913  0024DE  A4D8               	btfss	status,2,c
  6914  0024E0  D7FC               	goto	l3664
  6915  0024E2                     l3666:
  6916  0024E2  061E               	decf	longDelay@L2REG,f,c
  6917  0024E4  281E               	incf	longDelay@L2REG,w,c
  6918  0024E6  A4D8               	btfss	status,2,c
  6919  0024E8  D7F7               	goto	l295
  6920  0024EA                     l3668:
  6921  0024EA  061D               	decf	longDelay@L1REG,f,c
  6922  0024EC  281D               	incf	longDelay@L1REG,w,c
  6923  0024EE  B4D8               	btfsc	status,2,c
  6924  0024F0  0012               	return	
  6925  0024F2  D7EF               	goto	l3662
  6926  0024F4                     __end_of_longDelay:
  6927                           	opt stack 0
  6928                           tblptru	equ	0xFF8
  6929                           tblptrh	equ	0xFF7
  6930                           tblptrl	equ	0xFF6
  6931                           tablat	equ	0xFF5
  6932                           prodh	equ	0xFF4
  6933                           prodl	equ	0xFF3
  6934                           intcon	equ	0xFF2
  6935                           intcon2	equ	0xFF1
  6936                           indf0	equ	0xFEF
  6937                           postinc0	equ	0xFEE
  6938                           fsr0h	equ	0xFEA
  6939                           fsr0l	equ	0xFE9
  6940                           wreg	equ	0xFE8
  6941                           indf1	equ	0xFE7
  6942                           postdec1	equ	0xFE5
  6943                           fsr1h	equ	0xFE2
  6944                           fsr1l	equ	0xFE1
  6945                           indf2	equ	0xFDF
  6946                           postinc2	equ	0xFDE
  6947                           postdec2	equ	0xFDD
  6948                           fsr2h	equ	0xFDA
  6949                           fsr2l	equ	0xFD9
  6950                           status	equ	0xFD8
  6951                           
  6952 ;; *************** function _isReady *****************
  6953 ;; Defined at:
  6954 ;;		line 455 in file "SysRiego.c"
  6955 ;; Parameters:    Size  Location     Type
  6956 ;;		None
  6957 ;; Auto vars:     Size  Location     Type
  6958 ;;		None
  6959 ;; Return value:  Size  Location     Type
  6960 ;;                  1    wreg      void 
  6961 ;; Registers used:
  6962 ;;		wreg, status,2, status,0, cstack
  6963 ;; Tracked objects:
  6964 ;;		On entry : 0/0
  6965 ;;		On exit  : 0/0
  6966 ;;		Unchanged: 0/0
  6967 ;; Data sizes:     COMRAM   BANK0   BANK1   BANK2   BANK3   BANK4   BANK5   BANK6   BANK7   BANK8   BANK9  BANK10  BANK1
      +1  BANK12
  6968 ;;      Params:         0       0       0       0       0       0       0       0       0       0       0       0       
      +0       0
  6969 ;;      Locals:         0       0       0       0       0       0       0       0       0       0       0       0       
      +0       0
  6970 ;;      Temps:          0       0       0       0       0       0       0       0       0       0       0       0       
      +0       0
  6971 ;;      Totals:         0       0       0       0       0       0       0       0       0       0       0       0       
      +0       0
  6972 ;;Total ram usage:        0 bytes
  6973 ;; Hardware stack levels used:    1
  6974 ;; Hardware stack levels required when called:    9
  6975 ;; This function calls:
  6976 ;;		_portDAsInput
  6977 ;;		_portDAsOutput
  6978 ;;		_shortDelay
  6979 ;; This function is called by:
  6980 ;;		_LCDSetup
  6981 ;;		_clearDisplay
  6982 ;;		_moveCurR
  6983 ;;		_moveCurL
  6984 ;; This function uses a non-reentrant model
  6985 ;;
  6986                           
  6987                           	psect	text39
  6988  0026A4                     __ptext39:
  6989                           	opt stack 0
  6990  0026A4                     _isReady:
  6991                           	opt stack 19
  6992                           
  6993                           ;SysRiego.c: 456: portDAsInput();
  6994                           
  6995                           ;incstack = 0
  6996  0026A4  EC3A  F014         	call	_portDAsInput	;wreg free
  6997                           
  6998                           ;SysRiego.c: 457: PORTCbits.RC0 = 0;
  6999  0026A8  9082               	bcf	3970,0,c	;volatile
  7000                           
  7001                           ;SysRiego.c: 458: PORTCbits.RC1 = 1;
  7002  0026AA  8282               	bsf	3970,1,c	;volatile
  7003                           
  7004                           ;SysRiego.c: 460: while(PORTDbits.RD7 == 1){
  7005  0026AC  D004               	goto	l4688
  7006  0026AE                     l308:
  7007                           
  7008                           ;SysRiego.c: 461: PORTCbits.RC2 = 1;
  7009  0026AE  8482               	bsf	3970,2,c	;volatile
  7010                           
  7011                           ;SysRiego.c: 462: shortDelay();
  7012  0026B0  EC08  F014         	call	_shortDelay	;wreg free
  7013                           
  7014                           ;SysRiego.c: 463: PORTCbits.RC2 = 0;
  7015  0026B4  9482               	bcf	3970,2,c	;volatile
  7016  0026B6                     l4688:
  7017  0026B6  BE83               	btfsc	3971,7,c	;volatile
  7018  0026B8  D7FA               	goto	l308
  7019                           
  7020                           ;SysRiego.c: 464: }
  7021                           ;SysRiego.c: 465: portDAsOutput();
  7022  0026BA  EC34  F014         	call	_portDAsOutput	;wreg free
  7023  0026BE  0012               	return		;funcret
  7024  0026C0                     __end_of_isReady:
  7025                           	opt stack 0
  7026                           tblptru	equ	0xFF8
  7027                           tblptrh	equ	0xFF7
  7028                           tblptrl	equ	0xFF6
  7029                           tablat	equ	0xFF5
  7030                           prodh	equ	0xFF4
  7031                           prodl	equ	0xFF3
  7032                           intcon	equ	0xFF2
  7033                           intcon2	equ	0xFF1
  7034                           indf0	equ	0xFEF
  7035                           postinc0	equ	0xFEE
  7036                           fsr0h	equ	0xFEA
  7037                           fsr0l	equ	0xFE9
  7038                           wreg	equ	0xFE8
  7039                           indf1	equ	0xFE7
  7040                           postdec1	equ	0xFE5
  7041                           fsr1h	equ	0xFE2
  7042                           fsr1l	equ	0xFE1
  7043                           indf2	equ	0xFDF
  7044                           postinc2	equ	0xFDE
  7045                           postdec2	equ	0xFDD
  7046                           fsr2h	equ	0xFDA
  7047                           fsr2l	equ	0xFD9
  7048                           status	equ	0xFD8
  7049                           
  7050 ;; *************** function _portDAsOutput *****************
  7051 ;; Defined at:
  7052 ;;		line 410 in file "SysRiego.c"
  7053 ;; Parameters:    Size  Location     Type
  7054 ;;		None
  7055 ;; Auto vars:     Size  Location     Type
  7056 ;;		None
  7057 ;; Return value:  Size  Location     Type
  7058 ;;                  1    wreg      void 
  7059 ;; Registers used:
  7060 ;;		wreg, status,2
  7061 ;; Tracked objects:
  7062 ;;		On entry : 0/0
  7063 ;;		On exit  : 0/0
  7064 ;;		Unchanged: 0/0
  7065 ;; Data sizes:     COMRAM   BANK0   BANK1   BANK2   BANK3   BANK4   BANK5   BANK6   BANK7   BANK8   BANK9  BANK10  BANK1
      +1  BANK12
  7066 ;;      Params:         0       0       0       0       0       0       0       0       0       0       0       0       
      +0       0
  7067 ;;      Locals:         0       0       0       0       0       0       0       0       0       0       0       0       
      +0       0
  7068 ;;      Temps:          0       0       0       0       0       0       0       0       0       0       0       0       
      +0       0
  7069 ;;      Totals:         0       0       0       0       0       0       0       0       0       0       0       0       
      +0       0
  7070 ;;Total ram usage:        0 bytes
  7071 ;; Hardware stack levels used:    1
  7072 ;; Hardware stack levels required when called:    8
  7073 ;; This function calls:
  7074 ;;		Nothing
  7075 ;; This function is called by:
  7076 ;;		_main
  7077 ;;		_isReady
  7078 ;; This function uses a non-reentrant model
  7079 ;;
  7080                           
  7081                           	psect	text40
  7082  002868                     __ptext40:
  7083                           	opt stack 0
  7084  002868                     _portDAsOutput:
  7085                           	opt stack 19
  7086                           
  7087                           ;SysRiego.c: 411: TRISD = 0x00;
  7088                           
  7089                           ;incstack = 0
  7090  002868  0E00               	movlw	0
  7091  00286A  6E95               	movwf	3989,c	;volatile
  7092  00286C  0012               	return		;funcret
  7093  00286E                     __end_of_portDAsOutput:
  7094                           	opt stack 0
  7095                           tblptru	equ	0xFF8
  7096                           tblptrh	equ	0xFF7
  7097                           tblptrl	equ	0xFF6
  7098                           tablat	equ	0xFF5
  7099                           prodh	equ	0xFF4
  7100                           prodl	equ	0xFF3
  7101                           intcon	equ	0xFF2
  7102                           intcon2	equ	0xFF1
  7103                           indf0	equ	0xFEF
  7104                           postinc0	equ	0xFEE
  7105                           fsr0h	equ	0xFEA
  7106                           fsr0l	equ	0xFE9
  7107                           wreg	equ	0xFE8
  7108                           indf1	equ	0xFE7
  7109                           postdec1	equ	0xFE5
  7110                           fsr1h	equ	0xFE2
  7111                           fsr1l	equ	0xFE1
  7112                           indf2	equ	0xFDF
  7113                           postinc2	equ	0xFDE
  7114                           postdec2	equ	0xFDD
  7115                           fsr2h	equ	0xFDA
  7116                           fsr2l	equ	0xFD9
  7117                           status	equ	0xFD8
  7118                           
  7119 ;; *************** function _portDAsInput *****************
  7120 ;; Defined at:
  7121 ;;		line 406 in file "SysRiego.c"
  7122 ;; Parameters:    Size  Location     Type
  7123 ;;		None
  7124 ;; Auto vars:     Size  Location     Type
  7125 ;;		None
  7126 ;; Return value:  Size  Location     Type
  7127 ;;                  1    wreg      void 
  7128 ;; Registers used:
  7129 ;;		None
  7130 ;; Tracked objects:
  7131 ;;		On entry : 0/0
  7132 ;;		On exit  : 0/0
  7133 ;;		Unchanged: 0/0
  7134 ;; Data sizes:     COMRAM   BANK0   BANK1   BANK2   BANK3   BANK4   BANK5   BANK6   BANK7   BANK8   BANK9  BANK10  BANK1
      +1  BANK12
  7135 ;;      Params:         0       0       0       0       0       0       0       0       0       0       0       0       
      +0       0
  7136 ;;      Locals:         0       0       0       0       0       0       0       0       0       0       0       0       
      +0       0
  7137 ;;      Temps:          0       0       0       0       0       0       0       0       0       0       0       0       
      +0       0
  7138 ;;      Totals:         0       0       0       0       0       0       0       0       0       0       0       0       
      +0       0
  7139 ;;Total ram usage:        0 bytes
  7140 ;; Hardware stack levels used:    1
  7141 ;; Hardware stack levels required when called:    8
  7142 ;; This function calls:
  7143 ;;		Nothing
  7144 ;; This function is called by:
  7145 ;;		_isReady
  7146 ;; This function uses a non-reentrant model
  7147 ;;
  7148                           
  7149                           	psect	text41
  7150  002874                     __ptext41:
  7151                           	opt stack 0
  7152  002874                     _portDAsInput:
  7153                           	opt stack 19
  7154                           
  7155                           ;SysRiego.c: 407: TRISD = 0xFF;
  7156                           
  7157                           ;incstack = 0
  7158  002874  6895               	setf	3989,c	;volatile
  7159  002876  0012               	return		;funcret
  7160  002878                     __end_of_portDAsInput:
  7161                           	opt stack 0
  7162                           tblptru	equ	0xFF8
  7163                           tblptrh	equ	0xFF7
  7164                           tblptrl	equ	0xFF6
  7165                           tablat	equ	0xFF5
  7166                           prodh	equ	0xFF4
  7167                           prodl	equ	0xFF3
  7168                           intcon	equ	0xFF2
  7169                           intcon2	equ	0xFF1
  7170                           indf0	equ	0xFEF
  7171                           postinc0	equ	0xFEE
  7172                           fsr0h	equ	0xFEA
  7173                           fsr0l	equ	0xFE9
  7174                           wreg	equ	0xFE8
  7175                           indf1	equ	0xFE7
  7176                           postdec1	equ	0xFE5
  7177                           fsr1h	equ	0xFE2
  7178                           fsr1l	equ	0xFE1
  7179                           indf2	equ	0xFDF
  7180                           postinc2	equ	0xFDE
  7181                           postdec2	equ	0xFDD
  7182                           fsr2h	equ	0xFDA
  7183                           fsr2l	equ	0xFD9
  7184                           status	equ	0xFD8
  7185                           
  7186 ;; *************** function _command *****************
  7187 ;; Defined at:
  7188 ;;		line 446 in file "SysRiego.c"
  7189 ;; Parameters:    Size  Location     Type
  7190 ;;  x               1    wreg     unsigned char 
  7191 ;; Auto vars:     Size  Location     Type
  7192 ;;  x               1   29[COMRAM] unsigned char 
  7193 ;; Return value:  Size  Location     Type
  7194 ;;                  1    wreg      void 
  7195 ;; Registers used:
  7196 ;;		wreg, status,2, status,0, cstack
  7197 ;; Tracked objects:
  7198 ;;		On entry : 0/0
  7199 ;;		On exit  : 0/0
  7200 ;;		Unchanged: 0/0
  7201 ;; Data sizes:     COMRAM   BANK0   BANK1   BANK2   BANK3   BANK4   BANK5   BANK6   BANK7   BANK8   BANK9  BANK10  BANK1
      +1  BANK12
  7202 ;;      Params:         0       0       0       0       0       0       0       0       0       0       0       0       
      +0       0
  7203 ;;      Locals:         1       0       0       0       0       0       0       0       0       0       0       0       
      +0       0
  7204 ;;      Temps:          0       0       0       0       0       0       0       0       0       0       0       0       
      +0       0
  7205 ;;      Totals:         1       0       0       0       0       0       0       0       0       0       0       0       
      +0       0
  7206 ;;Total ram usage:        1 bytes
  7207 ;; Hardware stack levels used:    1
  7208 ;; Hardware stack levels required when called:    9
  7209 ;; This function calls:
  7210 ;;		_shortDelay
  7211 ;; This function is called by:
  7212 ;;		_LCDSetup
  7213 ;;		_clearDisplay
  7214 ;;		_workingTimer
  7215 ;;		_moveCurH
  7216 ;;		_moveCurR
  7217 ;;		_moveCurL
  7218 ;; This function uses a non-reentrant model
  7219 ;;
  7220                           
  7221                           	psect	text42
  7222  0027B4                     __ptext42:
  7223                           	opt stack 0
  7224  0027B4                     _command:
  7225                           	opt stack 20
  7226                           
  7227                           ;incstack = 0
  7228                           ;command@x stored from wreg
  7229  0027B4  6E1E               	movwf	command@x,c
  7230                           
  7231                           ;SysRiego.c: 447: PORTD = x;
  7232  0027B6  C01E  FF83         	movff	command@x,3971	;volatile
  7233                           
  7234                           ;SysRiego.c: 448: PORTCbits.RC0 = 0;
  7235  0027BA  9082               	bcf	3970,0,c	;volatile
  7236                           
  7237                           ;SysRiego.c: 449: PORTCbits.RC1 = 0;
  7238  0027BC  9282               	bcf	3970,1,c	;volatile
  7239                           
  7240                           ;SysRiego.c: 450: PORTCbits.RC2 = 1;
  7241  0027BE  8482               	bsf	3970,2,c	;volatile
  7242                           
  7243                           ;SysRiego.c: 451: shortDelay();
  7244  0027C0  EC08  F014         	call	_shortDelay	;wreg free
  7245                           
  7246                           ;SysRiego.c: 452: PORTCbits.RC2 = 0;
  7247  0027C4  9482               	bcf	3970,2,c	;volatile
  7248  0027C6  0012               	return		;funcret
  7249  0027C8                     __end_of_command:
  7250                           	opt stack 0
  7251                           tblptru	equ	0xFF8
  7252                           tblptrh	equ	0xFF7
  7253                           tblptrl	equ	0xFF6
  7254                           tablat	equ	0xFF5
  7255                           prodh	equ	0xFF4
  7256                           prodl	equ	0xFF3
  7257                           intcon	equ	0xFF2
  7258                           intcon2	equ	0xFF1
  7259                           indf0	equ	0xFEF
  7260                           postinc0	equ	0xFEE
  7261                           fsr0h	equ	0xFEA
  7262                           fsr0l	equ	0xFE9
  7263                           wreg	equ	0xFE8
  7264                           indf1	equ	0xFE7
  7265                           postdec1	equ	0xFE5
  7266                           fsr1h	equ	0xFE2
  7267                           fsr1l	equ	0xFE1
  7268                           indf2	equ	0xFDF
  7269                           postinc2	equ	0xFDE
  7270                           postdec2	equ	0xFDD
  7271                           fsr2h	equ	0xFDA
  7272                           fsr2l	equ	0xFD9
  7273                           status	equ	0xFD8
  7274                           
  7275 ;; *************** function _shortDelay *****************
  7276 ;; Defined at:
  7277 ;;		line 426 in file "SysRiego.c"
  7278 ;; Parameters:    Size  Location     Type
  7279 ;;		None
  7280 ;; Auto vars:     Size  Location     Type
  7281 ;;  L1REG           1   28[COMRAM] unsigned char 
  7282 ;; Return value:  Size  Location     Type
  7283 ;;                  1    wreg      void 
  7284 ;; Registers used:
  7285 ;;		wreg, status,2, status,0
  7286 ;; Tracked objects:
  7287 ;;		On entry : 0/0
  7288 ;;		On exit  : 0/0
  7289 ;;		Unchanged: 0/0
  7290 ;; Data sizes:     COMRAM   BANK0   BANK1   BANK2   BANK3   BANK4   BANK5   BANK6   BANK7   BANK8   BANK9  BANK10  BANK1
      +1  BANK12
  7291 ;;      Params:         0       0       0       0       0       0       0       0       0       0       0       0       
      +0       0
  7292 ;;      Locals:         1       0       0       0       0       0       0       0       0       0       0       0       
      +0       0
  7293 ;;      Temps:          0       0       0       0       0       0       0       0       0       0       0       0       
      +0       0
  7294 ;;      Totals:         1       0       0       0       0       0       0       0       0       0       0       0       
      +0       0
  7295 ;;Total ram usage:        1 bytes
  7296 ;; Hardware stack levels used:    1
  7297 ;; Hardware stack levels required when called:    8
  7298 ;; This function calls:
  7299 ;;		Nothing
  7300 ;; This function is called by:
  7301 ;;		_command
  7302 ;;		_isReady
  7303 ;;		_displayCharOnLCD
  7304 ;;		_clearDisplay
  7305 ;;		_moveCurR
  7306 ;;		_moveCurL
  7307 ;; This function uses a non-reentrant model
  7308 ;;
  7309                           
  7310                           	psect	text43
  7311  002810                     __ptext43:
  7312                           	opt stack 0
  7313  002810                     _shortDelay:
  7314                           	opt stack 19
  7315                           
  7316                           ;SysRiego.c: 427: unsigned char L1REG = 2;
  7317                           
  7318                           ;incstack = 0
  7319  002810  0E02               	movlw	2
  7320  002812  6E1D               	movwf	shortDelay@L1REG,c
  7321  002814                     l4642:
  7322  002814  061D               	decf	shortDelay@L1REG,f,c
  7323  002816  281D               	incf	shortDelay@L1REG,w,c
  7324  002818  B4D8               	btfsc	status,2,c
  7325  00281A  0012               	return	
  7326  00281C  D7FB               	goto	l4642
  7327  00281E                     __end_of_shortDelay:
  7328                           	opt stack 0
  7329                           tblptru	equ	0xFF8
  7330                           tblptrh	equ	0xFF7
  7331                           tblptrl	equ	0xFF6
  7332                           tablat	equ	0xFF5
  7333                           prodh	equ	0xFF4
  7334                           prodl	equ	0xFF3
  7335                           intcon	equ	0xFF2
  7336                           intcon2	equ	0xFF1
  7337                           indf0	equ	0xFEF
  7338                           postinc0	equ	0xFEE
  7339                           fsr0h	equ	0xFEA
  7340                           fsr0l	equ	0xFE9
  7341                           wreg	equ	0xFE8
  7342                           indf1	equ	0xFE7
  7343                           postdec1	equ	0xFE5
  7344                           fsr1h	equ	0xFE2
  7345                           fsr1l	equ	0xFE1
  7346                           indf2	equ	0xFDF
  7347                           postinc2	equ	0xFDE
  7348                           postdec2	equ	0xFDD
  7349                           fsr2h	equ	0xFDA
  7350                           fsr2l	equ	0xFD9
  7351                           status	equ	0xFD8
  7352                           
  7353 ;; *************** function _ISRL *****************
  7354 ;; Defined at:
  7355 ;;		line 771 in file "SysRiego.c"
  7356 ;; Parameters:    Size  Location     Type
  7357 ;;		None
  7358 ;; Auto vars:     Size  Location     Type
  7359 ;;		None
  7360 ;; Return value:  Size  Location     Type
  7361 ;;                  1    wreg      void 
  7362 ;; Registers used:
  7363 ;;		None
  7364 ;; Tracked objects:
  7365 ;;		On entry : 0/0
  7366 ;;		On exit  : 0/0
  7367 ;;		Unchanged: 0/0
  7368 ;; Data sizes:     COMRAM   BANK0   BANK1   BANK2   BANK3   BANK4   BANK5   BANK6   BANK7   BANK8   BANK9  BANK10  BANK1
      +1  BANK12
  7369 ;;      Params:         0       0       0       0       0       0       0       0       0       0       0       0       
      +0       0
  7370 ;;      Locals:         0       0       0       0       0       0       0       0       0       0       0       0       
      +0       0
  7371 ;;      Temps:          0      17       0       0       0       0       0       0       0       0       0       0       
      +0       0
  7372 ;;      Totals:         0      17       0       0       0       0       0       0       0       0       0       0       
      +0       0
  7373 ;;Total ram usage:       17 bytes
  7374 ;; Hardware stack levels used:    1
  7375 ;; Hardware stack levels required when called:    7
  7376 ;; This function calls:
  7377 ;;		Nothing
  7378 ;; This function is called by:
  7379 ;;		Interrupt level 1
  7380 ;; This function uses a non-reentrant model
  7381 ;;
  7382                           
  7383                           	psect	intcodelo
  7384  000018                     __pintcodelo:
  7385                           	opt stack 0
  7386  000018                     _ISRL:
  7387                           	opt stack 17
  7388                           
  7389                           ;incstack = 0
  7390  000018  8043               	bsf	btemp,0,c	;set compiler interrupt flag (level 1)
  7391  00001A  CFD8 F0CE          	movff	status,??_ISRL
  7392  00001E  CFE8 F0CF          	movff	wreg,??_ISRL+1
  7393  000022  CFE0 F0D0          	movff	bsr,??_ISRL+2
  7394  000026  CFFA F0D1          	movff	pclath,??_ISRL+3
  7395  00002A  CFFB F0D2          	movff	pclatu,??_ISRL+4
  7396  00002E  CFE9 F0D3          	movff	fsr0l,??_ISRL+5
  7397  000032  CFEA F0D4          	movff	fsr0h,??_ISRL+6
  7398  000036  CFE1 F0D5          	movff	fsr1l,??_ISRL+7
  7399  00003A  CFE2 F0D6          	movff	fsr1h,??_ISRL+8
  7400  00003E  CFD9 F0D7          	movff	fsr2l,??_ISRL+9
  7401  000042  CFDA F0D8          	movff	fsr2h,??_ISRL+10
  7402  000046  CFF3 F0D9          	movff	prodl,??_ISRL+11
  7403  00004A  CFF4 F0DA          	movff	prodh,??_ISRL+12
  7404  00004E  CFF6 F0DB          	movff	tblptrl,??_ISRL+13
  7405  000052  CFF7 F0DC          	movff	tblptrh,??_ISRL+14
  7406  000056  CFF8 F0DD          	movff	tblptru,??_ISRL+15
  7407  00005A  CFF5 F0DE          	movff	tablat,??_ISRL+16
  7408  00005E  C0DE  FFF5         	movff	??_ISRL+16,tablat
  7409  000062  C0DD  FFF8         	movff	??_ISRL+15,tblptru
  7410  000066  C0DC  FFF7         	movff	??_ISRL+14,tblptrh
  7411  00006A  C0DB  FFF6         	movff	??_ISRL+13,tblptrl
  7412  00006E  C0DA  FFF4         	movff	??_ISRL+12,prodh
  7413  000072  C0D9  FFF3         	movff	??_ISRL+11,prodl
  7414  000076  C0D8  FFDA         	movff	??_ISRL+10,fsr2h
  7415  00007A  C0D7  FFD9         	movff	??_ISRL+9,fsr2l
  7416  00007E  C0D6  FFE2         	movff	??_ISRL+8,fsr1h
  7417  000082  C0D5  FFE1         	movff	??_ISRL+7,fsr1l
  7418  000086  C0D4  FFEA         	movff	??_ISRL+6,fsr0h
  7419  00008A  C0D3  FFE9         	movff	??_ISRL+5,fsr0l
  7420  00008E  C0D2  FFFB         	movff	??_ISRL+4,pclatu
  7421  000092  C0D1  FFFA         	movff	??_ISRL+3,pclath
  7422  000096  C0D0  FFE0         	movff	??_ISRL+2,bsr
  7423  00009A  C0CF  FFE8         	movff	??_ISRL+1,wreg
  7424  00009E  C0CE  FFD8         	movff	??_ISRL,status
  7425  0000A2  9043               	bcf	btemp,0,c	;clear compiler interrupt flag (level 1)
  7426  0000A4  0010               	retfie	
  7427  0000A6                     __end_of_ISRL:
  7428                           	opt stack 0
  7429                           pclatu	equ	0xFFB
  7430                           pclath	equ	0xFFA
  7431                           tblptru	equ	0xFF8
  7432                           tblptrh	equ	0xFF7
  7433                           tblptrl	equ	0xFF6
  7434                           tablat	equ	0xFF5
  7435                           prodh	equ	0xFF4
  7436                           prodl	equ	0xFF3
  7437                           intcon	equ	0xFF2
  7438                           intcon2	equ	0xFF1
  7439                           indf0	equ	0xFEF
  7440                           postinc0	equ	0xFEE
  7441                           fsr0h	equ	0xFEA
  7442                           fsr0l	equ	0xFE9
  7443                           wreg	equ	0xFE8
  7444                           indf1	equ	0xFE7
  7445                           postdec1	equ	0xFE5
  7446                           fsr1h	equ	0xFE2
  7447                           fsr1l	equ	0xFE1
  7448                           bsr	equ	0xFE0
  7449                           indf2	equ	0xFDF
  7450                           postinc2	equ	0xFDE
  7451                           postdec2	equ	0xFDD
  7452                           fsr2h	equ	0xFDA
  7453                           fsr2l	equ	0xFD9
  7454                           status	equ	0xFD8
  7455                           
  7456 ;; *************** function _ISRH *****************
  7457 ;; Defined at:
  7458 ;;		line 776 in file "SysRiego.c"
  7459 ;; Parameters:    Size  Location     Type
  7460 ;;		None
  7461 ;; Auto vars:     Size  Location     Type
  7462 ;;		None
  7463 ;; Return value:  Size  Location     Type
  7464 ;;                  1    wreg      void 
  7465 ;; Registers used:
  7466 ;;		wreg, fsr0l, fsr0h, status,2, status,0, tblptrl, tblptrh, tblptru, prodl, prodh, cstack
  7467 ;; Tracked objects:
  7468 ;;		On entry : 0/0
  7469 ;;		On exit  : 0/0
  7470 ;;		Unchanged: 0/0
  7471 ;; Data sizes:     COMRAM   BANK0   BANK1   BANK2   BANK3   BANK4   BANK5   BANK6   BANK7   BANK8   BANK9  BANK10  BANK1
      +1  BANK12
  7472 ;;      Params:         0       0       0       0       0       0       0       0       0       0       0       0       
      +0       0
  7473 ;;      Locals:         0       0       0       0       0       0       0       0       0       0       0       0       
      +0       0
  7474 ;;      Temps:         14       0       0       0       0       0       0       0       0       0       0       0       
      +0       0
  7475 ;;      Totals:        14       0       0       0       0       0       0       0       0       0       0       0       
      +0       0
  7476 ;;Total ram usage:       14 bytes
  7477 ;; Hardware stack levels used:    1
  7478 ;; Hardware stack levels required when called:    6
  7479 ;; This function calls:
  7480 ;;		_oneShot
  7481 ;;		_resetOneShot
  7482 ;;		i2_groundAllRows
  7483 ;; This function is called by:
  7484 ;;		Interrupt level 2
  7485 ;; This function uses a non-reentrant model
  7486 ;;
  7487                           
  7488                           	psect	intcode
  7489  000008                     __pintcode:
  7490                           	opt stack 0
  7491  000008                     _ISRH:
  7492                           	opt stack 17
  7493                           
  7494                           ;incstack = 0
  7495  000008  8243               	bsf	btemp,1,c	;set compiler interrupt flag (level 2)
  7496  00000A  CFFA F00F          	movff	pclath,??_ISRH
  7497  00000E  CFFB F010          	movff	pclatu,??_ISRH+1
  7498  000012  EDA2  F00A         	call	int_func,f	;refresh shadow registers
  7499                           pclatu	equ	0xFFB
  7500                           pclath	equ	0xFFA
  7501                           tblptru	equ	0xFF8
  7502                           tblptrh	equ	0xFF7
  7503                           tblptrl	equ	0xFF6
  7504                           tablat	equ	0xFF5
  7505                           prodh	equ	0xFF4
  7506                           prodl	equ	0xFF3
  7507                           intcon	equ	0xFF2
  7508                           intcon2	equ	0xFF1
  7509                           indf0	equ	0xFEF
  7510                           postinc0	equ	0xFEE
  7511                           fsr0h	equ	0xFEA
  7512                           fsr0l	equ	0xFE9
  7513                           wreg	equ	0xFE8
  7514                           indf1	equ	0xFE7
  7515                           postdec1	equ	0xFE5
  7516                           fsr1h	equ	0xFE2
  7517                           fsr1l	equ	0xFE1
  7518                           bsr	equ	0xFE0
  7519                           indf2	equ	0xFDF
  7520                           postinc2	equ	0xFDE
  7521                           postdec2	equ	0xFDD
  7522                           fsr2h	equ	0xFDA
  7523                           fsr2l	equ	0xFD9
  7524                           status	equ	0xFD8
  7525                           
  7526                           	psect	intcode_body
  7527  001544                     __pintcode_body:
  7528                           	opt stack 17
  7529  001544                     int_func:
  7530                           	opt stack 17
  7531  001544  0006               	pop		; remove dummy address from shadow register refresh
  7532  001546  CFE9 F011          	movff	fsr0l,??_ISRH+2
  7533  00154A  CFEA F012          	movff	fsr0h,??_ISRH+3
  7534  00154E  CFE1 F013          	movff	fsr1l,??_ISRH+4
  7535  001552  CFE2 F014          	movff	fsr1h,??_ISRH+5
  7536  001556  CFD9 F015          	movff	fsr2l,??_ISRH+6
  7537  00155A  CFDA F016          	movff	fsr2h,??_ISRH+7
  7538  00155E  CFF3 F017          	movff	prodl,??_ISRH+8
  7539  001562  CFF4 F018          	movff	prodh,??_ISRH+9
  7540  001566  CFF6 F019          	movff	tblptrl,??_ISRH+10
  7541  00156A  CFF7 F01A          	movff	tblptrh,??_ISRH+11
  7542  00156E  CFF8 F01B          	movff	tblptru,??_ISRH+12
  7543  001572  CFF5 F01C          	movff	tablat,??_ISRH+13
  7544                           
  7545                           ;SysRiego.c: 778: if(INTCONbits.RBIF==1)
  7546  001576  B0F2               	btfsc	intcon,0,c	;volatile
  7547  001578  D00C               	goto	i2l4304
  7548  00157A  D00E               	goto	i2l412
  7549  00157C                     i2l4294:
  7550                           
  7551                           ;SysRiego.c: 782: groundAllRows();
  7552  00157C  EC2A  F014         	call	i2_groundAllRows	;wreg free
  7553                           
  7554                           ;SysRiego.c: 784: if(PORTB != 0xF0){
  7555  001580  0EF0               	movlw	240
  7556  001582  1881               	xorwf	3969,w,c	;volatile
  7557  001584  A4D8               	btfss	status,2,c
  7558                           
  7559                           ;SysRiego.c: 785: oneShot();
  7560  001586  EC6E  F013         	call	_oneShot	;wreg free
  7561                           
  7562                           ;SysRiego.c: 786: }
  7563                           ;SysRiego.c: 787: if(oneShotFlag == 1){
  7564  00158A  0441               	decf	_oneShotFlag,w,c
  7565  00158C  B4D8               	btfsc	status,2,c
  7566                           
  7567                           ;SysRiego.c: 788: resetOneShot();
  7568  00158E  EC60  F013         	call	_resetOneShot	;wreg free
  7569  001592                     i2l4304:
  7570  001592  A0F2               	btfss	intcon,0,c	;volatile
  7571  001594  D065               	goto	i2l418
  7572  001596  D7F2               	goto	i2l4294
  7573  001598                     i2l412:
  7574                           
  7575                           ;SysRiego.c: 794: }
  7576                           ;SysRiego.c: 797: if(TMR0IE && TMR0IF)
  7577  001598  BAF2               	btfsc	intcon,5,c	;volatile
  7578  00159A  A4F2               	btfss	intcon,2,c	;volatile
  7579  00159C  D05F               	goto	i2l419
  7580                           
  7581                           ;SysRiego.c: 798: {
  7582                           ;SysRiego.c: 799: counterSEC++;
  7583  00159E  2A21               	incf	_counterSEC,f,c
  7584                           
  7585                           ;SysRiego.c: 800: if(counterSEC=='5')
  7586  0015A0  0E35               	movlw	53
  7587  0015A2  1821               	xorwf	_counterSEC,w,c
  7588  0015A4  A4D8               	btfss	status,2,c
  7589  0015A6  D054               	goto	i2l4350
  7590                           
  7591                           ;SysRiego.c: 801: {
  7592                           ;SysRiego.c: 802: counterSEC='0';
  7593  0015A8  0E30               	movlw	48
  7594  0015AA  6E21               	movwf	_counterSEC,c
  7595                           
  7596                           ;SysRiego.c: 803: counterMIN[1]++;
  7597  0015AC  0100               	movlb	0	; () banked
  7598  0015AE  2BC3               	incf	(_counterMIN+1)& (0+255),f,b
  7599                           
  7600                           ; BSR set to: 0
  7601                           ;SysRiego.c: 804: if(counterMIN[1]==':')
  7602  0015B0  0E3A               	movlw	58
  7603  0015B2  0100               	movlb	0	; () banked
  7604  0015B4  19C3               	xorwf	(_counterMIN+1)& (0+255),w,b
  7605  0015B6  A4D8               	btfss	status,2,c
  7606  0015B8  D04B               	goto	i2l4350
  7607                           
  7608                           ; BSR set to: 0
  7609                           ;SysRiego.c: 805: {
  7610                           ;SysRiego.c: 806: counterMIN[1]='0';
  7611  0015BA  0E30               	movlw	48
  7612  0015BC  0100               	movlb	0	; () banked
  7613  0015BE  6FC3               	movwf	(_counterMIN+1)& (0+255),b
  7614                           
  7615                           ; BSR set to: 0
  7616                           ;SysRiego.c: 807: counterMIN[0]++;
  7617  0015C0  0100               	movlb	0	; () banked
  7618  0015C2  2BC2               	incf	_counterMIN& (0+255),f,b
  7619                           
  7620                           ; BSR set to: 0
  7621                           ;SysRiego.c: 808: if(counterMIN[0]=='6')
  7622  0015C4  0E36               	movlw	54
  7623  0015C6  0100               	movlb	0	; () banked
  7624  0015C8  19C2               	xorwf	_counterMIN& (0+255),w,b
  7625  0015CA  A4D8               	btfss	status,2,c
  7626  0015CC  D041               	goto	i2l4350
  7627                           
  7628                           ; BSR set to: 0
  7629                           ;SysRiego.c: 809: {
  7630                           ;SysRiego.c: 811: if(counterHOUR[0] < '2') {
  7631  0015CE  0E32               	movlw	50
  7632  0015D0  0100               	movlb	0	; () banked
  7633  0015D2  61BF               	cpfslt	_counterHOUR& (0+255),b
  7634  0015D4  D010               	goto	i2l4336
  7635                           
  7636                           ; BSR set to: 0
  7637                           ;SysRiego.c: 813: counterMIN[0]='0';
  7638  0015D6  0E30               	movlw	48
  7639  0015D8  0100               	movlb	0	; () banked
  7640  0015DA  6FC2               	movwf	_counterMIN& (0+255),b
  7641                           
  7642                           ; BSR set to: 0
  7643                           ;SysRiego.c: 814: counterHOUR[1]++;
  7644  0015DC  0100               	movlb	0	; () banked
  7645  0015DE  2BC0               	incf	(_counterHOUR+1)& (0+255),f,b
  7646                           
  7647                           ; BSR set to: 0
  7648                           ;SysRiego.c: 816: if(counterHOUR[1] == ':') {
  7649  0015E0  0E3A               	movlw	58
  7650  0015E2  0100               	movlb	0	; () banked
  7651  0015E4  19C0               	xorwf	(_counterHOUR+1)& (0+255),w,b
  7652  0015E6  A4D8               	btfss	status,2,c
  7653  0015E8  D033               	goto	i2l4350
  7654                           
  7655                           ; BSR set to: 0
  7656                           ;SysRiego.c: 817: counterHOUR[1] = '0';
  7657  0015EA  0E30               	movlw	48
  7658  0015EC  0100               	movlb	0	; () banked
  7659  0015EE  6FC0               	movwf	(_counterHOUR+1)& (0+255),b
  7660                           
  7661                           ; BSR set to: 0
  7662                           ;SysRiego.c: 818: counterHOUR[0]++;
  7663  0015F0  0100               	movlb	0	; () banked
  7664  0015F2  2BBF               	incf	_counterHOUR& (0+255),f,b
  7665                           
  7666                           ; BSR set to: 0
  7667                           ;SysRiego.c: 819: }
  7668                           ;SysRiego.c: 821: }
  7669  0015F4  D02D               	goto	i2l4350
  7670  0015F6                     i2l4336:
  7671                           
  7672                           ; BSR set to: 0
  7673                           ;SysRiego.c: 823: else if( counterHOUR[1] < '3')
  7674  0015F6  0E33               	movlw	51
  7675  0015F8  0100               	movlb	0	; () banked
  7676  0015FA  61C0               	cpfslt	(_counterHOUR+1)& (0+255),b
  7677  0015FC  D006               	goto	i2l4342
  7678                           
  7679                           ; BSR set to: 0
  7680                           ;SysRiego.c: 824: {
  7681                           ;SysRiego.c: 825: counterMIN[0]='0';
  7682  0015FE  0E30               	movlw	48
  7683  001600  0100               	movlb	0	; () banked
  7684  001602  6FC2               	movwf	_counterMIN& (0+255),b
  7685                           
  7686                           ; BSR set to: 0
  7687                           ;SysRiego.c: 826: counterHOUR[1]++;
  7688  001604  0100               	movlb	0	; () banked
  7689  001606  2BC0               	incf	(_counterHOUR+1)& (0+255),f,b
  7690                           
  7691                           ;SysRiego.c: 827: }
  7692  001608  D023               	goto	i2l4350
  7693  00160A                     i2l4342:
  7694                           
  7695                           ; BSR set to: 0
  7696                           ;SysRiego.c: 829: else {
  7697                           ;SysRiego.c: 831: counterSEC = '0';
  7698  00160A  0E30               	movlw	48
  7699  00160C  6E21               	movwf	_counterSEC,c
  7700                           
  7701                           ;SysRiego.c: 832: counterMIN[0] = '0';
  7702  00160E  0E30               	movlw	48
  7703  001610  0100               	movlb	0	; () banked
  7704  001612  6FC2               	movwf	_counterMIN& (0+255),b
  7705                           
  7706                           ;SysRiego.c: 833: counterMIN[1] = '0';
  7707  001614  0E30               	movlw	48
  7708  001616  0100               	movlb	0	; () banked
  7709  001618  6FC3               	movwf	(_counterMIN+1)& (0+255),b
  7710                           
  7711                           ;SysRiego.c: 834: counterHOUR[0] = '0';
  7712  00161A  0E30               	movlw	48
  7713  00161C  0100               	movlb	0	; () banked
  7714  00161E  6FBF               	movwf	_counterHOUR& (0+255),b
  7715                           
  7716                           ;SysRiego.c: 835: counterHOUR[1] = '0';
  7717  001620  0E30               	movlw	48
  7718  001622  0100               	movlb	0	; () banked
  7719  001624  6FC0               	movwf	(_counterHOUR+1)& (0+255),b
  7720                           
  7721                           ; BSR set to: 0
  7722                           ;SysRiego.c: 836: counterDAYS++;
  7723  001626  2A20               	incf	_counterDAYS,f,c
  7724                           
  7725                           ; BSR set to: 0
  7726                           ;SysRiego.c: 838: if (counterDAYS == '7') {
  7727  001628  0E37               	movlw	55
  7728  00162A  1820               	xorwf	_counterDAYS,w,c
  7729  00162C  A4D8               	btfss	status,2,c
  7730  00162E  D010               	goto	i2l4350
  7731                           
  7732                           ; BSR set to: 0
  7733                           ;SysRiego.c: 840: counterSEC = '0';
  7734  001630  0E30               	movlw	48
  7735  001632  6E21               	movwf	_counterSEC,c
  7736                           
  7737                           ;SysRiego.c: 841: counterMIN[0] = '0';
  7738  001634  0E30               	movlw	48
  7739  001636  0100               	movlb	0	; () banked
  7740  001638  6FC2               	movwf	_counterMIN& (0+255),b
  7741                           
  7742                           ;SysRiego.c: 842: counterMIN[1] = '0';
  7743  00163A  0E30               	movlw	48
  7744  00163C  0100               	movlb	0	; () banked
  7745  00163E  6FC3               	movwf	(_counterMIN+1)& (0+255),b
  7746                           
  7747                           ;SysRiego.c: 843: counterHOUR[0] = '0';
  7748  001640  0E30               	movlw	48
  7749  001642  0100               	movlb	0	; () banked
  7750  001644  6FBF               	movwf	_counterHOUR& (0+255),b
  7751                           
  7752                           ;SysRiego.c: 844: counterHOUR[1] = '0';
  7753  001646  0E30               	movlw	48
  7754  001648  0100               	movlb	0	; () banked
  7755  00164A  6FC0               	movwf	(_counterHOUR+1)& (0+255),b
  7756                           
  7757                           ;SysRiego.c: 845: counterDAYS = '0';
  7758  00164C  0E30               	movlw	48
  7759  00164E  6E20               	movwf	_counterDAYS,c
  7760  001650                     i2l4350:
  7761                           
  7762                           ;SysRiego.c: 846: }
  7763                           ;SysRiego.c: 847: }
  7764                           ;SysRiego.c: 848: }
  7765                           ;SysRiego.c: 849: }
  7766                           ;SysRiego.c: 850: }
  7767                           ;SysRiego.c: 852: INTCONbits.TMR0IF = 0;
  7768  001650  94F2               	bcf	intcon,2,c	;volatile
  7769                           
  7770                           ;SysRiego.c: 853: TMR0 = 0x3A98;
  7771  001652  0E3A               	movlw	58
  7772  001654  6ED7               	movwf	4055,c	;volatile
  7773  001656  0E98               	movlw	152
  7774  001658  6ED6               	movwf	4054,c	;volatile
  7775                           
  7776                           ;SysRiego.c: 854: return;
  7777  00165A  D002               	goto	i2l418
  7778  00165C                     i2l419:
  7779                           
  7780                           ;SysRiego.c: 855: }
  7781                           ;SysRiego.c: 857: if(PIR1bits.ADIF == 1) {
  7782  00165C  BC9E               	btfsc	3998,6,c	;volatile
  7783                           
  7784                           ;SysRiego.c: 859: PIR1bits.ADIF=0;
  7785  00165E  9C9E               	bcf	3998,6,c	;volatile
  7786  001660                     i2l418:
  7787  001660  C01C  FFF5         	movff	??_ISRH+13,tablat
  7788  001664  C01B  FFF8         	movff	??_ISRH+12,tblptru
  7789  001668  C01A  FFF7         	movff	??_ISRH+11,tblptrh
  7790  00166C  C019  FFF6         	movff	??_ISRH+10,tblptrl
  7791  001670  C018  FFF4         	movff	??_ISRH+9,prodh
  7792  001674  C017  FFF3         	movff	??_ISRH+8,prodl
  7793  001678  C016  FFDA         	movff	??_ISRH+7,fsr2h
  7794  00167C  C015  FFD9         	movff	??_ISRH+6,fsr2l
  7795  001680  C014  FFE2         	movff	??_ISRH+5,fsr1h
  7796  001684  C013  FFE1         	movff	??_ISRH+4,fsr1l
  7797  001688  C012  FFEA         	movff	??_ISRH+3,fsr0h
  7798  00168C  C011  FFE9         	movff	??_ISRH+2,fsr0l
  7799  001690  C010  FFFB         	movff	??_ISRH+1,pclatu
  7800  001694  C00F  FFFA         	movff	??_ISRH,pclath
  7801  001698  9243               	bcf	btemp,1,c	;clear compiler interrupt flag (level 2)
  7802  00169A  0011               	retfie		f
  7803  00169C                     __end_of_ISRH:
  7804                           	opt stack 0
  7805                           pclatu	equ	0xFFB
  7806                           pclath	equ	0xFFA
  7807                           tblptru	equ	0xFF8
  7808                           tblptrh	equ	0xFF7
  7809                           tblptrl	equ	0xFF6
  7810                           tablat	equ	0xFF5
  7811                           prodh	equ	0xFF4
  7812                           prodl	equ	0xFF3
  7813                           intcon	equ	0xFF2
  7814                           intcon2	equ	0xFF1
  7815                           indf0	equ	0xFEF
  7816                           postinc0	equ	0xFEE
  7817                           fsr0h	equ	0xFEA
  7818                           fsr0l	equ	0xFE9
  7819                           wreg	equ	0xFE8
  7820                           indf1	equ	0xFE7
  7821                           postdec1	equ	0xFE5
  7822                           fsr1h	equ	0xFE2
  7823                           fsr1l	equ	0xFE1
  7824                           bsr	equ	0xFE0
  7825                           indf2	equ	0xFDF
  7826                           postinc2	equ	0xFDE
  7827                           postdec2	equ	0xFDD
  7828                           fsr2h	equ	0xFDA
  7829                           fsr2l	equ	0xFD9
  7830                           status	equ	0xFD8
  7831                           
  7832 ;; *************** function i2_groundAllRows *****************
  7833 ;; Defined at:
  7834 ;;		line 898 in file "SysRiego.c"
  7835 ;; Parameters:    Size  Location     Type
  7836 ;;		None
  7837 ;; Auto vars:     Size  Location     Type
  7838 ;;		None
  7839 ;; Return value:  Size  Location     Type
  7840 ;;                  1    wreg      void 
  7841 ;; Registers used:
  7842 ;;		None
  7843 ;; Tracked objects:
  7844 ;;		On entry : 0/0
  7845 ;;		On exit  : 0/0
  7846 ;;		Unchanged: 0/0
  7847 ;; Data sizes:     COMRAM   BANK0   BANK1   BANK2   BANK3   BANK4   BANK5   BANK6   BANK7   BANK8   BANK9  BANK10  BANK1
      +1  BANK12
  7848 ;;      Params:         0       0       0       0       0       0       0       0       0       0       0       0       
      +0       0
  7849 ;;      Locals:         0       0       0       0       0       0       0       0       0       0       0       0       
      +0       0
  7850 ;;      Temps:          0       0       0       0       0       0       0       0       0       0       0       0       
      +0       0
  7851 ;;      Totals:         0       0       0       0       0       0       0       0       0       0       0       0       
      +0       0
  7852 ;;Total ram usage:        0 bytes
  7853 ;; Hardware stack levels used:    1
  7854 ;; This function calls:
  7855 ;;		Nothing
  7856 ;; This function is called by:
  7857 ;;		_ISRH
  7858 ;; This function uses a non-reentrant model
  7859 ;;
  7860                           
  7861                           	psect	text46
  7862  002854                     __ptext46:
  7863                           	opt stack 0
  7864  002854                     i2_groundAllRows:
  7865                           	opt stack 22
  7866                           
  7867                           ;SysRiego.c: 899: PORTBbits.RB0 = 0;
  7868                           
  7869                           ;incstack = 0
  7870  002854  9081               	bcf	3969,0,c	;volatile
  7871                           
  7872                           ;SysRiego.c: 900: PORTBbits.RB1 = 0;
  7873  002856  9281               	bcf	3969,1,c	;volatile
  7874                           
  7875                           ;SysRiego.c: 901: PORTBbits.RB2 = 0;
  7876  002858  9481               	bcf	3969,2,c	;volatile
  7877                           
  7878                           ;SysRiego.c: 902: PORTBbits.RB3 = 0;
  7879  00285A  9681               	bcf	3969,3,c	;volatile
  7880  00285C  0012               	return		;funcret
  7881  00285E                     __end_ofi2_groundAllRows:
  7882                           	opt stack 0
  7883                           pclatu	equ	0xFFB
  7884                           pclath	equ	0xFFA
  7885                           tblptru	equ	0xFF8
  7886                           tblptrh	equ	0xFF7
  7887                           tblptrl	equ	0xFF6
  7888                           tablat	equ	0xFF5
  7889                           prodh	equ	0xFF4
  7890                           prodl	equ	0xFF3
  7891                           intcon	equ	0xFF2
  7892                           intcon2	equ	0xFF1
  7893                           indf0	equ	0xFEF
  7894                           postinc0	equ	0xFEE
  7895                           fsr0h	equ	0xFEA
  7896                           fsr0l	equ	0xFE9
  7897                           wreg	equ	0xFE8
  7898                           indf1	equ	0xFE7
  7899                           postdec1	equ	0xFE5
  7900                           fsr1h	equ	0xFE2
  7901                           fsr1l	equ	0xFE1
  7902                           bsr	equ	0xFE0
  7903                           indf2	equ	0xFDF
  7904                           postinc2	equ	0xFDE
  7905                           postdec2	equ	0xFDD
  7906                           fsr2h	equ	0xFDA
  7907                           fsr2l	equ	0xFD9
  7908                           status	equ	0xFD8
  7909                           
  7910 ;; *************** function _resetOneShot *****************
  7911 ;; Defined at:
  7912 ;;		line 925 in file "SysRiego.c"
  7913 ;; Parameters:    Size  Location     Type
  7914 ;;		None
  7915 ;; Auto vars:     Size  Location     Type
  7916 ;;		None
  7917 ;; Return value:  Size  Location     Type
  7918 ;;                  1    wreg      void 
  7919 ;; Registers used:
  7920 ;;		wreg, status,2, status,0, cstack
  7921 ;; Tracked objects:
  7922 ;;		On entry : 0/0
  7923 ;;		On exit  : 0/0
  7924 ;;		Unchanged: 0/0
  7925 ;; Data sizes:     COMRAM   BANK0   BANK1   BANK2   BANK3   BANK4   BANK5   BANK6   BANK7   BANK8   BANK9  BANK10  BANK1
      +1  BANK12
  7926 ;;      Params:         0       0       0       0       0       0       0       0       0       0       0       0       
      +0       0
  7927 ;;      Locals:         0       0       0       0       0       0       0       0       0       0       0       0       
      +0       0
  7928 ;;      Temps:          0       0       0       0       0       0       0       0       0       0       0       0       
      +0       0
  7929 ;;      Totals:         0       0       0       0       0       0       0       0       0       0       0       0       
      +0       0
  7930 ;;Total ram usage:        0 bytes
  7931 ;; Hardware stack levels used:    1
  7932 ;; Hardware stack levels required when called:    1
  7933 ;; This function calls:
  7934 ;;		i2_delay
  7935 ;; This function is called by:
  7936 ;;		_ISRH
  7937 ;; This function uses a non-reentrant model
  7938 ;;
  7939                           
  7940                           	psect	text47
  7941  0026C0                     __ptext47:
  7942                           	opt stack 0
  7943  0026C0                     _resetOneShot:
  7944                           	opt stack 21
  7945                           
  7946                           ;SysRiego.c: 926: if (PORTB == 0xF0)
  7947                           
  7948                           ;incstack = 0
  7949  0026C0  0EF0               	movlw	240
  7950  0026C2  1881               	xorwf	3969,w,c	;volatile
  7951  0026C4  A4D8               	btfss	status,2,c
  7952  0026C6  0012               	return	
  7953                           
  7954                           ;SysRiego.c: 927: delay();
  7955  0026C8  EC7C  F013         	call	i2_delay	;wreg free
  7956                           
  7957                           ;SysRiego.c: 930: if (PORTB == 0XF0){
  7958                           
  7959                           ;SysRiego.c: 928: else
  7960                           ;SysRiego.c: 929: return;
  7961  0026CC  0EF0               	movlw	240
  7962  0026CE  1881               	xorwf	3969,w,c	;volatile
  7963  0026D0  A4D8               	btfss	status,2,c
  7964  0026D2  0012               	return	
  7965                           
  7966                           ;SysRiego.c: 931: INTCONbits.RBIF=0;
  7967  0026D4  90F2               	bcf	intcon,0,c	;volatile
  7968                           
  7969                           ;SysRiego.c: 932: oneShotFlag = 0;
  7970  0026D6  0E00               	movlw	0
  7971  0026D8  6E41               	movwf	_oneShotFlag,c
  7972  0026DA  0012               	return	
  7973  0026DC                     __end_of_resetOneShot:
  7974                           	opt stack 0
  7975                           pclatu	equ	0xFFB
  7976                           pclath	equ	0xFFA
  7977                           tblptru	equ	0xFF8
  7978                           tblptrh	equ	0xFF7
  7979                           tblptrl	equ	0xFF6
  7980                           tablat	equ	0xFF5
  7981                           prodh	equ	0xFF4
  7982                           prodl	equ	0xFF3
  7983                           intcon	equ	0xFF2
  7984                           intcon2	equ	0xFF1
  7985                           indf0	equ	0xFEF
  7986                           postinc0	equ	0xFEE
  7987                           fsr0h	equ	0xFEA
  7988                           fsr0l	equ	0xFE9
  7989                           wreg	equ	0xFE8
  7990                           indf1	equ	0xFE7
  7991                           postdec1	equ	0xFE5
  7992                           fsr1h	equ	0xFE2
  7993                           fsr1l	equ	0xFE1
  7994                           bsr	equ	0xFE0
  7995                           indf2	equ	0xFDF
  7996                           postinc2	equ	0xFDE
  7997                           postdec2	equ	0xFDD
  7998                           fsr2h	equ	0xFDA
  7999                           fsr2l	equ	0xFD9
  8000                           status	equ	0xFD8
  8001                           
  8002 ;; *************** function _oneShot *****************
  8003 ;; Defined at:
  8004 ;;		line 905 in file "SysRiego.c"
  8005 ;; Parameters:    Size  Location     Type
  8006 ;;		None
  8007 ;; Auto vars:     Size  Location     Type
  8008 ;;		None
  8009 ;; Return value:  Size  Location     Type
  8010 ;;                  1    wreg      void 
  8011 ;; Registers used:
  8012 ;;		wreg, fsr0l, fsr0h, status,2, status,0, tblptrl, tblptrh, tblptru, prodl, prodh, cstack
  8013 ;; Tracked objects:
  8014 ;;		On entry : 0/0
  8015 ;;		On exit  : 0/0
  8016 ;;		Unchanged: 0/0
  8017 ;; Data sizes:     COMRAM   BANK0   BANK1   BANK2   BANK3   BANK4   BANK5   BANK6   BANK7   BANK8   BANK9  BANK10  BANK1
      +1  BANK12
  8018 ;;      Params:         0       0       0       0       0       0       0       0       0       0       0       0       
      +0       0
  8019 ;;      Locals:         0       0       0       0       0       0       0       0       0       0       0       0       
      +0       0
  8020 ;;      Temps:          0       0       0       0       0       0       0       0       0       0       0       0       
      +0       0
  8021 ;;      Totals:         0       0       0       0       0       0       0       0       0       0       0       0       
      +0       0
  8022 ;;Total ram usage:        0 bytes
  8023 ;; Hardware stack levels used:    1
  8024 ;; Hardware stack levels required when called:    5
  8025 ;; This function calls:
  8026 ;;		_pressedKey
  8027 ;;		i2_delay
  8028 ;; This function is called by:
  8029 ;;		_ISRH
  8030 ;; This function uses a non-reentrant model
  8031 ;;
  8032                           
  8033                           	psect	text48
  8034  0026DC                     __ptext48:
  8035                           	opt stack 0
  8036  0026DC                     _oneShot:
  8037                           	opt stack 17
  8038                           
  8039                           ;SysRiego.c: 906: if (oneShotFlag == 1)
  8040                           
  8041                           ;incstack = 0
  8042  0026DC  0441               	decf	_oneShotFlag,w,c
  8043  0026DE  B4D8               	btfsc	status,2,c
  8044  0026E0  0012               	return	
  8045                           
  8046                           ;SysRiego.c: 908: delay();
  8047                           
  8048                           ;SysRiego.c: 907: return;
  8049  0026E2  EC7C  F013         	call	i2_delay	;wreg free
  8050                           
  8051                           ;SysRiego.c: 909: if (PORTB != 0xF0){
  8052  0026E6  0EF0               	movlw	240
  8053  0026E8  1881               	xorwf	3969,w,c	;volatile
  8054  0026EA  B4D8               	btfsc	status,2,c
  8055  0026EC  0012               	return	
  8056                           
  8057                           ;SysRiego.c: 910: pressedKey();
  8058  0026EE  ECA6  F011         	call	_pressedKey	;wreg free
  8059                           
  8060                           ;SysRiego.c: 911: oneShotFlag = 1;
  8061  0026F2  0E01               	movlw	1
  8062  0026F4  6E41               	movwf	_oneShotFlag,c
  8063  0026F6  0012               	return	
  8064  0026F8                     __end_of_oneShot:
  8065                           	opt stack 0
  8066                           pclatu	equ	0xFFB
  8067                           pclath	equ	0xFFA
  8068                           tblptru	equ	0xFF8
  8069                           tblptrh	equ	0xFF7
  8070                           tblptrl	equ	0xFF6
  8071                           tablat	equ	0xFF5
  8072                           prodh	equ	0xFF4
  8073                           prodl	equ	0xFF3
  8074                           intcon	equ	0xFF2
  8075                           intcon2	equ	0xFF1
  8076                           indf0	equ	0xFEF
  8077                           postinc0	equ	0xFEE
  8078                           fsr0h	equ	0xFEA
  8079                           fsr0l	equ	0xFE9
  8080                           wreg	equ	0xFE8
  8081                           indf1	equ	0xFE7
  8082                           postdec1	equ	0xFE5
  8083                           fsr1h	equ	0xFE2
  8084                           fsr1l	equ	0xFE1
  8085                           bsr	equ	0xFE0
  8086                           indf2	equ	0xFDF
  8087                           postinc2	equ	0xFDE
  8088                           postdec2	equ	0xFDD
  8089                           fsr2h	equ	0xFDA
  8090                           fsr2l	equ	0xFD9
  8091                           status	equ	0xFD8
  8092                           
  8093 ;; *************** function i2_delay *****************
  8094 ;; Defined at:
  8095 ;;		line 916 in file "SysRiego.c"
  8096 ;; Parameters:    Size  Location     Type
  8097 ;;		None
  8098 ;; Auto vars:     Size  Location     Type
  8099 ;;  delay           1    2[COMRAM] unsigned char 
  8100 ;;  delay           1    1[COMRAM] unsigned char 
  8101 ;; Return value:  Size  Location     Type
  8102 ;;                  1    wreg      void 
  8103 ;; Registers used:
  8104 ;;		wreg, status,2, status,0
  8105 ;; Tracked objects:
  8106 ;;		On entry : 0/0
  8107 ;;		On exit  : 0/0
  8108 ;;		Unchanged: 0/0
  8109 ;; Data sizes:     COMRAM   BANK0   BANK1   BANK2   BANK3   BANK4   BANK5   BANK6   BANK7   BANK8   BANK9  BANK10  BANK1
      +1  BANK12
  8110 ;;      Params:         0       0       0       0       0       0       0       0       0       0       0       0       
      +0       0
  8111 ;;      Locals:         2       0       0       0       0       0       0       0       0       0       0       0       
      +0       0
  8112 ;;      Temps:          1       0       0       0       0       0       0       0       0       0       0       0       
      +0       0
  8113 ;;      Totals:         3       0       0       0       0       0       0       0       0       0       0       0       
      +0       0
  8114 ;;Total ram usage:        3 bytes
  8115 ;; Hardware stack levels used:    1
  8116 ;; This function calls:
  8117 ;;		Nothing
  8118 ;; This function is called by:
  8119 ;;		_oneShot
  8120 ;;		_resetOneShot
  8121 ;; This function uses a non-reentrant model
  8122 ;;
  8123                           
  8124                           	psect	text49
  8125  0026F8                     __ptext49:
  8126                           	opt stack 0
  8127  0026F8                     i2_delay:
  8128                           	opt stack 21
  8129                           
  8130                           ;SysRiego.c: 917: unsigned char L1REG = 0;
  8131                           
  8132                           ;incstack = 0
  8133  0026F8  0E00               	movlw	0
  8134  0026FA  6E02               	movwf	i2delay@L1REG,c
  8135                           
  8136                           ;SysRiego.c: 918: unsigned char L2REG;
  8137                           ;SysRiego.c: 919: while(L1REG++ < 13){
  8138  0026FC  D004               	goto	i2l3924
  8139  0026FE                     i2l3922:
  8140                           
  8141                           ;SysRiego.c: 920: L2REG = 0;
  8142  0026FE  0E00               	movlw	0
  8143  002700  6E03               	movwf	i2delay@L2REG,c
  8144  002702                     i2l450:
  8145  002702  3E03               	incfsz	i2delay@L2REG,f,c
  8146  002704  D7FE               	goto	i2l450
  8147  002706                     i2l3924:
  8148  002706  2A02               	incf	i2delay@L1REG,f,c
  8149  002708  0402               	decf	i2delay@L1REG,w,c
  8150  00270A  6E01               	movwf	??i2_delay& (0+255),c
  8151  00270C  0E0C               	movlw	12
  8152  00270E  6401               	cpfsgt	??i2_delay,c
  8153  002710  D7F6               	goto	i2l3922
  8154  002712  0012               	return	
  8155  002714                     __end_ofi2_delay:
  8156                           	opt stack 0
  8157                           pclatu	equ	0xFFB
  8158                           pclath	equ	0xFFA
  8159                           tblptru	equ	0xFF8
  8160                           tblptrh	equ	0xFF7
  8161                           tblptrl	equ	0xFF6
  8162                           tablat	equ	0xFF5
  8163                           prodh	equ	0xFF4
  8164                           prodl	equ	0xFF3
  8165                           intcon	equ	0xFF2
  8166                           intcon2	equ	0xFF1
  8167                           indf0	equ	0xFEF
  8168                           postinc0	equ	0xFEE
  8169                           fsr0h	equ	0xFEA
  8170                           fsr0l	equ	0xFE9
  8171                           wreg	equ	0xFE8
  8172                           indf1	equ	0xFE7
  8173                           postdec1	equ	0xFE5
  8174                           fsr1h	equ	0xFE2
  8175                           fsr1l	equ	0xFE1
  8176                           bsr	equ	0xFE0
  8177                           indf2	equ	0xFDF
  8178                           postinc2	equ	0xFDE
  8179                           postdec2	equ	0xFDD
  8180                           fsr2h	equ	0xFDA
  8181                           fsr2l	equ	0xFD9
  8182                           status	equ	0xFD8
  8183                           
  8184 ;; *************** function _pressedKey *****************
  8185 ;; Defined at:
  8186 ;;		line 936 in file "SysRiego.c"
  8187 ;; Parameters:    Size  Location     Type
  8188 ;;		None
  8189 ;; Auto vars:     Size  Location     Type
  8190 ;;		None
  8191 ;; Return value:  Size  Location     Type
  8192 ;;                  1    wreg      void 
  8193 ;; Registers used:
  8194 ;;		wreg, fsr0l, fsr0h, status,2, status,0, tblptrl, tblptrh, tblptru, prodl, prodh, cstack
  8195 ;; Tracked objects:
  8196 ;;		On entry : 0/0
  8197 ;;		On exit  : 0/0
  8198 ;;		Unchanged: 0/0
  8199 ;; Data sizes:     COMRAM   BANK0   BANK1   BANK2   BANK3   BANK4   BANK5   BANK6   BANK7   BANK8   BANK9  BANK10  BANK1
      +1  BANK12
  8200 ;;      Params:         0       0       0       0       0       0       0       0       0       0       0       0       
      +0       0
  8201 ;;      Locals:         0       0       0       0       0       0       0       0       0       0       0       0       
      +0       0
  8202 ;;      Temps:          0       0       0       0       0       0       0       0       0       0       0       0       
      +0       0
  8203 ;;      Totals:         0       0       0       0       0       0       0       0       0       0       0       0       
      +0       0
  8204 ;;Total ram usage:        0 bytes
  8205 ;; Hardware stack levels used:    1
  8206 ;; Hardware stack levels required when called:    4
  8207 ;; This function calls:
  8208 ;;		_pressedKeyAction
  8209 ;;		i2_determinePressedRow
  8210 ;;		i2_getKeyCode
  8211 ;; This function is called by:
  8212 ;;		_oneShot
  8213 ;; This function uses a non-reentrant model
  8214 ;;
  8215                           
  8216                           	psect	text50
  8217  00234C                     __ptext50:
  8218                           	opt stack 0
  8219  00234C                     _pressedKey:
  8220                           	opt stack 17
  8221                           
  8222                           ;SysRiego.c: 938: switch(PORTB){
  8223                           
  8224                           ;incstack = 0
  8225  00234C  D00B               	goto	i2l3840
  8226  00234E                     i2l3830:
  8227  00234E  0E01               	movlw	1
  8228  002350  D007               	goto	L11
  8229  002352                     i2l3832:
  8230  002352  0E02               	movlw	2
  8231  002354  D005               	goto	L11
  8232  002356                     i2l3834:
  8233  002356  0E03               	movlw	3
  8234  002358  D003               	goto	L11
  8235  00235A                     i2l3836:
  8236  00235A  0E04               	movlw	4
  8237  00235C  D001               	goto	L11
  8238  00235E                     i2l3838:
  8239  00235E  0E64               	movlw	100
  8240  002360                     L11:
  8241  002360  6E3C               	movwf	_columnSelected,c
  8242                           
  8243                           ;SysRiego.c: 944: }
  8244  002362  D00E               	goto	i2l3842
  8245  002364                     i2l3840:
  8246  002364  5081               	movf	3969,w,c	;volatile
  8247                           
  8248                           ; Switch size 1, requested type "space"
  8249                           ; Number of cases is 4, Range of values is 112 to 224
  8250                           ; switch strategies available:
  8251                           ; Name         Instructions Cycles
  8252                           ; simple_byte           13     7 (average)
  8253                           ;	Chosen strategy is simple_byte
  8254  002366  0A70               	xorlw	112	; case 112
  8255  002368  B4D8               	btfsc	status,2,c
  8256  00236A  D7F7               	goto	i2l3836
  8257  00236C  0AC0               	xorlw	192	; case 176
  8258  00236E  B4D8               	btfsc	status,2,c
  8259  002370  D7F2               	goto	i2l3834
  8260  002372  0A60               	xorlw	96	; case 208
  8261  002374  B4D8               	btfsc	status,2,c
  8262  002376  D7ED               	goto	i2l3832
  8263  002378  0A30               	xorlw	48	; case 224
  8264  00237A  B4D8               	btfsc	status,2,c
  8265  00237C  D7E8               	goto	i2l3830
  8266  00237E  D7EF               	goto	i2l3838
  8267  002380                     i2l3842:
  8268                           
  8269                           ;SysRiego.c: 945: determinePressedRow();
  8270  002380  ECE3  F00B         	call	i2_determinePressedRow	;wreg free
  8271                           
  8272                           ;SysRiego.c: 946: keyCode = getKeyCode();
  8273  002384  EC36  F00F         	call	i2_getKeyCode	;wreg free
  8274  002388  6E40               	movwf	_keyCode,c
  8275                           
  8276                           ;SysRiego.c: 947: pressedKeyAction(keyCode);
  8277  00238A  5040               	movf	_keyCode,w,c
  8278  00238C  EC16  F009         	call	_pressedKeyAction
  8279  002390  0012               	return		;funcret
  8280  002392                     __end_of_pressedKey:
  8281                           	opt stack 0
  8282                           pclatu	equ	0xFFB
  8283                           pclath	equ	0xFFA
  8284                           tblptru	equ	0xFF8
  8285                           tblptrh	equ	0xFF7
  8286                           tblptrl	equ	0xFF6
  8287                           tablat	equ	0xFF5
  8288                           prodh	equ	0xFF4
  8289                           prodl	equ	0xFF3
  8290                           intcon	equ	0xFF2
  8291                           intcon2	equ	0xFF1
  8292                           indf0	equ	0xFEF
  8293                           postinc0	equ	0xFEE
  8294                           fsr0h	equ	0xFEA
  8295                           fsr0l	equ	0xFE9
  8296                           wreg	equ	0xFE8
  8297                           indf1	equ	0xFE7
  8298                           postdec1	equ	0xFE5
  8299                           fsr1h	equ	0xFE2
  8300                           fsr1l	equ	0xFE1
  8301                           bsr	equ	0xFE0
  8302                           indf2	equ	0xFDF
  8303                           postinc2	equ	0xFDE
  8304                           postdec2	equ	0xFDD
  8305                           fsr2h	equ	0xFDA
  8306                           fsr2l	equ	0xFD9
  8307                           status	equ	0xFD8
  8308                           
  8309 ;; *************** function i2_getKeyCode *****************
  8310 ;; Defined at:
  8311 ;;		line 1040 in file "SysRiego.c"
  8312 ;; Parameters:    Size  Location     Type
  8313 ;;		None
  8314 ;; Auto vars:     Size  Location     Type
  8315 ;;		None
  8316 ;; Return value:  Size  Location     Type
  8317 ;;                  1    wreg      unsigned char 
  8318 ;; Registers used:
  8319 ;;		wreg, status,2, status,0
  8320 ;; Tracked objects:
  8321 ;;		On entry : 0/0
  8322 ;;		On exit  : 0/0
  8323 ;;		Unchanged: 0/0
  8324 ;; Data sizes:     COMRAM   BANK0   BANK1   BANK2   BANK3   BANK4   BANK5   BANK6   BANK7   BANK8   BANK9  BANK10  BANK1
      +1  BANK12
  8325 ;;      Params:         0       0       0       0       0       0       0       0       0       0       0       0       
      +0       0
  8326 ;;      Locals:         0       0       0       0       0       0       0       0       0       0       0       0       
      +0       0
  8327 ;;      Temps:          0       0       0       0       0       0       0       0       0       0       0       0       
      +0       0
  8328 ;;      Totals:         0       0       0       0       0       0       0       0       0       0       0       0       
      +0       0
  8329 ;;Total ram usage:        0 bytes
  8330 ;; Hardware stack levels used:    1
  8331 ;; This function calls:
  8332 ;;		Nothing
  8333 ;; This function is called by:
  8334 ;;		_pressedKey
  8335 ;; This function uses a non-reentrant model
  8336 ;;
  8337                           
  8338                           	psect	text51
  8339  001E6C                     __ptext51:
  8340                           	opt stack 0
  8341  001E6C                     i2_getKeyCode:
  8342                           	opt stack 20
  8343                           
  8344                           ;SysRiego.c: 1041: if(rowSelected == 1){
  8345                           
  8346                           ;incstack = 0
  8347  001E6C  0442               	decf	_rowSelected,w,c
  8348  001E6E  B4D8               	btfsc	status,2,c
  8349  001E70  D009               	goto	i2l3580
  8350  001E72  D016               	goto	i2l3582
  8351  001E74                     i2l3562:
  8352  001E74  0E31               	movlw	49
  8353  001E76  0012               	return	
  8354  001E78                     i2l3566:
  8355  001E78  0E32               	movlw	50
  8356  001E7A  0012               	return	
  8357  001E7C                     i2l3570:
  8358  001E7C  0E33               	movlw	51
  8359  001E7E  0012               	return	
  8360  001E80                     i2l3574:
  8361  001E80  0E41               	movlw	65
  8362  001E82  0012               	return	
  8363  001E84                     i2l3580:
  8364  001E84  503C               	movf	_columnSelected,w,c
  8365                           
  8366                           ; Switch size 1, requested type "space"
  8367                           ; Number of cases is 4, Range of values is 1 to 4
  8368                           ; switch strategies available:
  8369                           ; Name         Instructions Cycles
  8370                           ; simple_byte           13     7 (average)
  8371                           ;	Chosen strategy is simple_byte
  8372  001E86  0A01               	xorlw	1	; case 1
  8373  001E88  B4D8               	btfsc	status,2,c
  8374  001E8A  D7F4               	goto	i2l3562
  8375  001E8C  0A03               	xorlw	3	; case 2
  8376  001E8E  B4D8               	btfsc	status,2,c
  8377  001E90  D7F3               	goto	i2l3566
  8378  001E92  0A01               	xorlw	1	; case 3
  8379  001E94  B4D8               	btfsc	status,2,c
  8380  001E96  D7F2               	goto	i2l3570
  8381  001E98  0A07               	xorlw	7	; case 4
  8382  001E9A  B4D8               	btfsc	status,2,c
  8383  001E9C  D7F1               	goto	i2l3574
  8384                           
  8385                           ;SysRiego.c: 1048: }
  8386  001E9E  D050               	goto	i2l3654
  8387  001EA0                     i2l3582:
  8388                           
  8389                           ;SysRiego.c: 1049: else if(rowSelected == 2){
  8390  001EA0  0E02               	movlw	2
  8391  001EA2  1842               	xorwf	_rowSelected,w,c
  8392  001EA4  B4D8               	btfsc	status,2,c
  8393  001EA6  D009               	goto	i2l3604
  8394  001EA8  D016               	goto	i2l3606
  8395  001EAA                     i2l3586:
  8396  001EAA  0E34               	movlw	52
  8397  001EAC  0012               	return	
  8398  001EAE                     i2l3590:
  8399  001EAE  0E35               	movlw	53
  8400  001EB0  0012               	return	
  8401  001EB2                     i2l3594:
  8402  001EB2  0E36               	movlw	54
  8403  001EB4  0012               	return	
  8404  001EB6                     i2l3598:
  8405  001EB6  0E42               	movlw	66
  8406  001EB8  0012               	return	
  8407  001EBA                     i2l3604:
  8408  001EBA  503C               	movf	_columnSelected,w,c
  8409                           
  8410                           ; Switch size 1, requested type "space"
  8411                           ; Number of cases is 4, Range of values is 1 to 4
  8412                           ; switch strategies available:
  8413                           ; Name         Instructions Cycles
  8414                           ; simple_byte           13     7 (average)
  8415                           ;	Chosen strategy is simple_byte
  8416  001EBC  0A01               	xorlw	1	; case 1
  8417  001EBE  B4D8               	btfsc	status,2,c
  8418  001EC0  D7F4               	goto	i2l3586
  8419  001EC2  0A03               	xorlw	3	; case 2
  8420  001EC4  B4D8               	btfsc	status,2,c
  8421  001EC6  D7F3               	goto	i2l3590
  8422  001EC8  0A01               	xorlw	1	; case 3
  8423  001ECA  B4D8               	btfsc	status,2,c
  8424  001ECC  D7F2               	goto	i2l3594
  8425  001ECE  0A07               	xorlw	7	; case 4
  8426  001ED0  B4D8               	btfsc	status,2,c
  8427  001ED2  D7F1               	goto	i2l3598
  8428                           
  8429                           ;SysRiego.c: 1056: }
  8430  001ED4  D035               	goto	i2l3654
  8431  001ED6                     i2l3606:
  8432                           
  8433                           ;SysRiego.c: 1057: else if(rowSelected == 3){
  8434  001ED6  0E03               	movlw	3
  8435  001ED8  1842               	xorwf	_rowSelected,w,c
  8436  001EDA  B4D8               	btfsc	status,2,c
  8437  001EDC  D009               	goto	i2l3628
  8438  001EDE  D016               	goto	i2l3630
  8439  001EE0                     i2l3610:
  8440  001EE0  0E37               	movlw	55
  8441  001EE2  0012               	return	
  8442  001EE4                     i2l3614:
  8443  001EE4  0E38               	movlw	56
  8444  001EE6  0012               	return	
  8445  001EE8                     i2l3618:
  8446  001EE8  0E39               	movlw	57
  8447  001EEA  0012               	return	
  8448  001EEC                     i2l3622:
  8449  001EEC  0E43               	movlw	67
  8450  001EEE  0012               	return	
  8451  001EF0                     i2l3628:
  8452  001EF0  503C               	movf	_columnSelected,w,c
  8453                           
  8454                           ; Switch size 1, requested type "space"
  8455                           ; Number of cases is 4, Range of values is 1 to 4
  8456                           ; switch strategies available:
  8457                           ; Name         Instructions Cycles
  8458                           ; simple_byte           13     7 (average)
  8459                           ;	Chosen strategy is simple_byte
  8460  001EF2  0A01               	xorlw	1	; case 1
  8461  001EF4  B4D8               	btfsc	status,2,c
  8462  001EF6  D7F4               	goto	i2l3610
  8463  001EF8  0A03               	xorlw	3	; case 2
  8464  001EFA  B4D8               	btfsc	status,2,c
  8465  001EFC  D7F3               	goto	i2l3614
  8466  001EFE  0A01               	xorlw	1	; case 3
  8467  001F00  B4D8               	btfsc	status,2,c
  8468  001F02  D7F2               	goto	i2l3618
  8469  001F04  0A07               	xorlw	7	; case 4
  8470  001F06  B4D8               	btfsc	status,2,c
  8471  001F08  D7F1               	goto	i2l3622
  8472                           
  8473                           ;SysRiego.c: 1064: }
  8474  001F0A  D01A               	goto	i2l3654
  8475  001F0C                     i2l3630:
  8476                           
  8477                           ;SysRiego.c: 1065: else if(rowSelected == 4){
  8478  001F0C  0E04               	movlw	4
  8479  001F0E  1842               	xorwf	_rowSelected,w,c
  8480  001F10  B4D8               	btfsc	status,2,c
  8481  001F12  D009               	goto	i2l3652
  8482  001F14  D015               	goto	i2l3654
  8483  001F16                     i2l3634:
  8484  001F16  0E2A               	movlw	42
  8485  001F18  0012               	return	
  8486  001F1A                     i2l3638:
  8487  001F1A  0E30               	movlw	48
  8488  001F1C  0012               	return	
  8489  001F1E                     i2l3642:
  8490  001F1E  0E23               	movlw	35
  8491  001F20  0012               	return	
  8492  001F22                     i2l3646:
  8493  001F22  0E44               	movlw	68
  8494  001F24  0012               	return	
  8495  001F26                     i2l3652:
  8496  001F26  503C               	movf	_columnSelected,w,c
  8497                           
  8498                           ; Switch size 1, requested type "space"
  8499                           ; Number of cases is 4, Range of values is 1 to 4
  8500                           ; switch strategies available:
  8501                           ; Name         Instructions Cycles
  8502                           ; simple_byte           13     7 (average)
  8503                           ;	Chosen strategy is simple_byte
  8504  001F28  0A01               	xorlw	1	; case 1
  8505  001F2A  B4D8               	btfsc	status,2,c
  8506  001F2C  D7F4               	goto	i2l3634
  8507  001F2E  0A03               	xorlw	3	; case 2
  8508  001F30  B4D8               	btfsc	status,2,c
  8509  001F32  D7F3               	goto	i2l3638
  8510  001F34  0A01               	xorlw	1	; case 3
  8511  001F36  B4D8               	btfsc	status,2,c
  8512  001F38  D7F2               	goto	i2l3642
  8513  001F3A  0A07               	xorlw	7	; case 4
  8514  001F3C  B4D8               	btfsc	status,2,c
  8515  001F3E  D7F1               	goto	i2l3646
  8516  001F40                     i2l3654:
  8517                           
  8518                           ;SysRiego.c: 1072: }
  8519                           ;SysRiego.c: 1073: return -1;
  8520  001F40  0EFF               	movlw	255
  8521  001F42  0012               	return	
  8522  001F44                     __end_ofi2_getKeyCode:
  8523                           	opt stack 0
  8524                           pclatu	equ	0xFFB
  8525                           pclath	equ	0xFFA
  8526                           tblptru	equ	0xFF8
  8527                           tblptrh	equ	0xFF7
  8528                           tblptrl	equ	0xFF6
  8529                           tablat	equ	0xFF5
  8530                           prodh	equ	0xFF4
  8531                           prodl	equ	0xFF3
  8532                           intcon	equ	0xFF2
  8533                           intcon2	equ	0xFF1
  8534                           indf0	equ	0xFEF
  8535                           postinc0	equ	0xFEE
  8536                           fsr0h	equ	0xFEA
  8537                           fsr0l	equ	0xFE9
  8538                           wreg	equ	0xFE8
  8539                           indf1	equ	0xFE7
  8540                           postdec1	equ	0xFE5
  8541                           fsr1h	equ	0xFE2
  8542                           fsr1l	equ	0xFE1
  8543                           bsr	equ	0xFE0
  8544                           indf2	equ	0xFDF
  8545                           postinc2	equ	0xFDE
  8546                           postdec2	equ	0xFDD
  8547                           fsr2h	equ	0xFDA
  8548                           fsr2l	equ	0xFD9
  8549                           status	equ	0xFD8
  8550                           
  8551 ;; *************** function i2_determinePressedRow *****************
  8552 ;; Defined at:
  8553 ;;		line 951 in file "SysRiego.c"
  8554 ;; Parameters:    Size  Location     Type
  8555 ;;		None
  8556 ;; Auto vars:     Size  Location     Type
  8557 ;;  determinePre    1    0[COMRAM] unsigned char 
  8558 ;; Return value:  Size  Location     Type
  8559 ;;                  1    wreg      void 
  8560 ;; Registers used:
  8561 ;;		wreg, status,2, status,0, cstack
  8562 ;; Tracked objects:
  8563 ;;		On entry : 0/0
  8564 ;;		On exit  : 0/0
  8565 ;;		Unchanged: 0/0
  8566 ;; Data sizes:     COMRAM   BANK0   BANK1   BANK2   BANK3   BANK4   BANK5   BANK6   BANK7   BANK8   BANK9  BANK10  BANK1
      +1  BANK12
  8567 ;;      Params:         0       0       0       0       0       0       0       0       0       0       0       0       
      +0       0
  8568 ;;      Locals:         1       0       0       0       0       0       0       0       0       0       0       0       
      +0       0
  8569 ;;      Temps:          0       0       0       0       0       0       0       0       0       0       0       0       
      +0       0
  8570 ;;      Totals:         1       0       0       0       0       0       0       0       0       0       0       0       
      +0       0
  8571 ;;Total ram usage:        1 bytes
  8572 ;; Hardware stack levels used:    1
  8573 ;; Hardware stack levels required when called:    1
  8574 ;; This function calls:
  8575 ;;		i2_turnOnAllRows
  8576 ;; This function is called by:
  8577 ;;		_pressedKey
  8578 ;; This function uses a non-reentrant model
  8579 ;;
  8580                           
  8581                           	psect	text52
  8582  0017C6                     __ptext52:
  8583                           	opt stack 0
  8584  0017C6                     i2_determinePressedRow:
  8585                           	opt stack 19
  8586                           
  8587                           ;SysRiego.c: 952: char i;
  8588                           ;SysRiego.c: 953: for(i=0; i<4; i++){
  8589                           
  8590                           ;incstack = 0
  8591  0017C6  0E00               	movlw	0
  8592  0017C8  6E01               	movwf	i2determinePressedRow@i,c
  8593  0017CA                     i2l3416:
  8594  0017CA  0E03               	movlw	3
  8595  0017CC  6401               	cpfsgt	i2determinePressedRow@i,c
  8596  0017CE  D001               	goto	i2l3420
  8597  0017D0  0012               	return	
  8598  0017D2                     i2l3420:
  8599                           
  8600                           ;SysRiego.c: 954: turnOnAllRows();
  8601  0017D2  EC2F  F014         	call	i2_turnOnAllRows	;wreg free
  8602                           
  8603                           ;SysRiego.c: 955: switch(i){
  8604  0017D6  D07D               	goto	i2l3552
  8605  0017D8                     i2l476:
  8606                           
  8607                           ;SysRiego.c: 958: PORTBbits.RB0 = 0;
  8608  0017D8  9081               	bcf	3969,0,c	;volatile
  8609                           
  8610                           ;SysRiego.c: 960: if( (columnSelected == 1) && (PORTBbits.RB4 == 0)){
  8611  0017DA  043C               	decf	_columnSelected,w,c
  8612  0017DC  B4D8               	btfsc	status,2,c
  8613  0017DE  B881               	btfsc	3969,4,c	;volatile
  8614  0017E0  D003               	goto	i2l3430
  8615                           
  8616                           ;SysRiego.c: 961: rowSelected = 1;
  8617  0017E2  0E01               	movlw	1
  8618  0017E4  6E42               	movwf	_rowSelected,c
  8619                           
  8620                           ;SysRiego.c: 962: return;
  8621  0017E6  0012               	return	
  8622  0017E8                     i2l3430:
  8623                           
  8624                           ;SysRiego.c: 963: }
  8625                           ;SysRiego.c: 964: if( (columnSelected == 2) && (PORTBbits.RB5 == 0)){
  8626  0017E8  0E02               	movlw	2
  8627  0017EA  183C               	xorwf	_columnSelected,w,c
  8628  0017EC  B4D8               	btfsc	status,2,c
  8629  0017EE  BA81               	btfsc	3969,5,c	;volatile
  8630  0017F0  D003               	goto	i2l3438
  8631                           
  8632                           ;SysRiego.c: 965: rowSelected = 1;
  8633  0017F2  0E01               	movlw	1
  8634  0017F4  6E42               	movwf	_rowSelected,c
  8635                           
  8636                           ;SysRiego.c: 966: return;
  8637  0017F6  0012               	return	
  8638  0017F8                     i2l3438:
  8639                           
  8640                           ;SysRiego.c: 967: }
  8641                           ;SysRiego.c: 968: if( (columnSelected == 3) && (PORTBbits.RB6 == 0)){
  8642  0017F8  0E03               	movlw	3
  8643  0017FA  183C               	xorwf	_columnSelected,w,c
  8644  0017FC  B4D8               	btfsc	status,2,c
  8645  0017FE  BC81               	btfsc	3969,6,c	;volatile
  8646  001800  D003               	goto	i2l3446
  8647                           
  8648                           ;SysRiego.c: 969: rowSelected = 1;
  8649  001802  0E01               	movlw	1
  8650  001804  6E42               	movwf	_rowSelected,c
  8651                           
  8652                           ;SysRiego.c: 970: return;
  8653  001806  0012               	return	
  8654  001808                     i2l3446:
  8655                           
  8656                           ;SysRiego.c: 971: }
  8657                           ;SysRiego.c: 972: if( (columnSelected == 4) && (PORTBbits.RB7 == 0)){
  8658  001808  0E04               	movlw	4
  8659  00180A  183C               	xorwf	_columnSelected,w,c
  8660  00180C  B4D8               	btfsc	status,2,c
  8661  00180E  BE81               	btfsc	3969,7,c	;volatile
  8662  001810  D06D               	goto	i2l3554
  8663                           
  8664                           ;SysRiego.c: 973: rowSelected = 1;
  8665  001812  0E01               	movlw	1
  8666  001814                     L12:
  8667  001814  6E42               	movwf	_rowSelected,c
  8668                           
  8669                           ;SysRiego.c: 974: return;
  8670  001816  0012               	return	
  8671  001818                     i2l483:
  8672                           
  8673                           ;SysRiego.c: 978: PORTBbits.RB1 = 0;
  8674  001818  9281               	bcf	3969,1,c	;volatile
  8675                           
  8676                           ;SysRiego.c: 979: if( (columnSelected == 1) && (PORTBbits.RB4 == 0)){
  8677  00181A  043C               	decf	_columnSelected,w,c
  8678  00181C  B4D8               	btfsc	status,2,c
  8679  00181E  B881               	btfsc	3969,4,c	;volatile
  8680  001820  D003               	goto	i2l3462
  8681                           
  8682                           ;SysRiego.c: 980: rowSelected = 2;
  8683  001822  0E02               	movlw	2
  8684  001824  6E42               	movwf	_rowSelected,c
  8685                           
  8686                           ;SysRiego.c: 981: return;
  8687  001826  0012               	return	
  8688  001828                     i2l3462:
  8689                           
  8690                           ;SysRiego.c: 982: }
  8691                           ;SysRiego.c: 983: if( (columnSelected == 2) && (PORTBbits.RB5 == 0)){
  8692  001828  0E02               	movlw	2
  8693  00182A  183C               	xorwf	_columnSelected,w,c
  8694  00182C  B4D8               	btfsc	status,2,c
  8695  00182E  BA81               	btfsc	3969,5,c	;volatile
  8696  001830  D003               	goto	i2l3470
  8697                           
  8698                           ;SysRiego.c: 984: rowSelected = 2;
  8699  001832  0E02               	movlw	2
  8700  001834  6E42               	movwf	_rowSelected,c
  8701                           
  8702                           ;SysRiego.c: 985: return;
  8703  001836  0012               	return	
  8704  001838                     i2l3470:
  8705                           
  8706                           ;SysRiego.c: 986: }
  8707                           ;SysRiego.c: 987: if( (columnSelected == 3) && (PORTBbits.RB6 == 0)){
  8708  001838  0E03               	movlw	3
  8709  00183A  183C               	xorwf	_columnSelected,w,c
  8710  00183C  B4D8               	btfsc	status,2,c
  8711  00183E  BC81               	btfsc	3969,6,c	;volatile
  8712  001840  D003               	goto	i2l3478
  8713                           
  8714                           ;SysRiego.c: 988: rowSelected = 2;
  8715  001842  0E02               	movlw	2
  8716  001844  6E42               	movwf	_rowSelected,c
  8717                           
  8718                           ;SysRiego.c: 989: return;
  8719  001846  0012               	return	
  8720  001848                     i2l3478:
  8721                           
  8722                           ;SysRiego.c: 990: }
  8723                           ;SysRiego.c: 991: if( (columnSelected == 4) && (PORTBbits.RB7 == 0)){
  8724  001848  0E04               	movlw	4
  8725  00184A  183C               	xorwf	_columnSelected,w,c
  8726  00184C  B4D8               	btfsc	status,2,c
  8727  00184E  BE81               	btfsc	3969,7,c	;volatile
  8728  001850  D04D               	goto	i2l3554
  8729                           
  8730                           ;SysRiego.c: 992: rowSelected = 2;
  8731  001852  0E02               	movlw	2
  8732  001854  D7DF               	goto	L12
  8733  001856                     i2l488:
  8734                           
  8735                           ;SysRiego.c: 997: PORTBbits.RB2 = 0;
  8736  001856  9481               	bcf	3969,2,c	;volatile
  8737                           
  8738                           ;SysRiego.c: 998: if( (columnSelected == 1) && (PORTBbits.RB4 == 0)){
  8739  001858  043C               	decf	_columnSelected,w,c
  8740  00185A  B4D8               	btfsc	status,2,c
  8741  00185C  B881               	btfsc	3969,4,c	;volatile
  8742  00185E  D003               	goto	i2l3494
  8743                           
  8744                           ;SysRiego.c: 999: rowSelected = 3;
  8745  001860  0E03               	movlw	3
  8746  001862  6E42               	movwf	_rowSelected,c
  8747                           
  8748                           ;SysRiego.c: 1000: return;
  8749  001864  0012               	return	
  8750  001866                     i2l3494:
  8751                           
  8752                           ;SysRiego.c: 1001: }
  8753                           ;SysRiego.c: 1002: if( (columnSelected == 2) && (PORTBbits.RB5 == 0)){
  8754  001866  0E02               	movlw	2
  8755  001868  183C               	xorwf	_columnSelected,w,c
  8756  00186A  B4D8               	btfsc	status,2,c
  8757  00186C  BA81               	btfsc	3969,5,c	;volatile
  8758  00186E  D003               	goto	i2l3502
  8759                           
  8760                           ;SysRiego.c: 1003: rowSelected = 3;
  8761  001870  0E03               	movlw	3
  8762  001872  6E42               	movwf	_rowSelected,c
  8763                           
  8764                           ;SysRiego.c: 1004: return;
  8765  001874  0012               	return	
  8766  001876                     i2l3502:
  8767                           
  8768                           ;SysRiego.c: 1005: }
  8769                           ;SysRiego.c: 1006: if( (columnSelected == 3) && (PORTBbits.RB6 == 0)){
  8770  001876  0E03               	movlw	3
  8771  001878  183C               	xorwf	_columnSelected,w,c
  8772  00187A  B4D8               	btfsc	status,2,c
  8773  00187C  BC81               	btfsc	3969,6,c	;volatile
  8774  00187E  D003               	goto	i2l3510
  8775                           
  8776                           ;SysRiego.c: 1007: rowSelected = 3;
  8777  001880  0E03               	movlw	3
  8778  001882  6E42               	movwf	_rowSelected,c
  8779                           
  8780                           ;SysRiego.c: 1008: return;
  8781  001884  0012               	return	
  8782  001886                     i2l3510:
  8783                           
  8784                           ;SysRiego.c: 1009: }
  8785                           ;SysRiego.c: 1010: if( (columnSelected == 4) && (PORTBbits.RB7 == 0)){
  8786  001886  0E04               	movlw	4
  8787  001888  183C               	xorwf	_columnSelected,w,c
  8788  00188A  B4D8               	btfsc	status,2,c
  8789  00188C  BE81               	btfsc	3969,7,c	;volatile
  8790  00188E  D02E               	goto	i2l3554
  8791                           
  8792                           ;SysRiego.c: 1011: rowSelected = 3;
  8793  001890  0E03               	movlw	3
  8794  001892  D7C0               	goto	L12
  8795  001894                     i2l493:
  8796                           
  8797                           ;SysRiego.c: 1017: PORTBbits.RB3 = 0;
  8798  001894  9681               	bcf	3969,3,c	;volatile
  8799                           
  8800                           ;SysRiego.c: 1018: if( (columnSelected == 1) && (PORTBbits.RB4 == 0)){
  8801  001896  043C               	decf	_columnSelected,w,c
  8802  001898  B4D8               	btfsc	status,2,c
  8803  00189A  B881               	btfsc	3969,4,c	;volatile
  8804  00189C  D003               	goto	i2l3526
  8805                           
  8806                           ;SysRiego.c: 1019: rowSelected = 4;
  8807  00189E  0E04               	movlw	4
  8808  0018A0  6E42               	movwf	_rowSelected,c
  8809                           
  8810                           ;SysRiego.c: 1020: return;
  8811  0018A2  0012               	return	
  8812  0018A4                     i2l3526:
  8813                           
  8814                           ;SysRiego.c: 1021: }
  8815                           ;SysRiego.c: 1022: if( (columnSelected == 2) && (PORTBbits.RB5 == 0)){
  8816  0018A4  0E02               	movlw	2
  8817  0018A6  183C               	xorwf	_columnSelected,w,c
  8818  0018A8  B4D8               	btfsc	status,2,c
  8819  0018AA  BA81               	btfsc	3969,5,c	;volatile
  8820  0018AC  D003               	goto	i2l3534
  8821                           
  8822                           ;SysRiego.c: 1023: rowSelected = 4;
  8823  0018AE  0E04               	movlw	4
  8824  0018B0  6E42               	movwf	_rowSelected,c
  8825                           
  8826                           ;SysRiego.c: 1024: return;
  8827  0018B2  0012               	return	
  8828  0018B4                     i2l3534:
  8829                           
  8830                           ;SysRiego.c: 1025: }
  8831                           ;SysRiego.c: 1026: if( (columnSelected == 3) && (PORTBbits.RB6 == 0)){
  8832  0018B4  0E03               	movlw	3
  8833  0018B6  183C               	xorwf	_columnSelected,w,c
  8834  0018B8  B4D8               	btfsc	status,2,c
  8835  0018BA  BC81               	btfsc	3969,6,c	;volatile
  8836  0018BC  D003               	goto	i2l3542
  8837                           
  8838                           ;SysRiego.c: 1027: rowSelected = 4;
  8839  0018BE  0E04               	movlw	4
  8840  0018C0  6E42               	movwf	_rowSelected,c
  8841                           
  8842                           ;SysRiego.c: 1028: return;
  8843  0018C2  0012               	return	
  8844  0018C4                     i2l3542:
  8845                           
  8846                           ;SysRiego.c: 1029: }
  8847                           ;SysRiego.c: 1030: if( (columnSelected == 4) && (PORTBbits.RB7 == 0)){
  8848  0018C4  0E04               	movlw	4
  8849  0018C6  183C               	xorwf	_columnSelected,w,c
  8850  0018C8  B4D8               	btfsc	status,2,c
  8851  0018CA  BE81               	btfsc	3969,7,c	;volatile
  8852  0018CC  D00F               	goto	i2l3554
  8853                           
  8854                           ;SysRiego.c: 1031: rowSelected = 4;
  8855  0018CE  0E04               	movlw	4
  8856  0018D0  D7A1               	goto	L12
  8857  0018D2                     i2l3552:
  8858  0018D2  5001               	movf	i2determinePressedRow@i,w,c
  8859                           
  8860                           ; Switch size 1, requested type "space"
  8861                           ; Number of cases is 4, Range of values is 0 to 3
  8862                           ; switch strategies available:
  8863                           ; Name         Instructions Cycles
  8864                           ; simple_byte           13     7 (average)
  8865                           ;	Chosen strategy is simple_byte
  8866  0018D4  0A00               	xorlw	0	; case 0
  8867  0018D6  B4D8               	btfsc	status,2,c
  8868  0018D8  D77F               	goto	i2l476
  8869  0018DA  0A01               	xorlw	1	; case 1
  8870  0018DC  B4D8               	btfsc	status,2,c
  8871  0018DE  D79C               	goto	i2l483
  8872  0018E0  0A03               	xorlw	3	; case 2
  8873  0018E2  B4D8               	btfsc	status,2,c
  8874  0018E4  D7B8               	goto	i2l488
  8875  0018E6  0A01               	xorlw	1	; case 3
  8876  0018E8  B4D8               	btfsc	status,2,c
  8877  0018EA  D7D4               	goto	i2l493
  8878  0018EC                     i2l3554:
  8879  0018EC  2A01               	incf	i2determinePressedRow@i,f,c
  8880  0018EE  D76D               	goto	i2l3416
  8881  0018F0                     __end_ofi2_determinePressedRow:
  8882                           	opt stack 0
  8883                           pclatu	equ	0xFFB
  8884                           pclath	equ	0xFFA
  8885                           tblptru	equ	0xFF8
  8886                           tblptrh	equ	0xFF7
  8887                           tblptrl	equ	0xFF6
  8888                           tablat	equ	0xFF5
  8889                           prodh	equ	0xFF4
  8890                           prodl	equ	0xFF3
  8891                           intcon	equ	0xFF2
  8892                           intcon2	equ	0xFF1
  8893                           indf0	equ	0xFEF
  8894                           postinc0	equ	0xFEE
  8895                           fsr0h	equ	0xFEA
  8896                           fsr0l	equ	0xFE9
  8897                           wreg	equ	0xFE8
  8898                           indf1	equ	0xFE7
  8899                           postdec1	equ	0xFE5
  8900                           fsr1h	equ	0xFE2
  8901                           fsr1l	equ	0xFE1
  8902                           bsr	equ	0xFE0
  8903                           indf2	equ	0xFDF
  8904                           postinc2	equ	0xFDE
  8905                           postdec2	equ	0xFDD
  8906                           fsr2h	equ	0xFDA
  8907                           fsr2l	equ	0xFD9
  8908                           status	equ	0xFD8
  8909                           
  8910 ;; *************** function i2_turnOnAllRows *****************
  8911 ;; Defined at:
  8912 ;;		line 1254 in file "SysRiego.c"
  8913 ;; Parameters:    Size  Location     Type
  8914 ;;		None
  8915 ;; Auto vars:     Size  Location     Type
  8916 ;;		None
  8917 ;; Return value:  Size  Location     Type
  8918 ;;                  1    wreg      void 
  8919 ;; Registers used:
  8920 ;;		None
  8921 ;; Tracked objects:
  8922 ;;		On entry : 0/0
  8923 ;;		On exit  : 0/0
  8924 ;;		Unchanged: 0/0
  8925 ;; Data sizes:     COMRAM   BANK0   BANK1   BANK2   BANK3   BANK4   BANK5   BANK6   BANK7   BANK8   BANK9  BANK10  BANK1
      +1  BANK12
  8926 ;;      Params:         0       0       0       0       0       0       0       0       0       0       0       0       
      +0       0
  8927 ;;      Locals:         0       0       0       0       0       0       0       0       0       0       0       0       
      +0       0
  8928 ;;      Temps:          0       0       0       0       0       0       0       0       0       0       0       0       
      +0       0
  8929 ;;      Totals:         0       0       0       0       0       0       0       0       0       0       0       0       
      +0       0
  8930 ;;Total ram usage:        0 bytes
  8931 ;; Hardware stack levels used:    1
  8932 ;; This function calls:
  8933 ;;		Nothing
  8934 ;; This function is called by:
  8935 ;;		i2_determinePressedRow
  8936 ;; This function uses a non-reentrant model
  8937 ;;
  8938                           
  8939                           	psect	text53
  8940  00285E                     __ptext53:
  8941                           	opt stack 0
  8942  00285E                     i2_turnOnAllRows:
  8943                           	opt stack 19
  8944                           
  8945                           ;SysRiego.c: 1255: PORTBbits.RB0 = 1;
  8946                           
  8947                           ;incstack = 0
  8948  00285E  8081               	bsf	3969,0,c	;volatile
  8949                           
  8950                           ;SysRiego.c: 1256: PORTBbits.RB1 = 1;
  8951  002860  8281               	bsf	3969,1,c	;volatile
  8952                           
  8953                           ;SysRiego.c: 1257: PORTBbits.RB2 = 1;
  8954  002862  8481               	bsf	3969,2,c	;volatile
  8955                           
  8956                           ;SysRiego.c: 1258: PORTBbits.RB3 = 1;
  8957  002864  8681               	bsf	3969,3,c	;volatile
  8958  002866  0012               	return		;funcret
  8959  002868                     __end_ofi2_turnOnAllRows:
  8960                           	opt stack 0
  8961                           pclatu	equ	0xFFB
  8962                           pclath	equ	0xFFA
  8963                           tblptru	equ	0xFF8
  8964                           tblptrh	equ	0xFF7
  8965                           tblptrl	equ	0xFF6
  8966                           tablat	equ	0xFF5
  8967                           prodh	equ	0xFF4
  8968                           prodl	equ	0xFF3
  8969                           intcon	equ	0xFF2
  8970                           intcon2	equ	0xFF1
  8971                           indf0	equ	0xFEF
  8972                           postinc0	equ	0xFEE
  8973                           fsr0h	equ	0xFEA
  8974                           fsr0l	equ	0xFE9
  8975                           wreg	equ	0xFE8
  8976                           indf1	equ	0xFE7
  8977                           postdec1	equ	0xFE5
  8978                           fsr1h	equ	0xFE2
  8979                           fsr1l	equ	0xFE1
  8980                           bsr	equ	0xFE0
  8981                           indf2	equ	0xFDF
  8982                           postinc2	equ	0xFDE
  8983                           postdec2	equ	0xFDD
  8984                           fsr2h	equ	0xFDA
  8985                           fsr2l	equ	0xFD9
  8986                           status	equ	0xFD8
  8987                           
  8988 ;; *************** function _pressedKeyAction *****************
  8989 ;; Defined at:
  8990 ;;		line 1076 in file "SysRiego.c"
  8991 ;; Parameters:    Size  Location     Type
  8992 ;;  keyCode         1    wreg     unsigned char 
  8993 ;; Auto vars:     Size  Location     Type
  8994 ;;  keyCode         1   13[COMRAM] unsigned char 
  8995 ;; Return value:  Size  Location     Type
  8996 ;;                  1    wreg      void 
  8997 ;; Registers used:
  8998 ;;		wreg, fsr0l, fsr0h, status,2, status,0, tblptrl, tblptrh, tblptru, prodl, prodh, cstack
  8999 ;; Tracked objects:
  9000 ;;		On entry : 0/0
  9001 ;;		On exit  : 0/0
  9002 ;;		Unchanged: 0/0
  9003 ;; Data sizes:     COMRAM   BANK0   BANK1   BANK2   BANK3   BANK4   BANK5   BANK6   BANK7   BANK8   BANK9  BANK10  BANK1
      +1  BANK12
  9004 ;;      Params:         0       0       0       0       0       0       0       0       0       0       0       0       
      +0       0
  9005 ;;      Locals:         1       0       0       0       0       0       0       0       0       0       0       0       
      +0       0
  9006 ;;      Temps:          0       0       0       0       0       0       0       0       0       0       0       0       
      +0       0
  9007 ;;      Totals:         1       0       0       0       0       0       0       0       0       0       0       0       
      +0       0
  9008 ;;Total ram usage:        1 bytes
  9009 ;; Hardware stack levels used:    1
  9010 ;; Hardware stack levels required when called:    3
  9011 ;; This function calls:
  9012 ;;		_irrigateManual
  9013 ;;		i2_clearDisplay
  9014 ;;		i2_command
  9015 ;;		i2_displayLineOnLCD
  9016 ;;		i2_isReady
  9017 ;;		i2_stopIrrigateManual
  9018 ;; This function is called by:
  9019 ;;		_pressedKey
  9020 ;; This function uses a non-reentrant model
  9021 ;;
  9022                           
  9023                           	psect	text54
  9024  00122C                     __ptext54:
  9025                           	opt stack 0
  9026  00122C                     _pressedKeyAction:
  9027                           	opt stack 17
  9028                           
  9029                           ;incstack = 0
  9030                           ;pressedKeyAction@keyCode stored from wreg
  9031  00122C  6E0E               	movwf	pressedKeyAction@keyCode,c
  9032                           
  9033                           ;SysRiego.c: 1078: switch(keyCode){
  9034  00122E  D0AB               	goto	i2l3340
  9035  001230                     i2l3282:
  9036                           
  9037                           ;SysRiego.c: 1087: if (modeSelected == 0) {
  9038  001230  0100               	movlb	0	; () banked
  9039  001232  51ED               	movf	_modeSelected& (0+255),w,b
  9040  001234  A4D8               	btfss	status,2,c
  9041  001236  D00C               	goto	i2l3286
  9042                           
  9043                           ; BSR set to: 0
  9044                           ;SysRiego.c: 1088: zoneSelected = humidityZn1Val;
  9045  001238  0E2D               	movlw	low _humidityZn1Val
  9046  00123A  0100               	movlb	0	; () banked
  9047  00123C  6FEB               	movwf	_zoneSelected& (0+255),b
  9048  00123E  0E00               	movlw	high _humidityZn1Val
  9049  001240  0100               	movlb	0	; () banked
  9050  001242  6FEC               	movwf	(_zoneSelected+1)& (0+255),b
  9051                           
  9052                           ;SysRiego.c: 1089: humidityZnValInt = &humidityZn1ValInt;
  9053  001244  0E36               	movlw	low _humidityZn1ValInt
  9054  001246  0100               	movlb	0	; () banked
  9055  001248  6FE9               	movwf	_humidityZnValInt& (0+255),b
  9056  00124A  0E00               	movlw	high _humidityZn1ValInt
  9057  00124C  0100               	movlb	0	; () banked
  9058  00124E  6FEA               	movwf	(_humidityZnValInt+1)& (0+255),b
  9059  001250                     i2l3286:
  9060                           
  9061                           ; BSR set to: 0
  9062                           ;SysRiego.c: 1094: }
  9063                           ;SysRiego.c: 1096: if (modeSelected == 2) {
  9064  001250  0E02               	movlw	2
  9065  001252  0100               	movlb	0	; () banked
  9066  001254  19ED               	xorwf	_modeSelected& (0+255),w,b
  9067  001256  A4D8               	btfss	status,2,c
  9068  001258  D006               	goto	i2l3290
  9069                           
  9070                           ; BSR set to: 0
  9071                           ;SysRiego.c: 1097: zoneSelected = &manualZn1Val;
  9072  00125A  0E39               	movlw	low _manualZn1Val
  9073  00125C  0100               	movlb	0	; () banked
  9074  00125E  6FEB               	movwf	_zoneSelected& (0+255),b
  9075  001260  0E00               	movlw	high _manualZn1Val
  9076  001262  0100               	movlb	0	; () banked
  9077  001264  6FEC               	movwf	(_zoneSelected+1)& (0+255),b
  9078  001266                     i2l3290:
  9079                           
  9080                           ; BSR set to: 0
  9081                           ;SysRiego.c: 1098: }
  9082                           ;SysRiego.c: 1100: statusConfiguration = 1;
  9083  001266  0E01               	movlw	1
  9084  001268  0100               	movlb	0	; () banked
  9085  00126A  6FEE               	movwf	_statusConfiguration& (0+255),b
  9086                           
  9087                           ;SysRiego.c: 1102: break;
  9088  00126C  0012               	return	
  9089  00126E                     i2l3292:
  9090                           
  9091                           ;SysRiego.c: 1107: if (modeSelected == 0) {
  9092  00126E  0100               	movlb	0	; () banked
  9093  001270  51ED               	movf	_modeSelected& (0+255),w,b
  9094  001272  A4D8               	btfss	status,2,c
  9095  001274  D00C               	goto	i2l3296
  9096                           
  9097                           ; BSR set to: 0
  9098                           ;SysRiego.c: 1108: zoneSelected = humidityZn2Val;
  9099  001276  0E30               	movlw	low _humidityZn2Val
  9100  001278  0100               	movlb	0	; () banked
  9101  00127A  6FEB               	movwf	_zoneSelected& (0+255),b
  9102  00127C  0E00               	movlw	high _humidityZn2Val
  9103  00127E  0100               	movlb	0	; () banked
  9104  001280  6FEC               	movwf	(_zoneSelected+1)& (0+255),b
  9105                           
  9106                           ;SysRiego.c: 1109: humidityZnValInt = &humidityZn2ValInt;
  9107  001282  0E37               	movlw	low _humidityZn2ValInt
  9108  001284  0100               	movlb	0	; () banked
  9109  001286  6FE9               	movwf	_humidityZnValInt& (0+255),b
  9110  001288  0E00               	movlw	high _humidityZn2ValInt
  9111  00128A  0100               	movlb	0	; () banked
  9112  00128C  6FEA               	movwf	(_humidityZnValInt+1)& (0+255),b
  9113  00128E                     i2l3296:
  9114                           
  9115                           ; BSR set to: 0
  9116                           ;SysRiego.c: 1114: }
  9117                           ;SysRiego.c: 1116: if (modeSelected == 2) {
  9118  00128E  0E02               	movlw	2
  9119  001290  0100               	movlb	0	; () banked
  9120  001292  19ED               	xorwf	_modeSelected& (0+255),w,b
  9121  001294  A4D8               	btfss	status,2,c
  9122  001296  D006               	goto	i2l3300
  9123                           
  9124                           ; BSR set to: 0
  9125                           ;SysRiego.c: 1117: zoneSelected = &manualZn2Val;
  9126  001298  0E3A               	movlw	low _manualZn2Val
  9127  00129A  0100               	movlb	0	; () banked
  9128  00129C  6FEB               	movwf	_zoneSelected& (0+255),b
  9129  00129E  0E00               	movlw	high _manualZn2Val
  9130  0012A0  0100               	movlb	0	; () banked
  9131  0012A2  6FEC               	movwf	(_zoneSelected+1)& (0+255),b
  9132  0012A4                     i2l3300:
  9133                           
  9134                           ; BSR set to: 0
  9135                           ;SysRiego.c: 1118: }
  9136                           ;SysRiego.c: 1120: statusConfiguration = 1;
  9137  0012A4  0E01               	movlw	1
  9138  0012A6  0100               	movlb	0	; () banked
  9139  0012A8  6FEE               	movwf	_statusConfiguration& (0+255),b
  9140                           
  9141                           ;SysRiego.c: 1122: break;
  9142  0012AA  0012               	return	
  9143  0012AC                     i2l3302:
  9144                           
  9145                           ;SysRiego.c: 1127: if (modeSelected == 0) {
  9146  0012AC  0100               	movlb	0	; () banked
  9147  0012AE  51ED               	movf	_modeSelected& (0+255),w,b
  9148  0012B0  A4D8               	btfss	status,2,c
  9149  0012B2  D00C               	goto	i2l546
  9150                           
  9151                           ; BSR set to: 0
  9152                           ;SysRiego.c: 1128: zoneSelected = humidityZn3Val;
  9153  0012B4  0E33               	movlw	low _humidityZn3Val
  9154  0012B6  0100               	movlb	0	; () banked
  9155  0012B8  6FEB               	movwf	_zoneSelected& (0+255),b
  9156  0012BA  0E00               	movlw	high _humidityZn3Val
  9157  0012BC  0100               	movlb	0	; () banked
  9158  0012BE  6FEC               	movwf	(_zoneSelected+1)& (0+255),b
  9159                           
  9160                           ;SysRiego.c: 1129: humidityZnValInt = &humidityZn3ValInt;
  9161  0012C0  0E38               	movlw	low _humidityZn3ValInt
  9162  0012C2  0100               	movlb	0	; () banked
  9163  0012C4  6FE9               	movwf	_humidityZnValInt& (0+255),b
  9164  0012C6  0E00               	movlw	high _humidityZn3ValInt
  9165  0012C8  0100               	movlb	0	; () banked
  9166  0012CA  6FEA               	movwf	(_humidityZnValInt+1)& (0+255),b
  9167  0012CC                     i2l546:
  9168                           
  9169                           ; BSR set to: 0
  9170                           ;SysRiego.c: 1130: }
  9171                           ;SysRiego.c: 1132: if (modeSelected == 1) {
  9172  0012CC  0100               	movlb	0	; () banked
  9173  0012CE  05ED               	decf	_modeSelected& (0+255),w,b
  9174  0012D0  A4D8               	btfss	status,2,c
  9175  0012D2  D006               	goto	i2l547
  9176                           
  9177                           ; BSR set to: 0
  9178                           ;SysRiego.c: 1133: zoneSelected = humidityZn1Val;
  9179  0012D4  0E2D               	movlw	low _humidityZn1Val
  9180  0012D6  0100               	movlb	0	; () banked
  9181  0012D8  6FEB               	movwf	_zoneSelected& (0+255),b
  9182  0012DA  0E00               	movlw	high _humidityZn1Val
  9183  0012DC  0100               	movlb	0	; () banked
  9184  0012DE  6FEC               	movwf	(_zoneSelected+1)& (0+255),b
  9185  0012E0                     i2l547:
  9186                           
  9187                           ; BSR set to: 0
  9188                           ;SysRiego.c: 1134: }
  9189                           ;SysRiego.c: 1136: if (modeSelected == 2) {
  9190  0012E0  0E02               	movlw	2
  9191  0012E2  0100               	movlb	0	; () banked
  9192  0012E4  19ED               	xorwf	_modeSelected& (0+255),w,b
  9193  0012E6  A4D8               	btfss	status,2,c
  9194  0012E8  D006               	goto	i2l3310
  9195                           
  9196                           ; BSR set to: 0
  9197                           ;SysRiego.c: 1137: zoneSelected = &manualZn3Val;
  9198  0012EA  0E3B               	movlw	low _manualZn3Val
  9199  0012EC  0100               	movlb	0	; () banked
  9200  0012EE  6FEB               	movwf	_zoneSelected& (0+255),b
  9201  0012F0  0E00               	movlw	high _manualZn3Val
  9202  0012F2  0100               	movlb	0	; () banked
  9203  0012F4  6FEC               	movwf	(_zoneSelected+1)& (0+255),b
  9204  0012F6                     i2l3310:
  9205                           
  9206                           ; BSR set to: 0
  9207                           ;SysRiego.c: 1138: }
  9208                           ;SysRiego.c: 1140: statusConfiguration = 1;
  9209  0012F6  0E01               	movlw	1
  9210  0012F8  0100               	movlb	0	; () banked
  9211  0012FA  6FEE               	movwf	_statusConfiguration& (0+255),b
  9212                           
  9213                           ; BSR set to: 0
  9214                           ;SysRiego.c: 1173: break;
  9215                           
  9216                           ;SysRiego.c: 1171: case '9':
  9217                           
  9218                           ; BSR set to: 0
  9219                           ;SysRiego.c: 1168: break;
  9220                           
  9221                           ;SysRiego.c: 1166: case '8':
  9222                           
  9223                           ; BSR set to: 0
  9224                           ;SysRiego.c: 1163: break;
  9225                           
  9226                           ;SysRiego.c: 1161: case '7':
  9227                           
  9228                           ; BSR set to: 0
  9229                           ;SysRiego.c: 1158: break;
  9230                           
  9231                           ;SysRiego.c: 1156: case '6':
  9232                           
  9233                           ; BSR set to: 0
  9234                           ;SysRiego.c: 1153: break;
  9235                           
  9236                           ;SysRiego.c: 1150: case '5':
  9237                           
  9238                           ; BSR set to: 0
  9239                           ;SysRiego.c: 1147: break;
  9240                           
  9241                           ;SysRiego.c: 1145: case '4':
  9242                           
  9243                           ;SysRiego.c: 1142: break;
  9244  0012FC  0012               	return	
  9245  0012FE                     i2l3312:
  9246                           
  9247                           ;SysRiego.c: 1178: modeSelected = 0;
  9248  0012FE  0E00               	movlw	0
  9249  001300  0100               	movlb	0	; () banked
  9250  001302  6FED               	movwf	_modeSelected& (0+255),b
  9251                           
  9252                           ;SysRiego.c: 1180: break;
  9253  001304  0012               	return	
  9254  001306                     i2l3314:
  9255                           
  9256                           ;SysRiego.c: 1185: modeSelected = 1;
  9257  001306  0E01               	movlw	1
  9258  001308  0100               	movlb	0	; () banked
  9259  00130A  6FED               	movwf	_modeSelected& (0+255),b
  9260                           
  9261                           ;SysRiego.c: 1187: break;
  9262  00130C  0012               	return	
  9263  00130E                     i2l3316:
  9264                           
  9265                           ;SysRiego.c: 1192: modeSelected = 2;
  9266  00130E  0E02               	movlw	2
  9267  001310  0100               	movlb	0	; () banked
  9268  001312  6FED               	movwf	_modeSelected& (0+255),b
  9269                           
  9270                           ; BSR set to: 0
  9271                           ;SysRiego.c: 1199: break;
  9272                           
  9273                           ;SysRiego.c: 1197: case 'D':
  9274                           
  9275                           ;SysRiego.c: 1194: break;
  9276  001314  0012               	return	
  9277  001316                     i2l3318:
  9278                           
  9279                           ;SysRiego.c: 1204: clearDisplay();
  9280  001316  EC00  F014         	call	i2_clearDisplay	;wreg free
  9281                           
  9282                           ;SysRiego.c: 1206: if(ADRES < 512) {
  9283  00131A  0E02               	movlw	2
  9284  00131C  5CC4               	subwf	4036,w,c	;volatile
  9285  00131E  B0D8               	btfsc	status,0,c
  9286  001320  D009               	goto	i2l3324
  9287                           
  9288                           ;SysRiego.c: 1207: displayLineOnLCD("Riega", 6);
  9289  001322  0E08               	movlw	low STR_1
  9290  001324  6E03               	movwf	i2displayLineOnLCD@array,c
  9291  001326  0E0D               	movlw	high STR_1
  9292  001328  6E04               	movwf	i2displayLineOnLCD@array+1,c
  9293  00132A  0E06               	movlw	6
  9294  00132C  6E05               	movwf	i2displayLineOnLCD@sizeOfArray,c
  9295  00132E  ECDE  F010         	call	i2_displayLineOnLCD	;wreg free
  9296                           
  9297                           ;SysRiego.c: 1208: }
  9298  001332  0012               	return	
  9299  001334                     i2l3324:
  9300                           
  9301                           ;SysRiego.c: 1209: else if (ADRES > 512) {
  9302  001334  04C3               	decf	4035,w,c	;volatile
  9303  001336  0E02               	movlw	2
  9304  001338  58C4               	subwfb	4036,w,c	;volatile
  9305  00133A  A0D8               	btfss	status,0,c
  9306  00133C  0012               	return	
  9307                           
  9308                           ;SysRiego.c: 1210: displayLineOnLCD("Pelon", 6);
  9309  00133E  0E0E               	movlw	low STR_2
  9310  001340  6E03               	movwf	i2displayLineOnLCD@array,c
  9311  001342  0E0D               	movlw	high STR_2
  9312  001344  6E04               	movwf	i2displayLineOnLCD@array+1,c
  9313  001346  0E06               	movlw	6
  9314  001348  6E05               	movwf	i2displayLineOnLCD@sizeOfArray,c
  9315  00134A  ECDE  F010         	call	i2_displayLineOnLCD	;wreg free
  9316                           
  9317                           ;SysRiego.c: 1211: command(0xC0);
  9318  00134E  0EC0               	movlw	192
  9319  001350  ECEE  F013         	call	i2_command
  9320                           
  9321                           ;SysRiego.c: 1212: isReady();
  9322  001354  EC8A  F013         	call	i2_isReady	;wreg free
  9323                           
  9324                           ;SysRiego.c: 1213: displayLineOnLCD("Macana", 7);
  9325  001358  0E01               	movlw	low STR_3
  9326  00135A  6E03               	movwf	i2displayLineOnLCD@array,c
  9327  00135C  0E0D               	movlw	high STR_3
  9328  00135E  6E04               	movwf	i2displayLineOnLCD@array+1,c
  9329  001360  0E07               	movlw	7
  9330  001362  6E05               	movwf	i2displayLineOnLCD@sizeOfArray,c
  9331  001364  ECDE  F010         	call	i2_displayLineOnLCD	;wreg free
  9332                           
  9333                           ;SysRiego.c: 1214: }
  9334                           ;SysRiego.c: 1217: break;
  9335  001368  0012               	return	
  9336  00136A                     i2l3332:
  9337                           
  9338                           ;SysRiego.c: 1227: if(modeSelected == 2) {
  9339  00136A  0E02               	movlw	2
  9340  00136C  0100               	movlb	0	; () banked
  9341  00136E  19ED               	xorwf	_modeSelected& (0+255),w,b
  9342  001370  A4D8               	btfss	status,2,c
  9343  001372  0012               	return	
  9344                           
  9345                           ; BSR set to: 0
  9346                           ;SysRiego.c: 1229: if(irrigateManualStatus == 0) {
  9347  001374  503F               	movf	_irrigateManualStatus,w,c
  9348  001376  A4D8               	btfss	status,2,c
  9349  001378  D003               	goto	i2l3338
  9350                           
  9351                           ; BSR set to: 0
  9352                           ;SysRiego.c: 1230: irrigateManual();
  9353  00137A  EC34  F012         	call	_irrigateManual	;wreg free
  9354                           
  9355                           ;SysRiego.c: 1231: }
  9356  00137E  0012               	return	
  9357  001380                     i2l3338:
  9358                           
  9359                           ;SysRiego.c: 1233: else {
  9360                           ;SysRiego.c: 1234: stopIrrigateManual();
  9361  001380  ECB0  F013         	call	i2_stopIrrigateManual	;wreg free
  9362                           
  9363                           ;SysRiego.c: 1251: }
  9364                           
  9365                           ;SysRiego.c: 1242: default: ;
  9366                           
  9367                           ;SysRiego.c: 1235: }
  9368                           ;SysRiego.c: 1237: }
  9369                           ;SysRiego.c: 1239: break;
  9370  001384  0012               	return	
  9371  001386                     i2l3340:
  9372  001386  500E               	movf	pressedKeyAction@keyCode,w,c
  9373                           
  9374                           ; Switch size 1, requested type "space"
  9375                           ; Number of cases is 16, Range of values is 35 to 68
  9376                           ; switch strategies available:
  9377                           ; Name         Instructions Cycles
  9378                           ; simple_byte           49    25 (average)
  9379                           ;	Chosen strategy is simple_byte
  9380  001388  0A23               	xorlw	35	; case 35
  9381  00138A  B4D8               	btfsc	status,2,c
  9382  00138C  D7EE               	goto	i2l3332
  9383  00138E  0A09               	xorlw	9	; case 42
  9384  001390  B4D8               	btfsc	status,2,c
  9385  001392  D7C1               	goto	i2l3318
  9386  001394  0A1A               	xorlw	26	; case 48
  9387  001396  B4D8               	btfsc	status,2,c
  9388  001398  0012               	return	
  9389  00139A  0A01               	xorlw	1	; case 49
  9390  00139C  B4D8               	btfsc	status,2,c
  9391  00139E  D748               	goto	i2l3282
  9392  0013A0  0A03               	xorlw	3	; case 50
  9393  0013A2  B4D8               	btfsc	status,2,c
  9394  0013A4  D764               	goto	i2l3292
  9395  0013A6  0A01               	xorlw	1	; case 51
  9396  0013A8  B4D8               	btfsc	status,2,c
  9397  0013AA  D780               	goto	i2l3302
  9398  0013AC  0A07               	xorlw	7	; case 52
  9399  0013AE  B4D8               	btfsc	status,2,c
  9400  0013B0  0012               	return	
  9401  0013B2  0A01               	xorlw	1	; case 53
  9402  0013B4  B4D8               	btfsc	status,2,c
  9403  0013B6  0012               	return	
  9404  0013B8  0A03               	xorlw	3	; case 54
  9405  0013BA  B4D8               	btfsc	status,2,c
  9406  0013BC  0012               	return	
  9407  0013BE  0A01               	xorlw	1	; case 55
  9408  0013C0  B4D8               	btfsc	status,2,c
  9409  0013C2  0012               	return	
  9410  0013C4  0A0F               	xorlw	15	; case 56
  9411  0013C6  B4D8               	btfsc	status,2,c
  9412  0013C8  0012               	return	
  9413  0013CA  0A01               	xorlw	1	; case 57
  9414  0013CC  B4D8               	btfsc	status,2,c
  9415  0013CE  0012               	return	
  9416  0013D0  0A78               	xorlw	120	; case 65
  9417  0013D2  B4D8               	btfsc	status,2,c
  9418  0013D4  D794               	goto	i2l3312
  9419  0013D6  0A03               	xorlw	3	; case 66
  9420  0013D8  B4D8               	btfsc	status,2,c
  9421  0013DA  D795               	goto	i2l3314
  9422  0013DC  0A01               	xorlw	1	; case 67
  9423  0013DE  B4D8               	btfsc	status,2,c
  9424  0013E0  D796               	goto	i2l3316
  9425  0013E2  0A07               	xorlw	7	; case 68
  9426  0013E4  0012               	return	
  9427  0013E6                     __end_of_pressedKeyAction:
  9428                           	opt stack 0
  9429                           pclatu	equ	0xFFB
  9430                           pclath	equ	0xFFA
  9431                           tblptru	equ	0xFF8
  9432                           tblptrh	equ	0xFF7
  9433                           tblptrl	equ	0xFF6
  9434                           tablat	equ	0xFF5
  9435                           prodh	equ	0xFF4
  9436                           prodl	equ	0xFF3
  9437                           intcon	equ	0xFF2
  9438                           intcon2	equ	0xFF1
  9439                           indf0	equ	0xFEF
  9440                           postinc0	equ	0xFEE
  9441                           fsr0h	equ	0xFEA
  9442                           fsr0l	equ	0xFE9
  9443                           wreg	equ	0xFE8
  9444                           indf1	equ	0xFE7
  9445                           postdec1	equ	0xFE5
  9446                           fsr1h	equ	0xFE2
  9447                           fsr1l	equ	0xFE1
  9448                           bsr	equ	0xFE0
  9449                           indf2	equ	0xFDF
  9450                           postinc2	equ	0xFDE
  9451                           postdec2	equ	0xFDD
  9452                           fsr2h	equ	0xFDA
  9453                           fsr2l	equ	0xFD9
  9454                           status	equ	0xFD8
  9455                           
  9456 ;; *************** function i2_stopIrrigateManual *****************
  9457 ;; Defined at:
  9458 ;;		line 1479 in file "SysRiego.c"
  9459 ;; Parameters:    Size  Location     Type
  9460 ;;		None
  9461 ;; Auto vars:     Size  Location     Type
  9462 ;;		None
  9463 ;; Return value:  Size  Location     Type
  9464 ;;                  1    wreg      void 
  9465 ;; Registers used:
  9466 ;;		wreg, status,2, status,0, cstack
  9467 ;; Tracked objects:
  9468 ;;		On entry : 0/0
  9469 ;;		On exit  : 0/0
  9470 ;;		Unchanged: 0/0
  9471 ;; Data sizes:     COMRAM   BANK0   BANK1   BANK2   BANK3   BANK4   BANK5   BANK6   BANK7   BANK8   BANK9  BANK10  BANK1
      +1  BANK12
  9472 ;;      Params:         0       0       0       0       0       0       0       0       0       0       0       0       
      +0       0
  9473 ;;      Locals:         0       0       0       0       0       0       0       0       0       0       0       0       
      +0       0
  9474 ;;      Temps:          0       0       0       0       0       0       0       0       0       0       0       0       
      +0       0
  9475 ;;      Totals:         0       0       0       0       0       0       0       0       0       0       0       0       
      +0       0
  9476 ;;Total ram usage:        0 bytes
  9477 ;; Hardware stack levels used:    1
  9478 ;; Hardware stack levels required when called:    1
  9479 ;; This function calls:
  9480 ;;		i2_stopIrrigation
  9481 ;; This function is called by:
  9482 ;;		_pressedKeyAction
  9483 ;; This function uses a non-reentrant model
  9484 ;;
  9485                           
  9486                           	psect	text55
  9487  002760                     __ptext55:
  9488                           	opt stack 0
  9489  002760                     i2_stopIrrigateManual:
  9490                           	opt stack 18
  9491                           
  9492                           ;SysRiego.c: 1481: stopIrrigation(1);
  9493                           
  9494                           ;incstack = 0
  9495  002760  0E01               	movlw	1
  9496  002762  ECF3  F012         	call	i2_stopIrrigation
  9497                           
  9498                           ;SysRiego.c: 1482: stopIrrigation(2);
  9499  002766  0E02               	movlw	2
  9500  002768  ECF3  F012         	call	i2_stopIrrigation
  9501                           
  9502                           ;SysRiego.c: 1483: stopIrrigation(3);
  9503  00276C  0E03               	movlw	3
  9504  00276E  ECF3  F012         	call	i2_stopIrrigation
  9505                           
  9506                           ;SysRiego.c: 1485: irrigateManualStatus = 0;
  9507  002772  0E00               	movlw	0
  9508  002774  6E3F               	movwf	_irrigateManualStatus,c
  9509  002776  0012               	return		;funcret
  9510  002778                     __end_ofi2_stopIrrigateManual:
  9511                           	opt stack 0
  9512                           pclatu	equ	0xFFB
  9513                           pclath	equ	0xFFA
  9514                           tblptru	equ	0xFF8
  9515                           tblptrh	equ	0xFF7
  9516                           tblptrl	equ	0xFF6
  9517                           tablat	equ	0xFF5
  9518                           prodh	equ	0xFF4
  9519                           prodl	equ	0xFF3
  9520                           intcon	equ	0xFF2
  9521                           intcon2	equ	0xFF1
  9522                           indf0	equ	0xFEF
  9523                           postinc0	equ	0xFEE
  9524                           fsr0h	equ	0xFEA
  9525                           fsr0l	equ	0xFE9
  9526                           wreg	equ	0xFE8
  9527                           indf1	equ	0xFE7
  9528                           postdec1	equ	0xFE5
  9529                           fsr1h	equ	0xFE2
  9530                           fsr1l	equ	0xFE1
  9531                           bsr	equ	0xFE0
  9532                           indf2	equ	0xFDF
  9533                           postinc2	equ	0xFDE
  9534                           postdec2	equ	0xFDD
  9535                           fsr2h	equ	0xFDA
  9536                           fsr2l	equ	0xFD9
  9537                           status	equ	0xFD8
  9538                           
  9539 ;; *************** function i2_stopIrrigation *****************
  9540 ;; Defined at:
  9541 ;;		line 1441 in file "SysRiego.c"
  9542 ;; Parameters:    Size  Location     Type
  9543 ;;  zone            1    wreg     unsigned char 
  9544 ;; Auto vars:     Size  Location     Type
  9545 ;;  zone            1    0[COMRAM] unsigned char 
  9546 ;; Return value:  Size  Location     Type
  9547 ;;                  1    wreg      void 
  9548 ;; Registers used:
  9549 ;;		wreg, status,2, status,0
  9550 ;; Tracked objects:
  9551 ;;		On entry : 0/0
  9552 ;;		On exit  : 0/0
  9553 ;;		Unchanged: 0/0
  9554 ;; Data sizes:     COMRAM   BANK0   BANK1   BANK2   BANK3   BANK4   BANK5   BANK6   BANK7   BANK8   BANK9  BANK10  BANK1
      +1  BANK12
  9555 ;;      Params:         0       0       0       0       0       0       0       0       0       0       0       0       
      +0       0
  9556 ;;      Locals:         1       0       0       0       0       0       0       0       0       0       0       0       
      +0       0
  9557 ;;      Temps:          0       0       0       0       0       0       0       0       0       0       0       0       
      +0       0
  9558 ;;      Totals:         1       0       0       0       0       0       0       0       0       0       0       0       
      +0       0
  9559 ;;Total ram usage:        1 bytes
  9560 ;; Hardware stack levels used:    1
  9561 ;; This function calls:
  9562 ;;		Nothing
  9563 ;; This function is called by:
  9564 ;;		i2_stopIrrigateManual
  9565 ;; This function uses a non-reentrant model
  9566 ;;
  9567                           
  9568                           	psect	text56
  9569  0025E6                     __ptext56:
  9570                           	opt stack 0
  9571  0025E6                     i2_stopIrrigation:
  9572                           	opt stack 18
  9573                           
  9574                           ;incstack = 0
  9575                           ;i2stopIrrigation@zone stored from wreg
  9576  0025E6  6E01               	movwf	i2stopIrrigation@zone,c
  9577                           
  9578                           ;SysRiego.c: 1443: switch(zone) {
  9579  0025E8  D006               	goto	i2l3152
  9580  0025EA                     i2l635:
  9581                           
  9582                           ;SysRiego.c: 1446: PORTEbits.RE0 = 0;
  9583  0025EA  9084               	bcf	3972,0,c	;volatile
  9584                           
  9585                           ;SysRiego.c: 1447: break;
  9586  0025EC  0012               	return	
  9587  0025EE                     i2l637:
  9588                           
  9589                           ;SysRiego.c: 1450: PORTEbits.RE1 = 0;
  9590  0025EE  9284               	bcf	3972,1,c	;volatile
  9591                           
  9592                           ;SysRiego.c: 1451: break;
  9593  0025F0  0012               	return	
  9594  0025F2                     i2l638:
  9595                           
  9596                           ;SysRiego.c: 1454: PORTEbits.RE2 = 0;
  9597  0025F2  9484               	bcf	3972,2,c	;volatile
  9598                           
  9599                           ;SysRiego.c: 1457: }
  9600                           
  9601                           ;SysRiego.c: 1455: break;
  9602  0025F4  0012               	return	
  9603  0025F6                     i2l3152:
  9604  0025F6  5001               	movf	i2stopIrrigation@zone,w,c
  9605                           
  9606                           ; Switch size 1, requested type "space"
  9607                           ; Number of cases is 3, Range of values is 1 to 3
  9608                           ; switch strategies available:
  9609                           ; Name         Instructions Cycles
  9610                           ; simple_byte           10     6 (average)
  9611                           ;	Chosen strategy is simple_byte
  9612  0025F8  0A01               	xorlw	1	; case 1
  9613  0025FA  B4D8               	btfsc	status,2,c
  9614  0025FC  D7F6               	goto	i2l635
  9615  0025FE  0A03               	xorlw	3	; case 2
  9616  002600  B4D8               	btfsc	status,2,c
  9617  002602  D7F5               	goto	i2l637
  9618  002604  0A01               	xorlw	1	; case 3
  9619  002606  A4D8               	btfss	status,2,c
  9620  002608  0012               	return	
  9621  00260A  D7F3               	goto	i2l638
  9622  00260C                     __end_ofi2_stopIrrigation:
  9623                           	opt stack 0
  9624                           pclatu	equ	0xFFB
  9625                           pclath	equ	0xFFA
  9626                           tblptru	equ	0xFF8
  9627                           tblptrh	equ	0xFF7
  9628                           tblptrl	equ	0xFF6
  9629                           tablat	equ	0xFF5
  9630                           prodh	equ	0xFF4
  9631                           prodl	equ	0xFF3
  9632                           intcon	equ	0xFF2
  9633                           intcon2	equ	0xFF1
  9634                           indf0	equ	0xFEF
  9635                           postinc0	equ	0xFEE
  9636                           fsr0h	equ	0xFEA
  9637                           fsr0l	equ	0xFE9
  9638                           wreg	equ	0xFE8
  9639                           indf1	equ	0xFE7
  9640                           postdec1	equ	0xFE5
  9641                           fsr1h	equ	0xFE2
  9642                           fsr1l	equ	0xFE1
  9643                           bsr	equ	0xFE0
  9644                           indf2	equ	0xFDF
  9645                           postinc2	equ	0xFDE
  9646                           postdec2	equ	0xFDD
  9647                           fsr2h	equ	0xFDA
  9648                           fsr2l	equ	0xFD9
  9649                           status	equ	0xFD8
  9650                           
  9651 ;; *************** function i2_displayLineOnLCD *****************
  9652 ;; Defined at:
  9653 ;;		line 477 in file "SysRiego.c"
  9654 ;; Parameters:    Size  Location     Type
  9655 ;;  array           2    2[COMRAM] PTR unsigned char 
  9656 ;;		 -> dayName(4), STR_3(7), STR_2(6), STR_1(6), 
  9657 ;;		 -> manualMessage(12), counterMIN(3), counterHOUR(3), timerMessage(11), 
  9658 ;;		 -> automaticMessage(15), manualInactiveMessage(9), manualActiveMessage(7), configAutoMessage(11), 
  9659 ;;  sizeOfArray     1    4[COMRAM] unsigned char 
  9660 ;; Auto vars:     Size  Location     Type
  9661 ;;  displayLineO    1   12[COMRAM] unsigned char 
  9662 ;; Return value:  Size  Location     Type
  9663 ;;                  1    wreg      void 
  9664 ;; Registers used:
  9665 ;;		wreg, fsr0l, fsr0h, status,2, status,0, tblptrl, tblptrh, tblptru, prodl, prodh, cstack
  9666 ;; Tracked objects:
  9667 ;;		On entry : 0/0
  9668 ;;		On exit  : 0/0
  9669 ;;		Unchanged: 0/0
  9670 ;; Data sizes:     COMRAM   BANK0   BANK1   BANK2   BANK3   BANK4   BANK5   BANK6   BANK7   BANK8   BANK9  BANK10  BANK1
      +1  BANK12
  9671 ;;      Params:         3       0       0       0       0       0       0       0       0       0       0       0       
      +0       0
  9672 ;;      Locals:         1       0       0       0       0       0       0       0       0       0       0       0       
      +0       0
  9673 ;;      Temps:          7       0       0       0       0       0       0       0       0       0       0       0       
      +0       0
  9674 ;;      Totals:        11       0       0       0       0       0       0       0       0       0       0       0       
      +0       0
  9675 ;;Total ram usage:       11 bytes
  9676 ;; Hardware stack levels used:    1
  9677 ;; Hardware stack levels required when called:    2
  9678 ;; This function calls:
  9679 ;;		i2_displayCharOnLCD
  9680 ;; This function is called by:
  9681 ;;		_pressedKeyAction
  9682 ;; This function uses a non-reentrant model
  9683 ;;
  9684                           
  9685                           	psect	text57
  9686  0021BC                     __ptext57:
  9687                           	opt stack 0
  9688  0021BC                     i2_displayLineOnLCD:
  9689                           	opt stack 17
  9690                           
  9691                           ;SysRiego.c: 478: unsigned char i;
  9692                           ;SysRiego.c: 479: for(i=0; i<sizeOfArray-1; i++){
  9693                           
  9694                           ;incstack = 0
  9695  0021BC  0E00               	movlw	0
  9696  0021BE  6E0D               	movwf	i2displayLineOnLCD@i,c
  9697  0021C0  D01D               	goto	i2l3204
  9698  0021C2                     i2l3200:
  9699                           
  9700                           ;SysRiego.c: 480: displayCharOnLCD(array[i]);
  9701  0021C2  500D               	movf	i2displayLineOnLCD@i,w,c
  9702  0021C4  0D01               	mullw	1
  9703  0021C6  C003  F006         	movff	i2displayLineOnLCD@array,??i2_displayLineOnLCD
  9704  0021CA  C004  F007         	movff	i2displayLineOnLCD@array+1,??i2_displayLineOnLCD+1
  9705  0021CE  50F3               	movf	prodl,w,c
  9706  0021D0  2606               	addwf	??i2_displayLineOnLCD,f,c
  9707  0021D2  50F4               	movf	prodh,w,c
  9708  0021D4  2207               	addwfc	??i2_displayLineOnLCD+1,f,c
  9709  0021D6  C006  FFF6         	movff	??i2_displayLineOnLCD,tblptrl
  9710  0021DA  C007  FFF7         	movff	??i2_displayLineOnLCD+1,tblptrh
  9711  0021DE  6AF8               	clrf	tblptru,c
  9712  0021E0  0E0C               	movlw	(high __ramtop+-1)
  9713  0021E2  64F7               	cpfsgt	tblptrh,c
  9714  0021E4  D003               	bra	i2u246_47
  9715  0021E6  0008               	tblrd		*
  9716  0021E8  50F5               	movf	tablat,w,c
  9717  0021EA  D005               	bra	i2u246_40
  9718  0021EC                     i2u246_47:
  9719  0021EC  CFF6 FFE9          	movff	tblptrl,fsr0l
  9720  0021F0  CFF7 FFEA          	movff	tblptrh,fsr0h
  9721  0021F4  50EF               	movf	indf0,w,c
  9722  0021F6                     i2u246_40:
  9723  0021F6  ECE4  F013         	call	i2_displayCharOnLCD
  9724  0021FA  2A0D               	incf	i2displayLineOnLCD@i,f,c
  9725  0021FC                     i2l3204:
  9726  0021FC  0EFF               	movlw	255
  9727  0021FE  6E06               	movwf	??i2_displayLineOnLCD& (0+255),c
  9728  002200  0EFF               	movlw	255
  9729  002202  6E07               	movwf	(??i2_displayLineOnLCD+1)& (0+255),c
  9730  002204  5005               	movf	i2displayLineOnLCD@sizeOfArray,w,c
  9731  002206  6E08               	movwf	(??i2_displayLineOnLCD+2)& (0+255),c
  9732  002208  6A09               	clrf	(??i2_displayLineOnLCD+3)& (0+255),c
  9733  00220A  5006               	movf	??i2_displayLineOnLCD,w,c
  9734  00220C  2608               	addwf	??i2_displayLineOnLCD+2,f,c
  9735  00220E  5007               	movf	??i2_displayLineOnLCD+1,w,c
  9736  002210  2209               	addwfc	??i2_displayLineOnLCD+3,f,c
  9737  002212  500D               	movf	i2displayLineOnLCD@i,w,c
  9738  002214  6E0A               	movwf	(??i2_displayLineOnLCD+4)& (0+255),c
  9739  002216  6A0B               	clrf	(??i2_displayLineOnLCD+5)& (0+255),c
  9740  002218  5008               	movf	??i2_displayLineOnLCD+2,w,c
  9741  00221A  5C0A               	subwf	??i2_displayLineOnLCD+4,w,c
  9742  00221C  500B               	movf	??i2_displayLineOnLCD+5,w,c
  9743  00221E  0A80               	xorlw	128
  9744  002220  6E0C               	movwf	(??i2_displayLineOnLCD+6)& (0+255),c
  9745  002222  5009               	movf	??i2_displayLineOnLCD+3,w,c
  9746  002224  0A80               	xorlw	128
  9747  002226  580C               	subwfb	(??i2_displayLineOnLCD+6)& (0+255),w,c
  9748  002228  B0D8               	btfsc	status,0,c
  9749  00222A  0012               	return	
  9750  00222C  D7CA               	goto	i2l3200
  9751  00222E                     __end_ofi2_displayLineOnLCD:
  9752                           	opt stack 0
  9753                           pclatu	equ	0xFFB
  9754                           pclath	equ	0xFFA
  9755                           tblptru	equ	0xFF8
  9756                           tblptrh	equ	0xFF7
  9757                           tblptrl	equ	0xFF6
  9758                           tablat	equ	0xFF5
  9759                           prodh	equ	0xFF4
  9760                           prodl	equ	0xFF3
  9761                           intcon	equ	0xFF2
  9762                           intcon2	equ	0xFF1
  9763                           indf0	equ	0xFEF
  9764                           postinc0	equ	0xFEE
  9765                           fsr0h	equ	0xFEA
  9766                           fsr0l	equ	0xFE9
  9767                           wreg	equ	0xFE8
  9768                           indf1	equ	0xFE7
  9769                           postdec1	equ	0xFE5
  9770                           fsr1h	equ	0xFE2
  9771                           fsr1l	equ	0xFE1
  9772                           bsr	equ	0xFE0
  9773                           indf2	equ	0xFDF
  9774                           postinc2	equ	0xFDE
  9775                           postdec2	equ	0xFDD
  9776                           fsr2h	equ	0xFDA
  9777                           fsr2l	equ	0xFD9
  9778                           status	equ	0xFD8
  9779                           
  9780 ;; *************** function i2_displayCharOnLCD *****************
  9781 ;; Defined at:
  9782 ;;		line 468 in file "SysRiego.c"
  9783 ;; Parameters:    Size  Location     Type
  9784 ;;  character       1    wreg     unsigned char 
  9785 ;; Auto vars:     Size  Location     Type
  9786 ;;  character       1    1[COMRAM] unsigned char 
  9787 ;; Return value:  Size  Location     Type
  9788 ;;                  1    wreg      void 
  9789 ;; Registers used:
  9790 ;;		wreg, status,2, status,0, cstack
  9791 ;; Tracked objects:
  9792 ;;		On entry : 0/0
  9793 ;;		On exit  : 0/0
  9794 ;;		Unchanged: 0/0
  9795 ;; Data sizes:     COMRAM   BANK0   BANK1   BANK2   BANK3   BANK4   BANK5   BANK6   BANK7   BANK8   BANK9  BANK10  BANK1
      +1  BANK12
  9796 ;;      Params:         0       0       0       0       0       0       0       0       0       0       0       0       
      +0       0
  9797 ;;      Locals:         1       0       0       0       0       0       0       0       0       0       0       0       
      +0       0
  9798 ;;      Temps:          0       0       0       0       0       0       0       0       0       0       0       0       
      +0       0
  9799 ;;      Totals:         1       0       0       0       0       0       0       0       0       0       0       0       
      +0       0
  9800 ;;Total ram usage:        1 bytes
  9801 ;; Hardware stack levels used:    1
  9802 ;; Hardware stack levels required when called:    1
  9803 ;; This function calls:
  9804 ;;		i2_shortDelay
  9805 ;; This function is called by:
  9806 ;;		i2_displayLineOnLCD
  9807 ;; This function uses a non-reentrant model
  9808 ;;
  9809                           
  9810                           	psect	text58
  9811  0027C8                     __ptext58:
  9812                           	opt stack 0
  9813  0027C8                     i2_displayCharOnLCD:
  9814                           	opt stack 17
  9815                           
  9816                           ;incstack = 0
  9817                           ;i2displayCharOnLCD@character stored from wreg
  9818  0027C8  6E02               	movwf	i2displayCharOnLCD@character,c
  9819                           
  9820                           ;SysRiego.c: 469: PORTD = character;
  9821  0027CA  C002  FF83         	movff	i2displayCharOnLCD@character,3971	;volatile
  9822                           
  9823                           ;SysRiego.c: 470: PORTCbits.RC0 = 1;
  9824  0027CE  8082               	bsf	3970,0,c	;volatile
  9825                           
  9826                           ;SysRiego.c: 471: PORTCbits.RC1 = 0;
  9827  0027D0  9282               	bcf	3970,1,c	;volatile
  9828                           
  9829                           ;SysRiego.c: 472: PORTCbits.RC2 = 1;
  9830  0027D2  8482               	bsf	3970,2,c	;volatile
  9831                           
  9832                           ;SysRiego.c: 473: shortDelay();
  9833  0027D4  EC0F  F014         	call	i2_shortDelay	;wreg free
  9834                           
  9835                           ;SysRiego.c: 474: PORTCbits.RC2 = 0;
  9836  0027D8  9482               	bcf	3970,2,c	;volatile
  9837  0027DA  0012               	return		;funcret
  9838  0027DC                     __end_ofi2_displayCharOnLCD:
  9839                           	opt stack 0
  9840                           pclatu	equ	0xFFB
  9841                           pclath	equ	0xFFA
  9842                           tblptru	equ	0xFF8
  9843                           tblptrh	equ	0xFF7
  9844                           tblptrl	equ	0xFF6
  9845                           tablat	equ	0xFF5
  9846                           prodh	equ	0xFF4
  9847                           prodl	equ	0xFF3
  9848                           intcon	equ	0xFF2
  9849                           intcon2	equ	0xFF1
  9850                           indf0	equ	0xFEF
  9851                           postinc0	equ	0xFEE
  9852                           fsr0h	equ	0xFEA
  9853                           fsr0l	equ	0xFE9
  9854                           wreg	equ	0xFE8
  9855                           indf1	equ	0xFE7
  9856                           postdec1	equ	0xFE5
  9857                           fsr1h	equ	0xFE2
  9858                           fsr1l	equ	0xFE1
  9859                           bsr	equ	0xFE0
  9860                           indf2	equ	0xFDF
  9861                           postinc2	equ	0xFDE
  9862                           postdec2	equ	0xFDD
  9863                           fsr2h	equ	0xFDA
  9864                           fsr2l	equ	0xFD9
  9865                           status	equ	0xFD8
  9866                           
  9867 ;; *************** function i2_clearDisplay *****************
  9868 ;; Defined at:
  9869 ;;		line 484 in file "SysRiego.c"
  9870 ;; Parameters:    Size  Location     Type
  9871 ;;		None
  9872 ;; Auto vars:     Size  Location     Type
  9873 ;;		None
  9874 ;; Return value:  Size  Location     Type
  9875 ;;                  1    wreg      void 
  9876 ;; Registers used:
  9877 ;;		wreg, status,2, status,0, cstack
  9878 ;; Tracked objects:
  9879 ;;		On entry : 0/0
  9880 ;;		On exit  : 0/0
  9881 ;;		Unchanged: 0/0
  9882 ;; Data sizes:     COMRAM   BANK0   BANK1   BANK2   BANK3   BANK4   BANK5   BANK6   BANK7   BANK8   BANK9  BANK10  BANK1
      +1  BANK12
  9883 ;;      Params:         0       0       0       0       0       0       0       0       0       0       0       0       
      +0       0
  9884 ;;      Locals:         0       0       0       0       0       0       0       0       0       0       0       0       
      +0       0
  9885 ;;      Temps:          0       0       0       0       0       0       0       0       0       0       0       0       
      +0       0
  9886 ;;      Totals:         0       0       0       0       0       0       0       0       0       0       0       0       
      +0       0
  9887 ;;Total ram usage:        0 bytes
  9888 ;; Hardware stack levels used:    1
  9889 ;; Hardware stack levels required when called:    2
  9890 ;; This function calls:
  9891 ;;		i2_command
  9892 ;;		i2_isReady
  9893 ;;		i2_shortDelay
  9894 ;; This function is called by:
  9895 ;;		_pressedKeyAction
  9896 ;; This function uses a non-reentrant model
  9897 ;;
  9898                           
  9899                           	psect	text59
  9900  002800                     __ptext59:
  9901                           	opt stack 0
  9902  002800                     i2_clearDisplay:
  9903                           	opt stack 17
  9904                           
  9905                           ;SysRiego.c: 485: command(0x01);
  9906                           
  9907                           ;incstack = 0
  9908  002800  0E01               	movlw	1
  9909  002802  ECEE  F013         	call	i2_command
  9910                           
  9911                           ;SysRiego.c: 486: shortDelay();
  9912  002806  EC0F  F014         	call	i2_shortDelay	;wreg free
  9913                           
  9914                           ;SysRiego.c: 487: isReady();
  9915  00280A  EC8A  F013         	call	i2_isReady	;wreg free
  9916  00280E  0012               	return		;funcret
  9917  002810                     __end_ofi2_clearDisplay:
  9918                           	opt stack 0
  9919                           pclatu	equ	0xFFB
  9920                           pclath	equ	0xFFA
  9921                           tblptru	equ	0xFF8
  9922                           tblptrh	equ	0xFF7
  9923                           tblptrl	equ	0xFF6
  9924                           tablat	equ	0xFF5
  9925                           prodh	equ	0xFF4
  9926                           prodl	equ	0xFF3
  9927                           intcon	equ	0xFF2
  9928                           intcon2	equ	0xFF1
  9929                           indf0	equ	0xFEF
  9930                           postinc0	equ	0xFEE
  9931                           fsr0h	equ	0xFEA
  9932                           fsr0l	equ	0xFE9
  9933                           wreg	equ	0xFE8
  9934                           indf1	equ	0xFE7
  9935                           postdec1	equ	0xFE5
  9936                           fsr1h	equ	0xFE2
  9937                           fsr1l	equ	0xFE1
  9938                           bsr	equ	0xFE0
  9939                           indf2	equ	0xFDF
  9940                           postinc2	equ	0xFDE
  9941                           postdec2	equ	0xFDD
  9942                           fsr2h	equ	0xFDA
  9943                           fsr2l	equ	0xFD9
  9944                           status	equ	0xFD8
  9945                           
  9946 ;; *************** function i2_isReady *****************
  9947 ;; Defined at:
  9948 ;;		line 455 in file "SysRiego.c"
  9949 ;; Parameters:    Size  Location     Type
  9950 ;;		None
  9951 ;; Auto vars:     Size  Location     Type
  9952 ;;		None
  9953 ;; Return value:  Size  Location     Type
  9954 ;;                  1    wreg      void 
  9955 ;; Registers used:
  9956 ;;		wreg, status,2, status,0, cstack
  9957 ;; Tracked objects:
  9958 ;;		On entry : 0/0
  9959 ;;		On exit  : 0/0
  9960 ;;		Unchanged: 0/0
  9961 ;; Data sizes:     COMRAM   BANK0   BANK1   BANK2   BANK3   BANK4   BANK5   BANK6   BANK7   BANK8   BANK9  BANK10  BANK1
      +1  BANK12
  9962 ;;      Params:         0       0       0       0       0       0       0       0       0       0       0       0       
      +0       0
  9963 ;;      Locals:         0       0       0       0       0       0       0       0       0       0       0       0       
      +0       0
  9964 ;;      Temps:          0       0       0       0       0       0       0       0       0       0       0       0       
      +0       0
  9965 ;;      Totals:         0       0       0       0       0       0       0       0       0       0       0       0       
      +0       0
  9966 ;;Total ram usage:        0 bytes
  9967 ;; Hardware stack levels used:    1
  9968 ;; Hardware stack levels required when called:    1
  9969 ;; This function calls:
  9970 ;;		i2_portDAsInput
  9971 ;;		i2_portDAsOutput
  9972 ;;		i2_shortDelay
  9973 ;; This function is called by:
  9974 ;;		_pressedKeyAction
  9975 ;;		i2_clearDisplay
  9976 ;; This function uses a non-reentrant model
  9977 ;;
  9978                           
  9979                           	psect	text60
  9980  002714                     __ptext60:
  9981                           	opt stack 0
  9982  002714                     i2_isReady:
  9983                           	opt stack 18
  9984                           
  9985                           ;SysRiego.c: 456: portDAsInput();
  9986                           
  9987                           ;incstack = 0
  9988  002714  EC3C  F014         	call	i2_portDAsInput	;wreg free
  9989                           
  9990                           ;SysRiego.c: 457: PORTCbits.RC0 = 0;
  9991  002718  9082               	bcf	3970,0,c	;volatile
  9992                           
  9993                           ;SysRiego.c: 458: PORTCbits.RC1 = 1;
  9994  00271A  8282               	bsf	3970,1,c	;volatile
  9995                           
  9996                           ;SysRiego.c: 460: while(PORTDbits.RD7 == 1){
  9997  00271C  D004               	goto	i2l3126
  9998  00271E                     i2l308:
  9999                           
 10000                           ;SysRiego.c: 461: PORTCbits.RC2 = 1;
 10001  00271E  8482               	bsf	3970,2,c	;volatile
 10002                           
 10003                           ;SysRiego.c: 462: shortDelay();
 10004  002720  EC0F  F014         	call	i2_shortDelay	;wreg free
 10005                           
 10006                           ;SysRiego.c: 463: PORTCbits.RC2 = 0;
 10007  002724  9482               	bcf	3970,2,c	;volatile
 10008  002726                     i2l3126:
 10009  002726  BE83               	btfsc	3971,7,c	;volatile
 10010  002728  D7FA               	goto	i2l308
 10011                           
 10012                           ;SysRiego.c: 464: }
 10013                           ;SysRiego.c: 465: portDAsOutput();
 10014  00272A  EC37  F014         	call	i2_portDAsOutput	;wreg free
 10015  00272E  0012               	return		;funcret
 10016  002730                     __end_ofi2_isReady:
 10017                           	opt stack 0
 10018                           pclatu	equ	0xFFB
 10019                           pclath	equ	0xFFA
 10020                           tblptru	equ	0xFF8
 10021                           tblptrh	equ	0xFF7
 10022                           tblptrl	equ	0xFF6
 10023                           tablat	equ	0xFF5
 10024                           prodh	equ	0xFF4
 10025                           prodl	equ	0xFF3
 10026                           intcon	equ	0xFF2
 10027                           intcon2	equ	0xFF1
 10028                           indf0	equ	0xFEF
 10029                           postinc0	equ	0xFEE
 10030                           fsr0h	equ	0xFEA
 10031                           fsr0l	equ	0xFE9
 10032                           wreg	equ	0xFE8
 10033                           indf1	equ	0xFE7
 10034                           postdec1	equ	0xFE5
 10035                           fsr1h	equ	0xFE2
 10036                           fsr1l	equ	0xFE1
 10037                           bsr	equ	0xFE0
 10038                           indf2	equ	0xFDF
 10039                           postinc2	equ	0xFDE
 10040                           postdec2	equ	0xFDD
 10041                           fsr2h	equ	0xFDA
 10042                           fsr2l	equ	0xFD9
 10043                           status	equ	0xFD8
 10044                           
 10045 ;; *************** function i2_portDAsOutput *****************
 10046 ;; Defined at:
 10047 ;;		line 410 in file "SysRiego.c"
 10048 ;; Parameters:    Size  Location     Type
 10049 ;;		None
 10050 ;; Auto vars:     Size  Location     Type
 10051 ;;		None
 10052 ;; Return value:  Size  Location     Type
 10053 ;;                  1    wreg      void 
 10054 ;; Registers used:
 10055 ;;		wreg, status,2
 10056 ;; Tracked objects:
 10057 ;;		On entry : 0/0
 10058 ;;		On exit  : 0/0
 10059 ;;		Unchanged: 0/0
 10060 ;; Data sizes:     COMRAM   BANK0   BANK1   BANK2   BANK3   BANK4   BANK5   BANK6   BANK7   BANK8   BANK9  BANK10  BANK1
      +1  BANK12
 10061 ;;      Params:         0       0       0       0       0       0       0       0       0       0       0       0       
      +0       0
 10062 ;;      Locals:         0       0       0       0       0       0       0       0       0       0       0       0       
      +0       0
 10063 ;;      Temps:          0       0       0       0       0       0       0       0       0       0       0       0       
      +0       0
 10064 ;;      Totals:         0       0       0       0       0       0       0       0       0       0       0       0       
      +0       0
 10065 ;;Total ram usage:        0 bytes
 10066 ;; Hardware stack levels used:    1
 10067 ;; This function calls:
 10068 ;;		Nothing
 10069 ;; This function is called by:
 10070 ;;		i2_isReady
 10071 ;; This function uses a non-reentrant model
 10072 ;;
 10073                           
 10074                           	psect	text61
 10075  00286E                     __ptext61:
 10076                           	opt stack 0
 10077  00286E                     i2_portDAsOutput:
 10078                           	opt stack 18
 10079                           
 10080                           ;SysRiego.c: 411: TRISD = 0x00;
 10081                           
 10082                           ;incstack = 0
 10083  00286E  0E00               	movlw	0
 10084  002870  6E95               	movwf	3989,c	;volatile
 10085  002872  0012               	return		;funcret
 10086  002874                     __end_ofi2_portDAsOutput:
 10087                           	opt stack 0
 10088                           pclatu	equ	0xFFB
 10089                           pclath	equ	0xFFA
 10090                           tblptru	equ	0xFF8
 10091                           tblptrh	equ	0xFF7
 10092                           tblptrl	equ	0xFF6
 10093                           tablat	equ	0xFF5
 10094                           prodh	equ	0xFF4
 10095                           prodl	equ	0xFF3
 10096                           intcon	equ	0xFF2
 10097                           intcon2	equ	0xFF1
 10098                           indf0	equ	0xFEF
 10099                           postinc0	equ	0xFEE
 10100                           fsr0h	equ	0xFEA
 10101                           fsr0l	equ	0xFE9
 10102                           wreg	equ	0xFE8
 10103                           indf1	equ	0xFE7
 10104                           postdec1	equ	0xFE5
 10105                           fsr1h	equ	0xFE2
 10106                           fsr1l	equ	0xFE1
 10107                           bsr	equ	0xFE0
 10108                           indf2	equ	0xFDF
 10109                           postinc2	equ	0xFDE
 10110                           postdec2	equ	0xFDD
 10111                           fsr2h	equ	0xFDA
 10112                           fsr2l	equ	0xFD9
 10113                           status	equ	0xFD8
 10114                           
 10115 ;; *************** function i2_portDAsInput *****************
 10116 ;; Defined at:
 10117 ;;		line 406 in file "SysRiego.c"
 10118 ;; Parameters:    Size  Location     Type
 10119 ;;		None
 10120 ;; Auto vars:     Size  Location     Type
 10121 ;;		None
 10122 ;; Return value:  Size  Location     Type
 10123 ;;                  1    wreg      void 
 10124 ;; Registers used:
 10125 ;;		None
 10126 ;; Tracked objects:
 10127 ;;		On entry : 0/0
 10128 ;;		On exit  : 0/0
 10129 ;;		Unchanged: 0/0
 10130 ;; Data sizes:     COMRAM   BANK0   BANK1   BANK2   BANK3   BANK4   BANK5   BANK6   BANK7   BANK8   BANK9  BANK10  BANK1
      +1  BANK12
 10131 ;;      Params:         0       0       0       0       0       0       0       0       0       0       0       0       
      +0       0
 10132 ;;      Locals:         0       0       0       0       0       0       0       0       0       0       0       0       
      +0       0
 10133 ;;      Temps:          0       0       0       0       0       0       0       0       0       0       0       0       
      +0       0
 10134 ;;      Totals:         0       0       0       0       0       0       0       0       0       0       0       0       
      +0       0
 10135 ;;Total ram usage:        0 bytes
 10136 ;; Hardware stack levels used:    1
 10137 ;; This function calls:
 10138 ;;		Nothing
 10139 ;; This function is called by:
 10140 ;;		i2_isReady
 10141 ;; This function uses a non-reentrant model
 10142 ;;
 10143                           
 10144                           	psect	text62
 10145  002878                     __ptext62:
 10146                           	opt stack 0
 10147  002878                     i2_portDAsInput:
 10148                           	opt stack 18
 10149                           
 10150                           ;SysRiego.c: 407: TRISD = 0xFF;
 10151                           
 10152                           ;incstack = 0
 10153  002878  6895               	setf	3989,c	;volatile
 10154  00287A  0012               	return		;funcret
 10155  00287C                     __end_ofi2_portDAsInput:
 10156                           	opt stack 0
 10157                           pclatu	equ	0xFFB
 10158                           pclath	equ	0xFFA
 10159                           tblptru	equ	0xFF8
 10160                           tblptrh	equ	0xFF7
 10161                           tblptrl	equ	0xFF6
 10162                           tablat	equ	0xFF5
 10163                           prodh	equ	0xFF4
 10164                           prodl	equ	0xFF3
 10165                           intcon	equ	0xFF2
 10166                           intcon2	equ	0xFF1
 10167                           indf0	equ	0xFEF
 10168                           postinc0	equ	0xFEE
 10169                           fsr0h	equ	0xFEA
 10170                           fsr0l	equ	0xFE9
 10171                           wreg	equ	0xFE8
 10172                           indf1	equ	0xFE7
 10173                           postdec1	equ	0xFE5
 10174                           fsr1h	equ	0xFE2
 10175                           fsr1l	equ	0xFE1
 10176                           bsr	equ	0xFE0
 10177                           indf2	equ	0xFDF
 10178                           postinc2	equ	0xFDE
 10179                           postdec2	equ	0xFDD
 10180                           fsr2h	equ	0xFDA
 10181                           fsr2l	equ	0xFD9
 10182                           status	equ	0xFD8
 10183                           
 10184 ;; *************** function i2_command *****************
 10185 ;; Defined at:
 10186 ;;		line 446 in file "SysRiego.c"
 10187 ;; Parameters:    Size  Location     Type
 10188 ;;  x               1    wreg     unsigned char 
 10189 ;; Auto vars:     Size  Location     Type
 10190 ;;  x               1    1[COMRAM] unsigned char 
 10191 ;; Return value:  Size  Location     Type
 10192 ;;                  1    wreg      void 
 10193 ;; Registers used:
 10194 ;;		wreg, status,2, status,0, cstack
 10195 ;; Tracked objects:
 10196 ;;		On entry : 0/0
 10197 ;;		On exit  : 0/0
 10198 ;;		Unchanged: 0/0
 10199 ;; Data sizes:     COMRAM   BANK0   BANK1   BANK2   BANK3   BANK4   BANK5   BANK6   BANK7   BANK8   BANK9  BANK10  BANK1
      +1  BANK12
 10200 ;;      Params:         0       0       0       0       0       0       0       0       0       0       0       0       
      +0       0
 10201 ;;      Locals:         1       0       0       0       0       0       0       0       0       0       0       0       
      +0       0
 10202 ;;      Temps:          0       0       0       0       0       0       0       0       0       0       0       0       
      +0       0
 10203 ;;      Totals:         1       0       0       0       0       0       0       0       0       0       0       0       
      +0       0
 10204 ;;Total ram usage:        1 bytes
 10205 ;; Hardware stack levels used:    1
 10206 ;; Hardware stack levels required when called:    1
 10207 ;; This function calls:
 10208 ;;		i2_shortDelay
 10209 ;; This function is called by:
 10210 ;;		_pressedKeyAction
 10211 ;;		i2_clearDisplay
 10212 ;; This function uses a non-reentrant model
 10213 ;;
 10214                           
 10215                           	psect	text63
 10216  0027DC                     __ptext63:
 10217                           	opt stack 0
 10218  0027DC                     i2_command:
 10219                           	opt stack 18
 10220                           
 10221                           ;incstack = 0
 10222                           ;i2command@x stored from wreg
 10223  0027DC  6E02               	movwf	i2command@x,c
 10224                           
 10225                           ;SysRiego.c: 447: PORTD = x;
 10226  0027DE  C002  FF83         	movff	i2command@x,3971	;volatile
 10227                           
 10228                           ;SysRiego.c: 448: PORTCbits.RC0 = 0;
 10229  0027E2  9082               	bcf	3970,0,c	;volatile
 10230                           
 10231                           ;SysRiego.c: 449: PORTCbits.RC1 = 0;
 10232  0027E4  9282               	bcf	3970,1,c	;volatile
 10233                           
 10234                           ;SysRiego.c: 450: PORTCbits.RC2 = 1;
 10235  0027E6  8482               	bsf	3970,2,c	;volatile
 10236                           
 10237                           ;SysRiego.c: 451: shortDelay();
 10238  0027E8  EC0F  F014         	call	i2_shortDelay	;wreg free
 10239                           
 10240                           ;SysRiego.c: 452: PORTCbits.RC2 = 0;
 10241  0027EC  9482               	bcf	3970,2,c	;volatile
 10242  0027EE  0012               	return		;funcret
 10243  0027F0                     __end_ofi2_command:
 10244                           	opt stack 0
 10245                           pclatu	equ	0xFFB
 10246                           pclath	equ	0xFFA
 10247                           tblptru	equ	0xFF8
 10248                           tblptrh	equ	0xFF7
 10249                           tblptrl	equ	0xFF6
 10250                           tablat	equ	0xFF5
 10251                           prodh	equ	0xFF4
 10252                           prodl	equ	0xFF3
 10253                           intcon	equ	0xFF2
 10254                           intcon2	equ	0xFF1
 10255                           indf0	equ	0xFEF
 10256                           postinc0	equ	0xFEE
 10257                           fsr0h	equ	0xFEA
 10258                           fsr0l	equ	0xFE9
 10259                           wreg	equ	0xFE8
 10260                           indf1	equ	0xFE7
 10261                           postdec1	equ	0xFE5
 10262                           fsr1h	equ	0xFE2
 10263                           fsr1l	equ	0xFE1
 10264                           bsr	equ	0xFE0
 10265                           indf2	equ	0xFDF
 10266                           postinc2	equ	0xFDE
 10267                           postdec2	equ	0xFDD
 10268                           fsr2h	equ	0xFDA
 10269                           fsr2l	equ	0xFD9
 10270                           status	equ	0xFD8
 10271                           
 10272 ;; *************** function i2_shortDelay *****************
 10273 ;; Defined at:
 10274 ;;		line 426 in file "SysRiego.c"
 10275 ;; Parameters:    Size  Location     Type
 10276 ;;		None
 10277 ;; Auto vars:     Size  Location     Type
 10278 ;;  shortDelay      1    0[COMRAM] unsigned char 
 10279 ;; Return value:  Size  Location     Type
 10280 ;;                  1    wreg      void 
 10281 ;; Registers used:
 10282 ;;		wreg, status,2, status,0
 10283 ;; Tracked objects:
 10284 ;;		On entry : 0/0
 10285 ;;		On exit  : 0/0
 10286 ;;		Unchanged: 0/0
 10287 ;; Data sizes:     COMRAM   BANK0   BANK1   BANK2   BANK3   BANK4   BANK5   BANK6   BANK7   BANK8   BANK9  BANK10  BANK1
      +1  BANK12
 10288 ;;      Params:         0       0       0       0       0       0       0       0       0       0       0       0       
      +0       0
 10289 ;;      Locals:         1       0       0       0       0       0       0       0       0       0       0       0       
      +0       0
 10290 ;;      Temps:          0       0       0       0       0       0       0       0       0       0       0       0       
      +0       0
 10291 ;;      Totals:         1       0       0       0       0       0       0       0       0       0       0       0       
      +0       0
 10292 ;;Total ram usage:        1 bytes
 10293 ;; Hardware stack levels used:    1
 10294 ;; This function calls:
 10295 ;;		Nothing
 10296 ;; This function is called by:
 10297 ;;		i2_command
 10298 ;;		i2_isReady
 10299 ;;		i2_displayCharOnLCD
 10300 ;;		i2_clearDisplay
 10301 ;; This function uses a non-reentrant model
 10302 ;;
 10303                           
 10304                           	psect	text64
 10305  00281E                     __ptext64:
 10306                           	opt stack 0
 10307  00281E                     i2_shortDelay:
 10308                           	opt stack 18
 10309                           
 10310                           ;SysRiego.c: 427: unsigned char L1REG = 2;
 10311                           
 10312                           ;incstack = 0
 10313  00281E  0E02               	movlw	2
 10314  002820  6E01               	movwf	i2shortDelay@L1REG,c
 10315  002822                     i2l2858:
 10316  002822  0601               	decf	i2shortDelay@L1REG,f,c
 10317  002824  2801               	incf	i2shortDelay@L1REG,w,c
 10318  002826  B4D8               	btfsc	status,2,c
 10319  002828  0012               	return	
 10320  00282A  D7FB               	goto	i2l2858
 10321  00282C                     __end_ofi2_shortDelay:
 10322                           	opt stack 0
 10323                           pclatu	equ	0xFFB
 10324                           pclath	equ	0xFFA
 10325                           tblptru	equ	0xFF8
 10326                           tblptrh	equ	0xFF7
 10327                           tblptrl	equ	0xFF6
 10328                           tablat	equ	0xFF5
 10329                           prodh	equ	0xFF4
 10330                           prodl	equ	0xFF3
 10331                           intcon	equ	0xFF2
 10332                           intcon2	equ	0xFF1
 10333                           indf0	equ	0xFEF
 10334                           postinc0	equ	0xFEE
 10335                           fsr0h	equ	0xFEA
 10336                           fsr0l	equ	0xFE9
 10337                           wreg	equ	0xFE8
 10338                           indf1	equ	0xFE7
 10339                           postdec1	equ	0xFE5
 10340                           fsr1h	equ	0xFE2
 10341                           fsr1l	equ	0xFE1
 10342                           bsr	equ	0xFE0
 10343                           indf2	equ	0xFDF
 10344                           postinc2	equ	0xFDE
 10345                           postdec2	equ	0xFDD
 10346                           fsr2h	equ	0xFDA
 10347                           fsr2l	equ	0xFD9
 10348                           status	equ	0xFD8
 10349                           
 10350 ;; *************** function _irrigateManual *****************
 10351 ;; Defined at:
 10352 ;;		line 1461 in file "SysRiego.c"
 10353 ;; Parameters:    Size  Location     Type
 10354 ;;		None
 10355 ;; Auto vars:     Size  Location     Type
 10356 ;;		None
 10357 ;; Return value:  Size  Location     Type
 10358 ;;                  1    wreg      void 
 10359 ;; Registers used:
 10360 ;;		wreg, status,2, status,0, cstack
 10361 ;; Tracked objects:
 10362 ;;		On entry : 0/0
 10363 ;;		On exit  : 0/0
 10364 ;;		Unchanged: 0/0
 10365 ;; Data sizes:     COMRAM   BANK0   BANK1   BANK2   BANK3   BANK4   BANK5   BANK6   BANK7   BANK8   BANK9  BANK10  BANK1
      +1  BANK12
 10366 ;;      Params:         0       0       0       0       0       0       0       0       0       0       0       0       
      +0       0
 10367 ;;      Locals:         0       0       0       0       0       0       0       0       0       0       0       0       
      +0       0
 10368 ;;      Temps:          0       0       0       0       0       0       0       0       0       0       0       0       
      +0       0
 10369 ;;      Totals:         0       0       0       0       0       0       0       0       0       0       0       0       
      +0       0
 10370 ;;Total ram usage:        0 bytes
 10371 ;; Hardware stack levels used:    1
 10372 ;; Hardware stack levels required when called:    1
 10373 ;; This function calls:
 10374 ;;		i2_startIrrigation
 10375 ;; This function is called by:
 10376 ;;		_pressedKeyAction
 10377 ;; This function uses a non-reentrant model
 10378 ;;
 10379                           
 10380                           	psect	text65
 10381  002468                     __ptext65:
 10382                           	opt stack 0
 10383  002468                     _irrigateManual:
 10384                           	opt stack 18
 10385                           
 10386                           ;SysRiego.c: 1463: if(manualZn1Val == '1') {
 10387                           
 10388                           ;incstack = 0
 10389  002468  0E31               	movlw	49
 10390  00246A  1839               	xorwf	_manualZn1Val,w,c
 10391  00246C  A4D8               	btfss	status,2,c
 10392  00246E  D003               	goto	i2l3172
 10393                           
 10394                           ;SysRiego.c: 1464: startIrrigation(1);
 10395  002470  0E01               	movlw	1
 10396  002472  EC06  F013         	call	i2_startIrrigation
 10397  002476                     i2l3172:
 10398                           
 10399                           ;SysRiego.c: 1465: }
 10400                           ;SysRiego.c: 1467: if(manualZn2Val == '1') {
 10401  002476  0E31               	movlw	49
 10402  002478  183A               	xorwf	_manualZn2Val,w,c
 10403  00247A  A4D8               	btfss	status,2,c
 10404  00247C  D003               	goto	i2l3176
 10405                           
 10406                           ;SysRiego.c: 1468: startIrrigation(2);
 10407  00247E  0E02               	movlw	2
 10408  002480  EC06  F013         	call	i2_startIrrigation
 10409  002484                     i2l3176:
 10410                           
 10411                           ;SysRiego.c: 1469: }
 10412                           ;SysRiego.c: 1471: if(manualZn3Val == '1') {
 10413  002484  0E31               	movlw	49
 10414  002486  183B               	xorwf	_manualZn3Val,w,c
 10415  002488  A4D8               	btfss	status,2,c
 10416  00248A  D003               	goto	i2l3180
 10417                           
 10418                           ;SysRiego.c: 1472: startIrrigation(3);
 10419  00248C  0E03               	movlw	3
 10420  00248E  EC06  F013         	call	i2_startIrrigation
 10421  002492                     i2l3180:
 10422                           
 10423                           ;SysRiego.c: 1473: }
 10424                           ;SysRiego.c: 1475: irrigateManualStatus = 1;
 10425  002492  0E01               	movlw	1
 10426  002494  6E3F               	movwf	_irrigateManualStatus,c
 10427  002496  0012               	return		;funcret
 10428  002498                     __end_of_irrigateManual:
 10429                           	opt stack 0
 10430                           pclatu	equ	0xFFB
 10431                           pclath	equ	0xFFA
 10432                           tblptru	equ	0xFF8
 10433                           tblptrh	equ	0xFF7
 10434                           tblptrl	equ	0xFF6
 10435                           tablat	equ	0xFF5
 10436                           prodh	equ	0xFF4
 10437                           prodl	equ	0xFF3
 10438                           intcon	equ	0xFF2
 10439                           intcon2	equ	0xFF1
 10440                           indf0	equ	0xFEF
 10441                           postinc0	equ	0xFEE
 10442                           fsr0h	equ	0xFEA
 10443                           fsr0l	equ	0xFE9
 10444                           wreg	equ	0xFE8
 10445                           indf1	equ	0xFE7
 10446                           postdec1	equ	0xFE5
 10447                           fsr1h	equ	0xFE2
 10448                           fsr1l	equ	0xFE1
 10449                           bsr	equ	0xFE0
 10450                           indf2	equ	0xFDF
 10451                           postinc2	equ	0xFDE
 10452                           postdec2	equ	0xFDD
 10453                           fsr2h	equ	0xFDA
 10454                           fsr2l	equ	0xFD9
 10455                           status	equ	0xFD8
 10456                           
 10457 ;; *************** function i2_startIrrigation *****************
 10458 ;; Defined at:
 10459 ;;		line 1421 in file "SysRiego.c"
 10460 ;; Parameters:    Size  Location     Type
 10461 ;;  zone            1    wreg     unsigned char 
 10462 ;; Auto vars:     Size  Location     Type
 10463 ;;  zone            1    0[COMRAM] unsigned char 
 10464 ;; Return value:  Size  Location     Type
 10465 ;;                  1    wreg      void 
 10466 ;; Registers used:
 10467 ;;		wreg, status,2, status,0
 10468 ;; Tracked objects:
 10469 ;;		On entry : 0/0
 10470 ;;		On exit  : 0/0
 10471 ;;		Unchanged: 0/0
 10472 ;; Data sizes:     COMRAM   BANK0   BANK1   BANK2   BANK3   BANK4   BANK5   BANK6   BANK7   BANK8   BANK9  BANK10  BANK1
      +1  BANK12
 10473 ;;      Params:         0       0       0       0       0       0       0       0       0       0       0       0       
      +0       0
 10474 ;;      Locals:         1       0       0       0       0       0       0       0       0       0       0       0       
      +0       0
 10475 ;;      Temps:          0       0       0       0       0       0       0       0       0       0       0       0       
      +0       0
 10476 ;;      Totals:         1       0       0       0       0       0       0       0       0       0       0       0       
      +0       0
 10477 ;;Total ram usage:        1 bytes
 10478 ;; Hardware stack levels used:    1
 10479 ;; This function calls:
 10480 ;;		Nothing
 10481 ;; This function is called by:
 10482 ;;		_irrigateManual
 10483 ;; This function uses a non-reentrant model
 10484 ;;
 10485                           
 10486                           	psect	text66
 10487  00260C                     __ptext66:
 10488                           	opt stack 0
 10489  00260C                     i2_startIrrigation:
 10490                           	opt stack 18
 10491                           
 10492                           ;incstack = 0
 10493                           ;i2startIrrigation@zone stored from wreg
 10494  00260C  6E01               	movwf	i2startIrrigation@zone,c
 10495                           
 10496                           ;SysRiego.c: 1423: switch(zone) {
 10497  00260E  D006               	goto	i2l3146
 10498  002610                     i2l627:
 10499                           
 10500                           ;SysRiego.c: 1426: PORTEbits.RE0 = 1;
 10501  002610  8084               	bsf	3972,0,c	;volatile
 10502                           
 10503                           ;SysRiego.c: 1427: break;
 10504  002612  0012               	return	
 10505  002614                     i2l629:
 10506                           
 10507                           ;SysRiego.c: 1430: PORTEbits.RE1 = 1;
 10508  002614  8284               	bsf	3972,1,c	;volatile
 10509                           
 10510                           ;SysRiego.c: 1431: break;
 10511  002616  0012               	return	
 10512  002618                     i2l630:
 10513                           
 10514                           ;SysRiego.c: 1434: PORTEbits.RE2 = 1;
 10515  002618  8484               	bsf	3972,2,c	;volatile
 10516                           
 10517                           ;SysRiego.c: 1437: }
 10518                           
 10519                           ;SysRiego.c: 1435: break;
 10520  00261A  0012               	return	
 10521  00261C                     i2l3146:
 10522  00261C  5001               	movf	i2startIrrigation@zone,w,c
 10523                           
 10524                           ; Switch size 1, requested type "space"
 10525                           ; Number of cases is 3, Range of values is 1 to 3
 10526                           ; switch strategies available:
 10527                           ; Name         Instructions Cycles
 10528                           ; simple_byte           10     6 (average)
 10529                           ;	Chosen strategy is simple_byte
 10530  00261E  0A01               	xorlw	1	; case 1
 10531  002620  B4D8               	btfsc	status,2,c
 10532  002622  D7F6               	goto	i2l627
 10533  002624  0A03               	xorlw	3	; case 2
 10534  002626  B4D8               	btfsc	status,2,c
 10535  002628  D7F5               	goto	i2l629
 10536  00262A  0A01               	xorlw	1	; case 3
 10537  00262C  A4D8               	btfss	status,2,c
 10538  00262E  0012               	return	
 10539  002630  D7F3               	goto	i2l630
 10540  002632                     __end_ofi2_startIrrigation:
 10541                           	opt stack 0
 10542                           pclatu	equ	0xFFB
 10543                           pclath	equ	0xFFA
 10544                           tblptru	equ	0xFF8
 10545                           tblptrh	equ	0xFF7
 10546                           tblptrl	equ	0xFF6
 10547                           tablat	equ	0xFF5
 10548                           prodh	equ	0xFF4
 10549                           prodl	equ	0xFF3
 10550                           intcon	equ	0xFF2
 10551                           intcon2	equ	0xFF1
 10552                           indf0	equ	0xFEF
 10553                           postinc0	equ	0xFEE
 10554                           fsr0h	equ	0xFEA
 10555                           fsr0l	equ	0xFE9
 10556                           wreg	equ	0xFE8
 10557                           indf1	equ	0xFE7
 10558                           postdec1	equ	0xFE5
 10559                           fsr1h	equ	0xFE2
 10560                           fsr1l	equ	0xFE1
 10561                           bsr	equ	0xFE0
 10562                           indf2	equ	0xFDF
 10563                           postinc2	equ	0xFDE
 10564                           postdec2	equ	0xFDD
 10565                           fsr2h	equ	0xFDA
 10566                           fsr2l	equ	0xFD9
 10567                           status	equ	0xFD8
 10568                           pclatu	equ	0xFFB
 10569                           pclath	equ	0xFFA
 10570                           tblptru	equ	0xFF8
 10571                           tblptrh	equ	0xFF7
 10572                           tblptrl	equ	0xFF6
 10573                           tablat	equ	0xFF5
 10574                           prodh	equ	0xFF4
 10575                           prodl	equ	0xFF3
 10576                           intcon	equ	0xFF2
 10577                           intcon2	equ	0xFF1
 10578                           indf0	equ	0xFEF
 10579                           postinc0	equ	0xFEE
 10580                           fsr0h	equ	0xFEA
 10581                           fsr0l	equ	0xFE9
 10582                           wreg	equ	0xFE8
 10583                           indf1	equ	0xFE7
 10584                           postdec1	equ	0xFE5
 10585                           fsr1h	equ	0xFE2
 10586                           fsr1l	equ	0xFE1
 10587                           bsr	equ	0xFE0
 10588                           indf2	equ	0xFDF
 10589                           postinc2	equ	0xFDE
 10590                           postdec2	equ	0xFDD
 10591                           fsr2h	equ	0xFDA
 10592                           fsr2l	equ	0xFD9
 10593                           status	equ	0xFD8
 10594                           
 10595                           	psect	rparam
 10596  0000                     pclatu	equ	0xFFB
 10597                           pclath	equ	0xFFA
 10598                           tblptru	equ	0xFF8
 10599                           tblptrh	equ	0xFF7
 10600                           tblptrl	equ	0xFF6
 10601                           tablat	equ	0xFF5
 10602                           prodh	equ	0xFF4
 10603                           prodl	equ	0xFF3
 10604                           intcon	equ	0xFF2
 10605                           intcon2	equ	0xFF1
 10606                           indf0	equ	0xFEF
 10607                           postinc0	equ	0xFEE
 10608                           fsr0h	equ	0xFEA
 10609                           fsr0l	equ	0xFE9
 10610                           wreg	equ	0xFE8
 10611                           indf1	equ	0xFE7
 10612                           postdec1	equ	0xFE5
 10613                           fsr1h	equ	0xFE2
 10614                           fsr1l	equ	0xFE1
 10615                           bsr	equ	0xFE0
 10616                           indf2	equ	0xFDF
 10617                           postinc2	equ	0xFDE
 10618                           postdec2	equ	0xFDD
 10619                           fsr2h	equ	0xFDA
 10620                           fsr2l	equ	0xFD9
 10621                           status	equ	0xFD8
 10622                           
 10623                           	psect	temp
 10624  000043                     btemp:
 10625                           	opt stack 0
 10626  000043                     	ds	1
 10627  0000                     int$flags	set	btemp
 10628                           pclatu	equ	0xFFB
 10629                           pclath	equ	0xFFA
 10630                           tblptru	equ	0xFF8
 10631                           tblptrh	equ	0xFF7
 10632                           tblptrl	equ	0xFF6
 10633                           tablat	equ	0xFF5
 10634                           prodh	equ	0xFF4
 10635                           prodl	equ	0xFF3
 10636                           intcon	equ	0xFF2
 10637                           intcon2	equ	0xFF1
 10638                           indf0	equ	0xFEF
 10639                           postinc0	equ	0xFEE
 10640                           fsr0h	equ	0xFEA
 10641                           fsr0l	equ	0xFE9
 10642                           wreg	equ	0xFE8
 10643                           indf1	equ	0xFE7
 10644                           postdec1	equ	0xFE5
 10645                           fsr1h	equ	0xFE2
 10646                           fsr1l	equ	0xFE1
 10647                           bsr	equ	0xFE0
 10648                           indf2	equ	0xFDF
 10649                           postinc2	equ	0xFDE
 10650                           postdec2	equ	0xFDD
 10651                           fsr2h	equ	0xFDA
 10652                           fsr2l	equ	0xFD9
 10653                           status	equ	0xFD8


Data Sizes:
    Strings     19
    Constant    0
    Data        217
    BSS         13
    Persistent  0
    Stack       0

Auto Spaces:
    Space          Size  Autos    Used
    COMRAM           94     31      66
    BANK0           160     27     143
    BANK1           256     27     106
    BANK2           256      0       0
    BANK3           256      0       0
    BANK4           256      0       0
    BANK5           256      0       0
    BANK6           256      0       0
    BANK7           256      0       0
    BANK8           256      0       0
    BANK9           256      0       0
    BANK10          256      0       0
    BANK11          256      0       0
    BANK12          256      0       0

Pointer List with Targets:

    clearEndTimes@zoneEndTime	PTR unsigned char  size(2) Largest target is 5
		 -> endTimeZn3(BANK0[5]), endTimeZn2(BANK0[5]), endTimeZn1(BANK0[5]), 

    convertCharsToInt@humidityValue	PTR unsigned char  size(2) Largest target is 3
		 -> NULL(NULL[0]), manualZn3Val(COMRAM[1]), humidityZn3Val(COMRAM[3]), manualZn2Val(COMRAM[1]), 
		 -> humidityZn2Val(COMRAM[3]), manualZn1Val(COMRAM[1]), humidityZn1Val(COMRAM[3]), 

    updateEndTime@irrigateTimeZn	PTR unsigned char  size(2) Largest target is 3
		 -> irrigateTimeZn3(BANK0[3]), irrigateTimeZn2(BANK0[3]), irrigateTimeZn1(BANK0[3]), 

    updateEndTime@zoneTime	PTR unsigned char  size(2) Largest target is 5
		 -> time3Zn3(BANK0[5]), time2Zn3(BANK0[5]), time1Zn3(BANK0[5]), time3Zn2(BANK0[5]), 
		 -> time2Zn2(BANK0[5]), time1Zn2(BANK0[5]), time3Zn1(BANK0[5]), time2Zn1(BANK0[5]), 
		 -> time1Zn1(BANK0[5]), 

    updateEndTime@endTimeZn	PTR unsigned char  size(2) Largest target is 5
		 -> endTimeZn3(BANK0[5]), endTimeZn2(BANK0[5]), endTimeZn1(BANK0[5]), 

    workingTimer@endTimeZn	PTR unsigned char  size(2) Largest target is 5
		 -> endTimeZn3(BANK0[5]), endTimeZn2(BANK0[5]), endTimeZn1(BANK0[5]), 

    workingTimer@zoneTime	PTR unsigned char  size(2) Largest target is 5
		 -> time3Zn3(BANK0[5]), time2Zn3(BANK0[5]), time1Zn3(BANK0[5]), time3Zn2(BANK0[5]), 
		 -> time2Zn2(BANK0[5]), time1Zn2(BANK0[5]), time3Zn1(BANK0[5]), time2Zn1(BANK0[5]), 
		 -> time1Zn1(BANK0[5]), 

    humidityZnValInt	PTR unsigned char  size(2) Largest target is 1
		 -> NULL(NULL[0]), humidityZn3ValInt(COMRAM[1]), humidityZn2ValInt(COMRAM[1]), humidityZn1ValInt(COMRAM[1]), 

    zoneSelected	PTR unsigned char  size(2) Largest target is 3
		 -> NULL(NULL[0]), manualZn3Val(COMRAM[1]), humidityZn3Val(COMRAM[3]), manualZn2Val(COMRAM[1]), 
		 -> humidityZn2Val(COMRAM[3]), manualZn1Val(COMRAM[1]), humidityZn1Val(COMRAM[3]), 

    displayLineOnLCD@array	PTR unsigned char  size(2) Largest target is 15
		 -> dayName(BANK0[4]), STR_3(CODE[7]), STR_2(CODE[6]), STR_1(CODE[6]), 
		 -> manualMessage(BANK1[12]), counterMIN(BANK0[3]), counterHOUR(BANK0[3]), timerMessage(COMRAM[11]), 
		 -> automaticMessage(BANK1[15]), manualInactiveMessage(BANK0[9]), manualActiveMessage(BANK0[7]), configAutoMessage(BANK1[11]), 

    zoneEndTimes	PTR unsigned char [3] size(2) Largest target is 5
		 -> endTimeZn3(BANK0[5]), endTimeZn2(BANK0[5]), endTimeZn1(BANK0[5]), 

    zoneTimes	PTR unsigned char [9] size(2) Largest target is 5
		 -> time3Zn3(BANK0[5]), time2Zn3(BANK0[5]), time1Zn3(BANK0[5]), time3Zn2(BANK0[5]), 
		 -> time2Zn2(BANK0[5]), time1Zn2(BANK0[5]), time3Zn1(BANK0[5]), time2Zn1(BANK0[5]), 
		 -> time1Zn1(BANK0[5]), 

    humidityZnValuesInt	PTR unsigned char [3] size(2) Largest target is 1
		 -> humidityZn3ValInt(COMRAM[1]), humidityZn2ValInt(COMRAM[1]), humidityZn1ValInt(COMRAM[1]), 


Critical Paths under _main in COMRAM

    _workingTimer->_displayLineOnLCD
    _workingTimer->_updateEndTime
    _updateEndTime->___awmod
    _workingManual->_displayLineOnLCD
    _stopIrrigateManual->_stopIrrigation
    _workingAutomatic->_displayLineOnLCD
    _stopAllIrrigation->_stopIrrigation
    ___lwtoft->___ftpack
    ___lbtoft->___ftpack
    ___ftmul->___ftpack
    _manualConfiguration->_displayLineOnLCD
    _automaticConfiguration->_displayLineOnLCD
    _resetReadInput->_delay
    _readInput->_delay
    _readKey->_determinePressedRow
    _displayLineOnLCD->_displayCharOnLCD
    _displayCharOnLCD->_shortDelay
    _clearDisplay->_command
    _LCDSetup->_longDelay
    _isReady->_shortDelay
    _command->_shortDelay

Critical Paths under _ISRL in COMRAM

    None.

Critical Paths under _ISRH in COMRAM

    _resetOneShot->i2_delay
    _pressedKey->_pressedKeyAction
    _pressedKeyAction->i2_displayLineOnLCD
    i2_stopIrrigateManual->i2_stopIrrigation
    i2_displayLineOnLCD->i2_displayCharOnLCD
    i2_displayCharOnLCD->i2_shortDelay
    i2_clearDisplay->i2_command
    i2_isReady->i2_shortDelay
    i2_command->i2_shortDelay
    _irrigateManual->i2_startIrrigation

Critical Paths under _main in BANK0

    _workingTimer->_displayLineOnLCD
    _workingTimer->_updateEndTime
    _updateEndTime->___awmod
    _workingManual->_displayLineOnLCD
    _workingAutomatic->_displayLineOnLCD
    ___lwtoft->___ftpack
    ___lbtoft->___ftpack
    ___ftmul->___lbtoft
    ___ftge->___lbtoft
    _manualConfiguration->_displayLineOnLCD
    _automaticConfiguration->_displayLineOnLCD

Critical Paths under _ISRL in BANK0

    None.

Critical Paths under _ISRH in BANK0

    None.

Critical Paths under _main in BANK1

    _main->_workingAutomatic
    _workingAutomatic->___ftge
    ___ftge->___ftmul

Critical Paths under _ISRL in BANK1

    None.

Critical Paths under _ISRH in BANK1

    None.

Critical Paths under _main in BANK2

    None.

Critical Paths under _ISRL in BANK2

    None.

Critical Paths under _ISRH in BANK2

    None.

Critical Paths under _main in BANK3

    None.

Critical Paths under _ISRL in BANK3

    None.

Critical Paths under _ISRH in BANK3

    None.

Critical Paths under _main in BANK4

    None.

Critical Paths under _ISRL in BANK4

    None.

Critical Paths under _ISRH in BANK4

    None.

Critical Paths under _main in BANK5

    None.

Critical Paths under _ISRL in BANK5

    None.

Critical Paths under _ISRH in BANK5

    None.

Critical Paths under _main in BANK6

    None.

Critical Paths under _ISRL in BANK6

    None.

Critical Paths under _ISRH in BANK6

    None.

Critical Paths under _main in BANK7

    None.

Critical Paths under _ISRL in BANK7

    None.

Critical Paths under _ISRH in BANK7

    None.

Critical Paths under _main in BANK8

    None.

Critical Paths under _ISRL in BANK8

    None.

Critical Paths under _ISRH in BANK8

    None.

Critical Paths under _main in BANK9

    None.

Critical Paths under _ISRL in BANK9

    None.

Critical Paths under _ISRH in BANK9

    None.

Critical Paths under _main in BANK10

    None.

Critical Paths under _ISRL in BANK10

    None.

Critical Paths under _ISRH in BANK10

    None.

Critical Paths under _main in BANK11

    None.

Critical Paths under _ISRL in BANK11

    None.

Critical Paths under _ISRH in BANK11

    None.

Critical Paths under _main in BANK12

    None.

Critical Paths under _ISRL in BANK12

    None.

Critical Paths under _ISRH in BANK12

    None.

Call Graph Tables:

 ---------------------------------------------------------------------------------
 (Depth) Function   	        Calls       Base Space   Used Autos Params    Refs
 ---------------------------------------------------------------------------------
 (0) _main                                                 0     0      0   28933
                           _LCDSetup
             _automaticConfiguration
                _manualConfiguration
                      _portDAsOutput
                 _timerConfiguration
                   _workingAutomatic
                      _workingManual
                       _workingTimer
 ---------------------------------------------------------------------------------
 (1) _workingTimer                                         8     8      0    7091
                                              0 BANK1      8     8      0
                       _clearDisplay
                      _clearEndTimes
                            _command
                   _displayLineOnLCD
                    _startIrrigation
                  _stopAllIrrigation
                     _stopIrrigation
                      _updateEndTime
 ---------------------------------------------------------------------------------
 (2) _updateEndTime                                        7     1      6    2950
                                             30 COMRAM     1     1      0
                                             21 BANK0      6     0      6
                            ___awmod
 ---------------------------------------------------------------------------------
 (3) ___awmod                                              6     2      4    1203
                                             28 COMRAM     2     2      0
                                             17 BANK0      4     0      4
 ---------------------------------------------------------------------------------
 (2) _clearEndTimes                                        4     4      0     232
                                             17 BANK0      4     4      0
 ---------------------------------------------------------------------------------
 (1) _workingManual                                        0     0      0    2921
                       _clearDisplay
                   _displayLineOnLCD
                 _stopIrrigateManual
 ---------------------------------------------------------------------------------
 (2) _stopIrrigateManual                                   0     0      0      31
                     _stopIrrigation
 ---------------------------------------------------------------------------------
 (1) _workingAutomatic                                     3     3      0   11589
                                             24 BANK1      3     3      0
                             ___ftge
                            ___ftmul
                           ___lbtoft
                           ___lwtoft
                       _clearDisplay
                _disableACInterrupts
                   _displayLineOnLCD
                 _enableACInterrupts
                            _startAC
                    _startIrrigation
                  _stopAllIrrigation
                     _stopIrrigation
 ---------------------------------------------------------------------------------
 (2) _stopAllIrrigation                                    0     0      0      31
                     _stopIrrigation
 ---------------------------------------------------------------------------------
 (2) _stopIrrigation                                       1     1      0      31
                                             28 COMRAM     1     1      0
 ---------------------------------------------------------------------------------
 (2) _startIrrigation                                      1     1      0      31
                                             28 COMRAM     1     1      0
 ---------------------------------------------------------------------------------
 (2) _startAC                                              1     1      0      31
                                             28 COMRAM     1     1      0
 ---------------------------------------------------------------------------------
 (2) _enableACInterrupts                                   0     0      0       0
 ---------------------------------------------------------------------------------
 (2) _disableACInterrupts                                  0     0      0       0
 ---------------------------------------------------------------------------------
 (2) ___lwtoft                                             3     0      3    2512
                                             22 BANK0      3     0      3
                           ___ftpack
 ---------------------------------------------------------------------------------
 (2) ___lbtoft                                             4     1      3    2435
                                             22 BANK0      4     1      3
                           ___ftpack
 ---------------------------------------------------------------------------------
 (2) ___ftmul                                             15     9      6    3122
                                              0 BANK1     15     9      6
                           ___ftpack
                           ___lbtoft (ARG)
 ---------------------------------------------------------------------------------
 (3) ___ftpack                                             8     3      5    2404
                                             28 COMRAM     3     3      0
                                             17 BANK0      5     0      5
 ---------------------------------------------------------------------------------
 (2) ___ftge                                               9     3      6     314
                                             15 BANK1      9     3      6
                            ___ftmul (ARG)
                           ___lbtoft (ARG)
                           ___lwtoft (ARG)
 ---------------------------------------------------------------------------------
 (1) _timerConfiguration                                   1     1      0     374
                                             17 BANK0      1     1      0
                       _clearDisplay
                     _disableIntRBIE
                      _enableIntRBIE
                           _getInput
 ---------------------------------------------------------------------------------
 (1) _manualConfiguration                                  2     2      0    3224
                                              0 BANK1      2     2      0
                       _clearDisplay
                     _disableIntRBIE
                   _displayLineOnLCD
                      _enableIntRBIE
                           _getInput
 ---------------------------------------------------------------------------------
 (1) _automaticConfiguration                               3     3      0    3564
                                              0 BANK1      3     3      0
                       _clearDisplay
                  _convertCharsToInt
                     _disableIntRBIE
                   _displayCharOnLCD
                   _displayLineOnLCD
                      _enableIntRBIE
                           _getInput
 ---------------------------------------------------------------------------------
 (2) _getInput                                             0     0      0     235
                      _groundAllRows
                          _readInput
                     _resetReadInput
 ---------------------------------------------------------------------------------
 (3) _resetReadInput                                       0     0      0      68
                              _delay
 ---------------------------------------------------------------------------------
 (3) _readInput                                            0     0      0     167
                              _delay
                            _readKey
 ---------------------------------------------------------------------------------
 (4) _readKey                                              0     0      0      99
                _determinePressedRow
                         _getKeyCode
 ---------------------------------------------------------------------------------
 (5) _getKeyCode                                           0     0      0       0
 ---------------------------------------------------------------------------------
 (5) _determinePressedRow                                  1     1      0      99
                                             28 COMRAM     1     1      0
                      _turnOnAllRows
 ---------------------------------------------------------------------------------
 (6) _turnOnAllRows                                        0     0      0       0
 ---------------------------------------------------------------------------------
 (4) _delay                                                3     3      0      68
                                             28 COMRAM     3     3      0
 ---------------------------------------------------------------------------------
 (3) _groundAllRows                                        0     0      0       0
 ---------------------------------------------------------------------------------
 (2) _enableIntRBIE                                        0     0      0       0
 ---------------------------------------------------------------------------------
 (2) _displayLineOnLCD                                    11     8      3    2757
                                             30 COMRAM     1     1      0
                                             17 BANK0     10     7      3
                   _displayCharOnLCD
 ---------------------------------------------------------------------------------
 (3) _displayCharOnLCD                                     1     1      0      65
                                             29 COMRAM     1     1      0
                         _shortDelay
 ---------------------------------------------------------------------------------
 (2) _disableIntRBIE                                       0     0      0       0
 ---------------------------------------------------------------------------------
 (2) _convertCharsToInt                                    4     2      2     207
                                             28 COMRAM     2     0      2
                                             17 BANK0      2     2      0
 ---------------------------------------------------------------------------------
 (2) _clearDisplay                                         0     0      0     133
                            _command
                            _isReady
                         _shortDelay
 ---------------------------------------------------------------------------------
 (1) _LCDSetup                                             0     0      0     170
                            _command
                            _isReady
                          _longDelay
 ---------------------------------------------------------------------------------
 (2) _longDelay                                            3     3      0      71
                                             28 COMRAM     3     3      0
 ---------------------------------------------------------------------------------
 (3) _isReady                                              0     0      0      34
                       _portDAsInput
                      _portDAsOutput
                         _shortDelay
 ---------------------------------------------------------------------------------
 (4) _portDAsOutput                                        0     0      0       0
 ---------------------------------------------------------------------------------
 (4) _portDAsInput                                         0     0      0       0
 ---------------------------------------------------------------------------------
 (2) _command                                              1     1      0      65
                                             29 COMRAM     1     1      0
                         _shortDelay
 ---------------------------------------------------------------------------------
 (4) _shortDelay                                           1     1      0      34
                                             28 COMRAM     1     1      0
 ---------------------------------------------------------------------------------
 Estimated maximum stack depth 6
 ---------------------------------------------------------------------------------
 (Depth) Function   	        Calls       Base Space   Used Autos Params    Refs
 ---------------------------------------------------------------------------------
 (7) _ISRL                                                17    17      0       0
                                              0 BANK0     17    17      0
 ---------------------------------------------------------------------------------
 Estimated maximum stack depth 7
 ---------------------------------------------------------------------------------
 (Depth) Function   	        Calls       Base Space   Used Autos Params    Refs
 ---------------------------------------------------------------------------------
 (8) _ISRH                                                14    14      0     676
                                             14 COMRAM    14    14      0
                            _oneShot
                       _resetOneShot
                    i2_groundAllRows
 ---------------------------------------------------------------------------------
 (9) i2_groundAllRows                                      0     0      0       0
 ---------------------------------------------------------------------------------
 (9) _resetOneShot                                         0     0      0      46
                            i2_delay
 ---------------------------------------------------------------------------------
 (9) _oneShot                                              0     0      0     630
                         _pressedKey
                            i2_delay
 ---------------------------------------------------------------------------------
 (10) i2_delay                                             3     3      0      46
                                              0 COMRAM     3     3      0
 ---------------------------------------------------------------------------------
 (10) _pressedKey                                          0     0      0     584
                   _pressedKeyAction
              i2_determinePressedRow
                       i2_getKeyCode
 ---------------------------------------------------------------------------------
 (11) i2_getKeyCode                                        0     0      0       0
 ---------------------------------------------------------------------------------
 (11) i2_determinePressedRow                               1     1      0      68
                                              0 COMRAM     1     1      0
                    i2_turnOnAllRows
 ---------------------------------------------------------------------------------
 (12) i2_turnOnAllRows                                     0     0      0       0
 ---------------------------------------------------------------------------------
 (11) _pressedKeyAction                                    1     1      0     516
                                             13 COMRAM     1     1      0
                     _irrigateManual
                     i2_clearDisplay
                          i2_command
                 i2_displayLineOnLCD
                          i2_isReady
               i2_stopIrrigateManual
 ---------------------------------------------------------------------------------
 (12) i2_stopIrrigateManual                                0     0      0      22
                   i2_stopIrrigation
 ---------------------------------------------------------------------------------
 (13) i2_stopIrrigation                                    1     1      0      22
                                              0 COMRAM     1     1      0
 ---------------------------------------------------------------------------------
 (12) i2_displayLineOnLCD                                 11     8      3     291
                                              2 COMRAM    11     8      3
                 i2_displayCharOnLCD
 ---------------------------------------------------------------------------------
 (13) i2_displayCharOnLCD                                  1     1      0      45
                                              1 COMRAM     1     1      0
                       i2_shortDelay
 ---------------------------------------------------------------------------------
 (12) i2_clearDisplay                                      0     0      0      91
                          i2_command
                          i2_isReady
                       i2_shortDelay
 ---------------------------------------------------------------------------------
 (12) i2_isReady                                           0     0      0      23
                     i2_portDAsInput
                    i2_portDAsOutput
                       i2_shortDelay
 ---------------------------------------------------------------------------------
 (13) i2_portDAsOutput                                     0     0      0       0
 ---------------------------------------------------------------------------------
 (13) i2_portDAsInput                                      0     0      0       0
 ---------------------------------------------------------------------------------
 (12) i2_command                                           1     1      0      45
                                              1 COMRAM     1     1      0
                       i2_shortDelay
 ---------------------------------------------------------------------------------
 (13) i2_shortDelay                                        1     1      0      23
                                              0 COMRAM     1     1      0
 ---------------------------------------------------------------------------------
 (12) _irrigateManual                                      0     0      0      22
                  i2_startIrrigation
 ---------------------------------------------------------------------------------
 (13) i2_startIrrigation                                   1     1      0      22
                                              0 COMRAM     1     1      0
 ---------------------------------------------------------------------------------
 Estimated maximum stack depth 13
 ---------------------------------------------------------------------------------

 Call Graph Graphs:

 _main (ROOT)
   _LCDSetup
     _command
       _shortDelay
     _isReady
       _portDAsInput
       _portDAsOutput
       _shortDelay
     _longDelay
   _automaticConfiguration
     _clearDisplay
       _command
         _shortDelay
       _isReady
         _portDAsInput
         _portDAsOutput
         _shortDelay
       _shortDelay
     _convertCharsToInt
     _disableIntRBIE
     _displayCharOnLCD
       _shortDelay
     _displayLineOnLCD
       _displayCharOnLCD
         _shortDelay
     _enableIntRBIE
     _getInput
       _groundAllRows
       _readInput
         _delay
         _readKey
           _determinePressedRow
             _turnOnAllRows
           _getKeyCode
       _resetReadInput
         _delay
   _manualConfiguration
     _clearDisplay
       _command
         _shortDelay
       _isReady
         _portDAsInput
         _portDAsOutput
         _shortDelay
       _shortDelay
     _disableIntRBIE
     _displayLineOnLCD
       _displayCharOnLCD
         _shortDelay
     _enableIntRBIE
     _getInput
       _groundAllRows
       _readInput
         _delay
         _readKey
           _determinePressedRow
             _turnOnAllRows
           _getKeyCode
       _resetReadInput
         _delay
   _portDAsOutput
   _timerConfiguration
     _clearDisplay
       _command
         _shortDelay
       _isReady
         _portDAsInput
         _portDAsOutput
         _shortDelay
       _shortDelay
     _disableIntRBIE
     _enableIntRBIE
     _getInput
       _groundAllRows
       _readInput
         _delay
         _readKey
           _determinePressedRow
             _turnOnAllRows
           _getKeyCode
       _resetReadInput
         _delay
   _workingAutomatic
     ___ftge
       ___ftmul (ARG)
         ___ftpack
         ___lbtoft (ARG)
           ___ftpack
       ___lbtoft (ARG)
         ___ftpack
       ___lwtoft (ARG)
         ___ftpack
     ___ftmul
       ___ftpack
       ___lbtoft (ARG)
         ___ftpack
     ___lbtoft
       ___ftpack
     ___lwtoft
       ___ftpack
     _clearDisplay
       _command
         _shortDelay
       _isReady
         _portDAsInput
         _portDAsOutput
         _shortDelay
       _shortDelay
     _disableACInterrupts
     _displayLineOnLCD
       _displayCharOnLCD
         _shortDelay
     _enableACInterrupts
     _startAC
     _startIrrigation
     _stopAllIrrigation
       _stopIrrigation
     _stopIrrigation
   _workingManual
     _clearDisplay
       _command
         _shortDelay
       _isReady
         _portDAsInput
         _portDAsOutput
         _shortDelay
       _shortDelay
     _displayLineOnLCD
       _displayCharOnLCD
         _shortDelay
     _stopIrrigateManual
       _stopIrrigation
   _workingTimer
     _clearDisplay
       _command
         _shortDelay
       _isReady
         _portDAsInput
         _portDAsOutput
         _shortDelay
       _shortDelay
     _clearEndTimes
     _command
       _shortDelay
     _displayLineOnLCD
       _displayCharOnLCD
         _shortDelay
     _startIrrigation
     _stopAllIrrigation
       _stopIrrigation
     _stopIrrigation
     _updateEndTime
       ___awmod

 _ISRL (ROOT)

 _ISRH (ROOT)
   _oneShot
     _pressedKey
       _pressedKeyAction
         _irrigateManual
           i2_startIrrigation
         i2_clearDisplay
           i2_command
             i2_shortDelay
           i2_isReady
             i2_portDAsInput
             i2_portDAsOutput
             i2_shortDelay
           i2_shortDelay
         i2_command
           i2_shortDelay
         i2_displayLineOnLCD
           i2_displayCharOnLCD
             i2_shortDelay
         i2_isReady
           i2_portDAsInput
           i2_portDAsOutput
           i2_shortDelay
         i2_stopIrrigateManual
           i2_stopIrrigation
       i2_determinePressedRow
         i2_turnOnAllRows
       i2_getKeyCode
     i2_delay
   _resetOneShot
     i2_delay
   i2_groundAllRows

 Address spaces:
Name               Size   Autos  Total    Cost      Usage
BIGRAM             CFF      0       0      31        0.0%
EEDATA             400      0       0       0        0.0%
BITBANK12          100      0       0      29        0.0%
BANK12             100      0       0      30        0.0%
BITBANK11          100      0       0      27        0.0%
BANK11             100      0       0      28        0.0%
BITBANK10          100      0       0      25        0.0%
BANK10             100      0       0      26        0.0%
BITBANK9           100      0       0      23        0.0%
BANK9              100      0       0      24        0.0%
BITBANK8           100      0       0      21        0.0%
BANK8              100      0       0      22        0.0%
BITBANK7           100      0       0      18        0.0%
BANK7              100      0       0      19        0.0%
BITBANK6           100      0       0      16        0.0%
BANK6              100      0       0      17        0.0%
BITBANK5           100      0       0      14        0.0%
BANK5              100      0       0      15        0.0%
BITBANK4           100      0       0      12        0.0%
BANK4              100      0       0      13        0.0%
BITBANK3           100      0       0      10        0.0%
BANK3              100      0       0      11        0.0%
BITBANK2           100      0       0       8        0.0%
BANK2              100      0       0       9        0.0%
BITBANK1           100      0       0       6        0.0%
BANK1              100     1B      6A       7       41.4%
BITBANK0            A0      0       0       4        0.0%
BANK0               A0     1B      8F       5       89.4%
BITCOMRAM           5E      0       0       0        0.0%
COMRAM              5E     1F      42       1       70.2%
BITSFR_3             0      0       0      40        0.0%
SFR_3                0      0       0      40        0.0%
BITSFR_2             0      0       0      40        0.0%
SFR_2                0      0       0      40        0.0%
BITSFR_1             0      0       0      40        0.0%
SFR_1                0      0       0      40        0.0%
BITSFR               0      0       0      40        0.0%
SFR                  0      0       0      40        0.0%
STACK                0      0       0       2        0.0%
NULL                 0      0       0       0        0.0%
ABS                  0      0     13B      20        0.0%
DATA                 0      0     13B       3        0.0%
CODE                 0      0       0       0        0.0%


Microchip Technology PIC18 Macro Assembler V1.36 build -262312587 
Symbol Table                                                                                   Sat May  7 15:30:25 2016

      __end_ofi2_startIrrigation 2632             ??_stopIrrigateManual 001E  
   __size_of_disableACInterrupts 0014                  shortDelay@L1REG 001D  
   __size_of_manualConfiguration 010A        __size_ofi2_stopIrrigation 0026  
                             bsr 000FE0           i2determinePressedRow@i 0001  
            _humidityZnValuesInt 0060                workingAutomatic@i 0169  
                            l308 26AE                              l450 2692  
                            l630 25A6                              l295 24D8  
                            l483 16EE                              l627 259E  
                            l635 2578                              l476 16AE  
                            l493 176A                              l629 25A2  
                            l637 257C                              l662 23FE  
                            l638 2580                              l903 1ABA  
                            l488 172C                              l659 23FC  
              ??_startIrrigation 001D                     ___awmod@sign 001E  
                            prod 000FF3                              wreg 000FE8  
                 _irrigateManual 2468                     __CFG_LVP$OFF 000000  
                   __CFG_WDT$OFF 000000                             l5002 1504  
                 ?_updateEndTime 00E3                             l5014 1F84  
                           l5024 2008                             l5112 1108  
                           l5018 1FC4                             l5106 10D4  
                           l5122 1140                             l5060 1D74  
                           l5052 1CE8                             l5124 1146  
                           l5230 2514                             l5046 1CD8  
                           l5118 113A                             l4520 179A  
                           l4512 178A                             l4504 177A  
                           l4440 16FE                             l4424 16DE  
                           l4416 16CE                             l4408 16BE  
                           l4600 1E14                             l5208 1BAA  
                           l5048 1CDE                             l5064 1D7A  
                           l5144 11E2                             l5128 1150  
                           l4530 17A8                             l5058 1D6C  
                           l5170 2420                             l5162 1222  
                           l5154 120C                             l4532 17C2  
                           l4620 1E46                             l4612 1E3E  
                           l4540 1D9C                             l5260 19A6  
                           l5244 1926                             l5068 1D8A  
                           l5148 11EC                             l5084 1012  
                           l5076 0FDA                             l3662 24D2  
                           l4630 1E4E                             l4606 1E18  
                           l5190 1B3C                             l5254 1978  
                           l5246 193E                             l5174 2432  
                           l5158 1212                             l5350 1C64  
                           l3664 24DA                             l4480 174C  
                           l4472 173C                             l4456 171E  
                           l4448 170E                             l4624 1E4A  
                           l4616 1E42                             l4608 1E34  
                           l4632 1E68                             l4552 1DA8  
                           l4544 1DA0                             l4560 1DC8  
                           l5264 19CE                             l4800 2096  
                           l5088 101C                             l5360 1C8E  
                           l5352 1C6A                             l4642 2814  
                           l3666 24E2                             l4810 20E4  
                           l4394 16A0                             l5266 19E4  
                           l5362 1C94                             l5354 1C70  
                           l5346 1C5A                             l3668 24EA  
                           l4572 1DDA                             l4564 1DD2  
                           l4548 1DA4                             l4660 23A4  
                           l4652 2394                             l4740 1A28  
                           l4708 2584                             l5364 1C9A  
                           l4806 20A6                             l4646 268E  
                           l4398 16A8                             l4582 1DE2  
                           l4558 1DAC                             l4654 2398  
                           l4662 23AA                             l4822 2554  
                           l4750 1A9E                             l4742 1A36  
                           l5358 1C76                             l4648 2696  
                           l4488 175C                             l4592 1E0C  
                           l4576 1DDE                             l4568 1DD6  
                           l4584 1DFE                             l4656 239C  
                           l4664 23C6                             l4832 256A  
                           l4752 1AAC                             l4744 1A5A  
                           l4736 1A14                             l5368 1CA0  
                           l4658 23A0                             l4930 0F7C  
                           l4596 1E10                             l4588 1E08  
                           l4764 1AE0                             l4748 1A7A  
                           l4940 22AC                             l4780 2034  
                           l4924 0F20                             l4916 0EB4  
                           l4908 0E22                             l4758 1AC4  
                           l4870 23E2                             l4688 26B6  
                           l4880 25AA                             l4944 22CC  
                           l4936 22A2                             l4792 207A  
                           l4784 2046                             l4776 2024  
                           l4866 23DA                             l4874 23E8  
                           l4954 22F6                             l4786 2050  
                           l4868 23DE                             l4948 22D6  
                           l4788 2056                             l4796 2086  
                           l4974 145A                             l4992 14C6  
                           l4968 1420                             l4988 14A8  
                           l4998 14E6                             STR_1 0D08  
                           STR_2 0D0E                             STR_3 0D01  
                           _LATA 000F89                             _LATB 000F8A  
                           _LATC 000F8B                             u4600 20DE  
                           u4607 20D4                             u4761 13FC  
                           u4781 1436                             _ISRH 0008  
                           _ISRL 0018                             _TMR0 000FD6  
           __end_ofi2_shortDelay 282C                             _main 1BD6  
                   ___ftpack@arg 00DF                     ___ftpack@exp 00E2  
                           fsr0h 000FEA                             fsr1h 000FE2  
                           indf0 000FEF                             fsr0l 000FE9  
                           fsr2h 000FDA                             indf1 000FE7  
                           fsr1l 000FE1                             indf2 000FDF  
                           fsr2l 000FD9                             btemp 0043  
                           pclat 000FFA                             prodh 000FF4  
                           prodl 000FF3                  __end_ofi2_delay 2714  
                           start 00A6            displayLineOnLCD@array 00DF  
                  __CFG_MCLRE$ON 000000                     ___ftmul@cntr 015C  
             i2_displayCharOnLCD 27C8                     ___param_bank 000010  
                   ___ftmul@sign 015D             __end_of_clearDisplay 2800  
                 _columnSelected 003C                    workingTimer@i 0154  
                  workingTimer@j 0150                  _irrigateTimeZn1 00C5  
                _irrigateTimeZn2 00C8                  _irrigateTimeZn3 00CB  
            i2displayLineOnLCD@i 000D                            ?_ISRH 0001  
                          ?_ISRL 0001                       i2command@x 0002  
               __end_of_LCDSetup 25E6              ?i2_displayCharOnLCD 0001  
                 longDelay@L1REG 001D                   longDelay@L2REG 001E  
                 longDelay@L3REG 001F                            ?_main 0001  
                          _ADRES 000FC3                  __end_of___awmod 20A0  
                          _CMCON 000FB4                  __end_of___ftmul 1544  
                          _T0CON 000FD5                   i2_portDAsInput 2878  
                          i2l308 271E                            i2l412 1598  
                          i2l450 2702                            i2l418 1660  
                          i2l419 165C                            i2l630 2618  
                          i2l546 12CC                            i2l627 2610  
                          i2l635 25EA                            i2l547 12E0  
                          i2l483 1818                            i2l476 17D8  
                          i2l629 2614                            i2l637 25EE  
                          i2l493 1894                            i2l638 25F2  
                          i2l488 1856                            _PORTA 000F80  
                          _PORTB 000F81                            _PORTC 000F82  
                          _PORTD 000F83           __end_of_irrigateManual 2498  
          __size_ofi2_getKeyCode 00D8                            _TRISA 000F92  
                          _TRISB 000F93                            _TRISC 000F94  
                          _TRISD 000F95                 ?i2_groundAllRows 0001  
              _convertCharsToInt 2438                  __end_of_command 27C8  
                __end_of_isReady 26C0               ?_convertCharsToInt 001D  
                          _delay 2688                  __end_of_readKey 23D2  
                __end_of_oneShot 26F8                    ___ftpack@sign 00E3  
                          tablat 000FF5               i2_displayLineOnLCD 21BC  
           ??i2_displayCharOnLCD 0002                  __end_of_startAC 2406  
                          status 000FD8              ??_convertCharsToInt 001F  
    __end_of_determinePressedRow 17C6                 _pressedKeyAction 122C  
             _enableACInterrupts 2748              ?i2_displayLineOnLCD 0003  
                   __end_of_ISRH 169C                     __end_of_ISRL 00A6  
     __size_of_stopAllIrrigation 0014            __end_of_clearEndTimes 22FC  
                __initialization 2134       __size_ofi2_startIrrigation 0026  
                   __end_of_main 1CB8               __size_ofi2_command 0014  
             __size_ofi2_isReady 001C                     i2_getKeyCode 1E6C  
            ?_enableACInterrupts 0001                           ??_ISRH 000F  
                         ??_ISRL 00CE           __end_ofi2_portDAsInput 287C  
            _statusConfiguration 00EE            __size_of_workingTimer 026E  
                         ??_main 0020        __end_of_convertCharsToInt 2468  
                  __activetblptr 000002          __size_of_resetReadInput 001E  
                ?_irrigateManual 0001             ??i2_displayLineOnLCD 0006  
                   _zoneEndTimes 0066   __size_ofi2_determinePressedRow 012A  
  __end_ofi2_determinePressedRow 18F0                  ??_updateEndTime 001F  
                         ?_delay 0001                           _ADCON0 000FC2  
                         _ADCON1 000FC1                           _ADCON2 000FC0  
               _workingAutomatic 1CB8          __size_of_stopIrrigation 0026  
               __end_of___ftpack 1AEE                 __end_of___lbtoft 24C6  
        ?_automaticConfiguration 0001             ??_enableACInterrupts 001D  
                      ??i2_delay 0001                           i2l3200 21C2  
                         i2l3204 21FC                           i2l3300 12A4  
                         i2l3126 2726                           i2l3310 12F6  
                         i2l3302 12AC                           i2l3152 25F6  
                         i2l3312 12FE                           i2l3146 261C  
                         i2l3314 1306                           i2l3180 2492  
                         i2l3172 2476                           i2l3332 136A  
                         i2l3324 1334                           i2l3316 130E  
                         i2l3340 1386                           i2l3420 17D2  
                         i2l3318 1316                           i2l3510 1886  
                         i2l3502 1876                           i2l3430 17E8  
                         i2l3176 2484                           i2l3416 17CA  
                         i2l4304 1592                           i2l3338 1380  
                         i2l3290 1266                           i2l3282 1230  
                         i2l3610 1EE0                           i2l3292 126E  
                         i2l3604 1EBA                           i2l3286 1250  
                         i2l3542 18C4                           i2l3534 18B4  
                         i2l3526 18A4                           i2l3470 1838  
                         i2l3462 1828                           i2l3446 1808  
                         i2l3438 17F8                           i2l3622 1EEC  
                         i2l3614 1EE4                           i2l3630 1F0C  
                         i2l3606 1ED6                           i2l4342 160A  
                         i2l4350 1650                           i2l3296 128E  
                         i2l3552 18D2                           i2l4336 15F6  
                         i2l3554 18EC                           i2l3642 1F1E  
                         i2l3634 1F16                           i2l3618 1EE8  
                         i2l3570 1E7C                           i2l3562 1E74  
                         i2l3652 1F26                           i2l3628 1EF0  
                         i2l3580 1E84                           i2l3494 1866  
                         i2l3478 1848                           i2l3646 1F22  
                         i2l3638 1F1A                           i2l3590 1EAE  
                         i2l3654 1F40                           i2l3574 1E80  
                         i2l3566 1E78                           i2l3582 1EA0  
                         i2l3830 234E                           i2l4294 157C  
                         i2l3832 2352                           i2l3840 2364  
                         i2l2858 2822                           i2l3594 1EB2  
                         i2l3586 1EAA                           i2l3834 2356  
                         i2l3842 2380                           i2l3922 26FE  
                         i2l3836 235A                           i2l3924 2706  
                         i2l3598 1EB6                           i2l3838 235E  
               __end_of___lwtoft 254A                           _OSCCON 000FD3  
   __end_ofi2_stopIrrigateManual 2778                           _TMR0IE 007F95  
                         _TMR0IF 007F92                  i2_portDAsOutput 286E  
         __size_of_turnOnAllRows 000A                     _zoneSelected 00EB  
               __end_of_getInput 2574                     _workingTimer 0FBE  
                         ___ftge 1F44         clearEndTimes@zoneEndTime 00DF  
                      ??___awmod 001D                        ??___ftmul 0155  
               i2_stopIrrigation 25E6                     i2delay@L1REG 0002  
                   i2delay@L2REG 0003                    _manualMessage 0138  
                         clear_0 2148                  ___awmod@divisor 00E1  
                ?i2_portDAsInput 0001                  ___awmod@counter 001D  
                      ??_command 001E                        ??_isReady 001E  
              ?_displayCharOnLCD 0001            ___ftmul@f3_as_product 0159  
                      ??_readKey 001E             _irrigateManualStatus 003F  
                   __pdataCOMRAM 0020                        ??_oneShot 000F  
             ??_displayCharOnLCD 001E                     __mediumconst 0000  
                         tblptrh 000FF7                           tblptrl 000FF6  
                         tblptru 000FF8            __size_ofi2_shortDelay 000E  
                      ??_startAC 001D   __end_of_automaticConfiguration 1BD6  
     __end_of_timerConfiguration 2520              _disableACInterrupts 278C  
              __end_ofi2_command 27F0                __end_ofi2_isReady 2730  
            _manualConfiguration 18F0                       __accesstop 0060  
        __end_of__initialization 21AE                  __CFG_PBADEN$OFF 000000  
                      ?_LCDSetup 0001                       ___ftge@ff1 015E  
                     ___ftge@ff2 0161            __size_of_clearDisplay 0010  
                  ___rparam_used 000001          i2displayLineOnLCD@array 0003  
                     ___lbtoft@c 00E7                       ___ftmul@f1 014F  
                     ___ftmul@f2 0152                  _startIrrigation 259A  
              ?_displayLineOnLCD 00DF                   __pcstackCOMRAM 0001  
           ?_disableACInterrupts 0001                     __pidataBANK0 222E  
                   __pidataBANK1 22FC                    __end_of_delay 26A4  
           ?_manualConfiguration 0001               ??_displayLineOnLCD 00E2  
          __end_of_enableIntRBIE 284A                       ___lwtoft@c 00E4  
                   i2_shortDelay 281E       __size_of_convertCharsToInt 0030  
                  _turnOnAllRows 282C            __end_of_portDAsOutput 286E  
         __size_of_workingManual 0032    automaticConfiguration@counter 0150  
        __end_ofi2_portDAsOutput 2874                          ??_delay 001D  
                   _clearDisplay 27F0                       __pbssBANK0 00E9  
       __size_ofi2_turnOnAllRows 000A          __size_ofi2_clearDisplay 0010  
                     ??_LCDSetup 0020               __size_of_readInput 001C  
         __size_of_groundAllRows 000A           updateEndTime@endTimeZn 00E3  
             __size_of_longDelay 002E            ??_disableACInterrupts 001D  
             workingTimer@i_1203 0151                          ?___ftge 015E  
          ??_manualConfiguration 014F      __size_of_stopIrrigateManual 0018  
                     _endTimeZn1 007F                       _endTimeZn2 0084  
                     _endTimeZn3 0089                       _getKeyCode 1D94  
                      ?___ftpack 00DF                        ?___lbtoft 00E4  
                 ?_turnOnAllRows 0001             i2_stopIrrigateManual 2760  
                      ?___lwtoft 00E4                   _resetReadInput 2632  
       __end_of_pressedKeyAction 13E6                        ?_getInput 0001  
                  ?_resetOneShot 0001                   _stopIrrigation 2574  
              displayLineOnLCD@i 001F                          i2_delay 26F8  
        __end_of_startIrrigation 25C0        displayCharOnLCD@character 001E  
                     _counterMIN 00C2                       _counterSEC 0021  
                        __Hparam 0000                    _workingManual 2406  
                        __Lparam 0000                  __size_of___ftge 00C8  
        __size_of_disableIntRBIE 000A                          ___awmod 200C  
                        ___ftmul 13E6                       delay@L1REG 001E  
                     delay@L2REG 001F         __end_of_workingAutomatic 1D94  
                   __psmallconst 0D00                    ?_portDAsInput 0001  
               ??_irrigateManual 0002                          _dayName 00BB  
         __end_of_resetReadInput 2650                          __pcinit 2134  
                     ??___ftpack 001D                       ??___lbtoft 0020  
                        __ramtop 0D00             determinePressedRow@i 001D  
         convertCharsToInt@units 00DF            ?i2_stopIrrigateManual 0001  
                        __ptext0 1BD6                          __ptext1 0FBE  
                        __ptext2 0D16                          __ptext3 200C  
                        __ptext4 229C                          __ptext5 2406  
                        __ptext6 2730                          __ptext7 1CB8  
                        __ptext8 2778                          __ptext9 2574  
                        _command 27B4                          _isReady 26A4  
                     ??___lwtoft 0020                        _T0CONbits 000FD5  
                        _keyCode 0040                __end_of_readInput 2688  
                  _groundAllRows 2836                          _readKey 2392  
                        _oneShot 26DC                 ___awmod@dividend 00DF  
              _configAutoMessage 0144           __end_of_stopIrrigation 259A  
              __end_of_longDelay 24F4                   ??_resetOneShot 0004  
                     ??_getInput 0020                          _startAC 23D2  
               ?i2_portDAsOutput 0001                   __pintcode_body 1544  
           end_of_initialization 21AE         __end_ofi2_stopIrrigation 260C  
       __size_ofi2_groundAllRows 000A      __size_ofi2_displayCharOnLCD 0014  
           workingTimer@zoneTime 0155                    __Lmediumconst 0000  
                        int_func 1544                   ?_workingManual 0001  
              ??i2_turnOnAllRows 0001                 ??i2_portDAsInput 0001  
                        postdec1 000FE5                          postdec2 000FDD  
                        postinc0 000FEE                          postinc2 000FDE  
                    ?_getKeyCode 0001                   ??_portDAsInput 001D  
                ??_turnOnAllRows 001D     __size_of_determinePressedRow 012A  
                ?_resetReadInput 0001                       _shortDelay 2810  
                      _PORTBbits 000F81                        _PORTCbits 000F82  
                      _PORTDbits 000F83                        _PORTEbits 000F84  
                     _pressedKey 234C                   ?_groundAllRows 0001  
        timerConfiguration@input 00DF      __size_ofi2_displayLineOnLCD 0072  
                      _TRISAbits 000F92                        _TRISBbits 000F93  
                ?_stopIrrigation 0001                        _TRISEbits 000F96  
         __size_of_clearEndTimes 0060            __end_of_updateEndTime 0FBE  
          i2_determinePressedRow 17C6      __size_of_enableACInterrupts 0018  
                 i2_clearDisplay 2800                   _CONVERSIONRATE 006C  
      __size_of_displayCharOnLCD 0014                 ?_startIrrigation 0001  
                      i2_command 27DC                        i2_isReady 2714  
              __size_of_LCDSetup 0026               _timerConfiguration 24F4  
    automaticConfiguration@input 0151                      ___ftmul@exp 0158  
               _automaticMessage 0129                   __end_of___ftge 200C  
         ??i2_stopIrrigateManual 0002              ?_timerConfiguration 0001  
                  __pidataCOMRAM 2650              start_initialization 2134  
      __size_of_displayLineOnLCD 0094           __end_ofi2_clearDisplay 2810  
            __size_of_getKeyCode 00D8             ??_timerConfiguration 0020  
               __CFG_OSC$IRCIO67 000000                  ??_workingManual 0020  
                     ?i2_command 0001                       ?i2_isReady 0001  
             stopIrrigation@zone 001D                ??i2_groundAllRows 0001  
                  _clearEndTimes 229C                   _disableIntRBIE 284A  
                       ??___ftge 0164                     _manualZn1Val 0039  
                   _manualZn2Val 003A             __end_of_resetOneShot 26DC  
                   _manualZn3Val 003B                      __pdataBANK0 0060  
                    __pdataBANK1 0100                  ??_groundAllRows 001D  
                    ?_shortDelay 0001                      ?_pressedKey 0001  
              __size_of___ftpack 00F4                __size_of___lbtoft 002E  
    updateEndTime@irrigateTimeZn 00E7                      __pbssCOMRAM 003C  
              ?_pressedKeyAction 0001                __size_of___lwtoft 002A  
          _manualInactiveMessage 006F                    __pcstackBANK0 00CE  
                  __pcstackBANK1 014F                   _getValueStatus 003D  
         ?i2_determinePressedRow 0001               ??_pressedKeyAction 000E  
                ?i2_clearDisplay 0001         manualConfiguration@input 0150  
                       ?i2_delay 0001             __end_of_portDAsInput 2878  
              __size_of_getInput 002A      __end_of_disableACInterrupts 27A0  
    __end_of_manualConfiguration 19FA           __size_of_enableIntRBIE 000A  
         __end_of_disableIntRBIE 2854                 startAC@acChannel 001D  
     __end_of_stopIrrigateManual 2748                   ?_clearEndTimes 0001  
         __size_of_portDAsOutput 0006                     _modeSelected 00ED  
                      __pintcode 0008            i2startIrrigation@zone 0001  
                       ?___awmod 00DF                    ?i2_getKeyCode 0001  
                       ?___ftmul 014F                ?_workingAutomatic 0001  
                    __pintcodelo 0018                i2shortDelay@L1REG 0001  
              _hourConfiguration 003E               ??_workingAutomatic 0167  
                       ?_command 0001                         ?_isReady 0001  
       ??_automaticConfiguration 014F                      __smallconst 0D00  
                       ?_readKey 0001                         ?_oneShot 0001  
                       _CASTELLO 011E                _humidityZn1ValInt 0036  
                       ?_startAC 0001                        _readInput 266C  
              _humidityZn2ValInt 0037                   __size_of_delay 001C  
              _humidityZn3ValInt 0038                  i2_turnOnAllRows 285E  
            _determinePressedRow 169C                        _longDelay 24C6  
              ?i2_stopIrrigation 0001                         _GREETING 0112  
          updateEndTime@zoneTime 00E5                 _displayCharOnLCD 27A0  
                       _LCDSetup 25C0                      ??i2_command 0002  
                    ??i2_isReady 0002              __size_of_shortDelay 000E  
                       _LATEbits 000F8D               ??i2_stopIrrigation 0001  
            __size_of_pressedKey 0046                         _IPR1bits 000F9F  
                       _PIE1bits 000F9D                  ?_disableIntRBIE 0001  
                       i2u246_40 21F6                         i2u246_47 21EC  
                       _PIR1bits 000F9E                    ?_workingTimer 0001  
               ??_resetReadInput 0020                         _RCONbits 000FD0  
                 ??i2_getKeyCode 0001                     ??_getKeyCode 001D  
           ?_determinePressedRow 0001                 ??_stopIrrigation 001D  
                     _ADCON0bits 000FC2    i2displayLineOnLCD@sizeOfArray 0005  
                  _enableIntRBIE 2840                 _displayLineOnLCD 20A0  
                  _portDAsOutput 2868                       ?_readInput 0001  
     __end_ofi2_displayCharOnLCD 27DC                      _INTCON2bits 000FF1  
                      _zoneTimes 0100                        copy_data0 2162  
                      copy_data1 2182                        copy_data2 21A2  
                     ?_longDelay 0001               __end_of_getKeyCode 1E6C  
               __size_ofi2_delay 001C                      _counterDAYS 0020  
                    _counterHOUR 00BF   convertCharsToInt@humidityValue 001D  
       __size_ofi2_portDAsOutput 0006            __size_of_resetOneShot 001C  
                ??_clearEndTimes 001D                   ??_workingTimer 014F  
                       __Hrparam 0000            workingTimer@endTimeZn 0152  
                       __Lrparam 0000            ??_determinePressedRow 001D  
               __size_of___awmod 0094                 __size_of___ftmul 015E  
                       ___ftpack 19FA                         ___lbtoft 2498  
                  ?i2_shortDelay 0001            __end_of_turnOnAllRows 2836  
                 ?_enableIntRBIE 0001       __end_ofi2_displayLineOnLCD 222E  
                       ___lwtoft 2520          __end_ofi2_turnOnAllRows 2868  
__size_of_automaticConfiguration 00E8                 __size_of_command 0014  
               __size_of_isReady 001C          convertCharsToInt@dozens 00E0  
               __size_of_readKey 0040                   ?_portDAsOutput 0001  
          __size_of_portDAsInput 0004                 __size_of_oneShot 001C  
            _manualActiveMessage 0078       __end_of_enableACInterrupts 2760  
                       _getInput 254A                    ?_clearDisplay 0001  
                       __ptext10 259A                         __ptext11 23D2  
                       __ptext20 18F0                         __ptext12 2748  
                       __ptext21 1AEE                         __ptext13 278C  
                       __ptext30 2836                         __ptext22 254A  
                       __ptext14 2520                         __ptext31 2840  
                       __ptext23 2632                         __ptext15 2498  
                       __ptext40 2868                         __ptext32 20A0  
                       __ptext24 266C                         __ptext16 13E6  
                       __ptext41 2874                         __ptext33 27A0  
                       __ptext25 2392                         __ptext17 19FA  
                       __ptext50 234C                         __ptext42 27B4  
                       __ptext34 284A                         __ptext26 1D94  
                       __ptext18 1F44                         __ptext51 1E6C  
                       __ptext43 2810                         __ptext35 2438  
                       __ptext27 169C                         __ptext19 24F4  
                       __ptext60 2714                         __ptext52 17C6  
                       __ptext36 27F0                         __ptext28 282C  
                       __ptext61 286E                         __ptext53 285E  
                       __ptext37 25C0                         __ptext29 2688  
                       __ptext62 2878                         __ptext54 122C  
                       __ptext46 2854                         __ptext38 24C6  
                       __ptext63 27DC                         __ptext55 2760  
                       __ptext47 26C0                         __ptext39 26A4  
        __size_of_irrigateManual 0030                         __ptext64 281E  
                       __ptext56 25E6                         __ptext48 26DC  
                       __ptext65 2468                         __ptext57 21BC  
                       __ptext49 26F8                         __ptext66 260C  
                       __ptext58 27C8                         __ptext59 2800  
                   _resetOneShot 26C0                 __size_of_startAC 0034  
                i2_groundAllRows 2854                    __size_of_ISRH 1694  
                  __size_of_ISRL 008E                      _oneShotFlag 0041  
    i2displayCharOnLCD@character 0002                    __size_of_main 00E2  
                       _time1Zn1 008E                         _time1Zn2 0093  
                       _time1Zn3 0098                         _time2Zn1 009D  
                       _time2Zn2 00A2                         _time2Zn3 00A7  
                       _time3Zn1 00AC                         _time3Zn2 00B1  
                       _time3Zn3 00B6              startIrrigation@zone 001D  
                     _CVRCONbits 000FB5                         int$flags 0043  
       __size_of_startIrrigation 0026                 _humidityZnValInt 00E9  
                       command@x 001E                   ??i2_shortDelay 0001  
         __size_of_updateEndTime 02A8                     _portDAsInput 2874  
                   ??_shortDelay 001D                     ??_pressedKey 000F  
  __size_ofi2_stopIrrigateManual 0018                 ??i2_clearDisplay 0003  
        __size_ofi2_portDAsInput 0004          ??i2_determinePressedRow 0001  
                     _INTCONbits 000FF2                   ??_clearDisplay 001F  
    displayLineOnLCD@sizeOfArray 00E1                      ??_readInput 0020  
           __end_ofi2_getKeyCode 1F44                      ??_longDelay 001D  
                       intlevel1 0000                         intlevel2 0000  
    __size_of_timerConfiguration 002C           _automaticConfiguration 1AEE  
                   _timerMessage 0022               __end_of_shortDelay 281E  
          __end_of_workingManual 2438        __size_of_pressedKeyAction 01BA  
             __end_of_pressedKey 2392          pressedKeyAction@keyCode 000E  
              _stopAllIrrigation 2778                ??i2_portDAsOutput 0001  
              i2_startIrrigation 260C                  ??_enableIntRBIE 001D  
             ?_stopAllIrrigation 0001               ?i2_startIrrigation 0001  
       __end_of_displayCharOnLCD 27B4                   clearEndTimes@i 00E1  
                 clearEndTimes@j 00E2            __end_of_groundAllRows 2840  
             _stopIrrigateManual 2730                  ??_portDAsOutput 001D  
               ?i2_turnOnAllRows 0001          __end_ofi2_groundAllRows 285E  
                 _humidityZn1Val 002D                   _humidityZn2Val 0030  
                 _humidityZn3Val 0033              ??_stopAllIrrigation 001E  
           __end_of_workingTimer 122C              ??i2_startIrrigation 0001  
            ?_stopIrrigateManual 0001        __size_of_workingAutomatic 00DC  
                  _updateEndTime 0D16                 ??_disableIntRBIE 001D  
                    _rowSelected 0042             i2stopIrrigation@zone 0001  
      __end_of_stopAllIrrigation 278C         __end_of_displayLineOnLCD 2134  
