

Microchip Technology PIC18 LITE Macro Assembler V1.36 build -262312587 
                                                                                               Sat May  7 18:17:33 2016

Microchip Technology Omniscient Code Generator v1.36 (Free mode) build 201601150325
     1                           	processor	18F4585
     2                           	fnconf	rparam,??,?,0
     3                           	opt	pw 120
     4                           	opt	lm
     5                           	psect	idataCOMRAM,global,class=CODE,delta=1
     6                           	psect	idataBANK0,global,class=CODE,delta=1
     7                           	psect	idataBANK1,global,class=CODE,delta=1
     8                           	psect	smallconst,global,reloc=2,class=SMALLCONST,delta=1
     9                           	psect	cinit,global,reloc=2,class=CODE,delta=1
    10                           	psect	bssCOMRAM,global,class=COMRAM,space=1,delta=1
    11                           	psect	dataCOMRAM,global,class=COMRAM,space=1,delta=1
    12                           	psect	bssBANK0,global,class=BANK0,space=1,delta=1
    13                           	psect	dataBANK0,global,class=BANK0,space=1,delta=1
    14                           	psect	dataBANK1,global,class=BANK1,space=1,delta=1
    15                           	psect	cstackBANK1,global,class=BANK1,space=1,delta=1
    16                           	psect	cstackBANK0,global,class=BANK0,space=1,delta=1
    17                           	psect	cstackCOMRAM,global,class=COMRAM,space=1,delta=1
    18                           	psect	text0,global,reloc=2,class=CODE,delta=1
    19                           	psect	text1,global,reloc=2,class=CODE,delta=1
    20                           	psect	text2,global,reloc=2,class=CODE,delta=1
    21                           	psect	text3,global,reloc=2,class=CODE,delta=1
    22                           	psect	text4,global,reloc=2,class=CODE,delta=1
    23                           	psect	text5,global,reloc=2,class=CODE,delta=1
    24                           	psect	text6,global,reloc=2,class=CODE,delta=1
    25                           	psect	text7,global,reloc=2,class=CODE,delta=1
    26                           	psect	text8,global,reloc=2,class=CODE,delta=1
    27                           	psect	text9,global,reloc=2,class=CODE,delta=1
    28                           	psect	text10,global,reloc=2,class=CODE,delta=1
    29                           	psect	text11,global,reloc=2,class=CODE,delta=1
    30                           	psect	text12,global,reloc=2,class=CODE,delta=1
    31                           	psect	text13,global,reloc=2,class=CODE,delta=1
    32                           	psect	text14,global,reloc=2,class=CODE,delta=1
    33                           	psect	text15,global,reloc=2,class=CODE,delta=1
    34                           	psect	text16,global,reloc=2,class=CODE,delta=1
    35                           	psect	text17,global,reloc=2,class=CODE,delta=1
    36                           	psect	text18,global,reloc=2,class=CODE,delta=1
    37                           	psect	text19,global,reloc=2,class=CODE,delta=1
    38                           	psect	text20,global,reloc=2,class=CODE,delta=1
    39                           	psect	text21,global,reloc=2,class=CODE,delta=1
    40                           	psect	text22,global,reloc=2,class=CODE,delta=1
    41                           	psect	text23,global,reloc=2,class=CODE,delta=1
    42                           	psect	text24,global,reloc=2,class=CODE,delta=1
    43                           	psect	text25,global,reloc=2,class=CODE,delta=1
    44                           	psect	text26,global,reloc=2,class=CODE,delta=1
    45                           	psect	text27,global,reloc=2,class=CODE,delta=1
    46                           	psect	text28,global,reloc=2,class=CODE,delta=1
    47                           	psect	text29,global,reloc=2,class=CODE,delta=1
    48                           	psect	text30,global,reloc=2,class=CODE,delta=1
    49                           	psect	text31,global,reloc=2,class=CODE,delta=1
    50                           	psect	text32,global,reloc=2,class=CODE,delta=1
    51                           	psect	text33,global,reloc=2,class=CODE,delta=1
    52                           	psect	text34,global,reloc=2,class=CODE,delta=1
    53                           	psect	text35,global,reloc=2,class=CODE,delta=1
    54                           	psect	text36,global,reloc=2,class=CODE,delta=1
    55                           	psect	text37,global,reloc=2,class=CODE,delta=1
    56                           	psect	text38,global,reloc=2,class=CODE,delta=1
    57                           	psect	text39,global,reloc=2,class=CODE,delta=1
    58                           	psect	text40,global,reloc=2,class=CODE,delta=1
    59                           	psect	text41,global,reloc=2,class=CODE,delta=1
    60                           	psect	text42,global,reloc=2,class=CODE,delta=1
    61                           	psect	text43,global,reloc=2,class=CODE,delta=1
    62                           	psect	text44,global,reloc=2,class=CODE,delta=1
    63                           	psect	text45,global,reloc=2,class=CODE,delta=1
    64                           	psect	intcodelo,global,reloc=2,class=CODE,delta=1
    65                           	psect	intcode,global,reloc=2,class=CODE,delta=1
    66                           	psect	intcode_body,global,reloc=2,class=CODE,delta=1
    67                           	psect	text48,global,reloc=2,class=CODE,delta=1
    68                           	psect	text49,global,reloc=2,class=CODE,delta=1
    69                           	psect	text50,global,reloc=2,class=CODE,delta=1
    70                           	psect	text51,global,reloc=2,class=CODE,delta=1
    71                           	psect	text52,global,reloc=2,class=CODE,delta=1
    72                           	psect	text53,global,reloc=2,class=CODE,delta=1
    73                           	psect	text54,global,reloc=2,class=CODE,delta=1
    74                           	psect	text55,global,reloc=2,class=CODE,delta=1
    75                           	psect	text56,global,reloc=2,class=CODE,delta=1
    76                           	psect	text57,global,reloc=2,class=CODE,delta=1
    77                           	psect	text58,global,reloc=2,class=CODE,delta=1
    78                           	psect	text59,global,reloc=2,class=CODE,delta=1
    79                           	psect	text60,global,reloc=2,class=CODE,delta=1
    80                           	psect	intsave_regs,global,class=BIGRAM,space=1,delta=1
    81                           	psect	rparam,global,class=COMRAM,space=1,delta=1
    82                           	psect	temp,global,ovrld,common,class=COMRAM,space=1,delta=1
    83  0000                     
    84                           	psect	idataCOMRAM
    85  002A66                     __pidataCOMRAM:
    86                           	opt stack 0
    87                           
    88                           ;initializer for _counterDAYS
    89  002A66  30                 	db	48
    90                           
    91                           ;initializer for _counterSEC
    92  002A67  30                 	db	48
    93                           
    94                           ;initializer for _dayName
    95  002A68  30                 	db	48
    96  002A69  30                 	db	48
    97  002A6A  30                 	db	48
    98  002A6B  00                 	db	0
    99                           
   100                           ;initializer for _humidityZn1Val
   101  002A6C  35                 	db	53
   102  002A6D  30                 	db	48
   103  002A6E  00                 	db	0
   104                           
   105                           ;initializer for _irrigateTimeZn1
   106  002A6F  30                 	db	48
   107  002A70  30                 	db	48
   108  002A71  00                 	db	0
   109                           
   110                           ;initializer for _irrigateTimeZn2
   111  002A72  30                 	db	48
   112  002A73  30                 	db	48
   113  002A74  00                 	db	0
   114                           
   115                           ;initializer for _irrigateTimeZn3
   116  002A75  30                 	db	48
   117  002A76  30                 	db	48
   118  002A77  00                 	db	0
   119                           
   120                           ;initializer for _manualZn1Val
   121  002A78  31                 	db	49
   122                           
   123                           ;initializer for _manualZn2Val
   124  002A79  31                 	db	49
   125                           
   126                           ;initializer for _manualZn3Val
   127  002A7A  31                 	db	49
   128                           
   129                           	psect	idataBANK0
   130  002420                     __pidataBANK0:
   131                           	opt stack 0
   132                           
   133                           ;initializer for _zoneTimes
   134  002420  B0                 	db	low _time1Zn1
   135  002421  00                 	db	high _time1Zn1
   136  002422  BF                 	db	low _time2Zn1
   137  002423  00                 	db	high _time2Zn1
   138  002424  CE                 	db	low _time3Zn1
   139  002425  00                 	db	high _time3Zn1
   140  002426  B5                 	db	low _time1Zn2
   141  002427  00                 	db	high _time1Zn2
   142  002428  C4                 	db	low _time2Zn2
   143  002429  00                 	db	high _time2Zn2
   144  00242A  D3                 	db	low _time3Zn2
   145  00242B  00                 	db	high _time3Zn2
   146  00242C  BA                 	db	low _time1Zn3
   147  00242D  00                 	db	high _time1Zn3
   148  00242E  C9                 	db	low _time2Zn3
   149  00242F  00                 	db	high _time2Zn3
   150  002430  D8                 	db	low _time3Zn3
   151  002431  00                 	db	high _time3Zn3
   152                           
   153                           ;initializer for _humidityZnValuesInt
   154  002432  E9                 	db	low _humidityZn1ValInt
   155  002433  00                 	db	high _humidityZn1ValInt
   156  002434  EA                 	db	low _humidityZn2ValInt
   157  002435  00                 	db	high _humidityZn2ValInt
   158  002436  EB                 	db	low _humidityZn3ValInt
   159  002437  00                 	db	high _humidityZn3ValInt
   160                           
   161                           ;initializer for _zoneEndTimes
   162  002438  A1                 	db	low _endTimeZn1
   163  002439  00                 	db	high _endTimeZn1
   164  00243A  A6                 	db	low _endTimeZn2
   165  00243B  00                 	db	high _endTimeZn2
   166  00243C  AB                 	db	low _endTimeZn3
   167  00243D  00                 	db	high _endTimeZn3
   168                           
   169                           ;initializer for timerConfiguration@F16264
   170  00243E  30                 	db	48
   171  00243F  30                 	db	48
   172  002440  30                 	db	48
   173  002441  30                 	db	48
   174  002442  00                 	db	0
   175                           
   176                           ;initializer for _CONVERSIONRATE
   177  002443  D7                 	db	215
   178  002444  23                 	db	35
   179  002445  41                 	db	65
   180                           
   181                           ;initializer for _timerMessage
   182  002446  54                 	db	84
   183  002447  69                 	db	105
   184  002448  6D                 	db	109
   185  002449  65                 	db	101
   186  00244A  72                 	db	114
   187  00244B  20                 	db	32
   188  00244C  6D                 	db	109
   189  00244D  6F                 	db	111
   190  00244E  64                 	db	100
   191  00244F  65                 	db	101
   192  002450  00                 	db	0
   193                           
   194                           ;initializer for _manualInactiveMessage
   195  002451  49                 	db	73
   196  002452  6E                 	db	110
   197  002453  61                 	db	97
   198  002454  63                 	db	99
   199  002455  74                 	db	116
   200  002456  69                 	db	105
   201  002457  76                 	db	118
   202  002458  65                 	db	101
   203  002459  00                 	db	0
   204                           
   205                           ;initializer for _manualActiveMessage
   206  00245A  41                 	db	65
   207  00245B  63                 	db	99
   208  00245C  74                 	db	116
   209  00245D  69                 	db	105
   210  00245E  76                 	db	118
   211  00245F  65                 	db	101
   212  002460  00                 	db	0
   213                           
   214                           ;initializer for _endTimeZn1
   215  002461  24                 	db	36
   216  002462  24                 	db	36
   217  002463  24                 	db	36
   218  002464  24                 	db	36
   219  002465  00                 	db	0
   220                           
   221                           ;initializer for _endTimeZn2
   222  002466  24                 	db	36
   223  002467  24                 	db	36
   224  002468  24                 	db	36
   225  002469  24                 	db	36
   226  00246A  00                 	db	0
   227                           
   228                           ;initializer for _endTimeZn3
   229  00246B  24                 	db	36
   230  00246C  24                 	db	36
   231  00246D  24                 	db	36
   232  00246E  24                 	db	36
   233  00246F  00                 	db	0
   234                           
   235                           ;initializer for _time1Zn1
   236  002470  24                 	db	36
   237  002471  24                 	db	36
   238  002472  24                 	db	36
   239  002473  24                 	db	36
   240  002474  00                 	db	0
   241                           
   242                           ;initializer for _time1Zn2
   243  002475  24                 	db	36
   244  002476  24                 	db	36
   245  002477  24                 	db	36
   246  002478  24                 	db	36
   247  002479  00                 	db	0
   248                           
   249                           ;initializer for _time1Zn3
   250  00247A  24                 	db	36
   251  00247B  24                 	db	36
   252  00247C  24                 	db	36
   253  00247D  24                 	db	36
   254  00247E  00                 	db	0
   255                           
   256                           ;initializer for _time2Zn1
   257  00247F  24                 	db	36
   258  002480  24                 	db	36
   259  002481  24                 	db	36
   260  002482  24                 	db	36
   261  002483  00                 	db	0
   262                           
   263                           ;initializer for _time2Zn2
   264  002484  24                 	db	36
   265  002485  24                 	db	36
   266  002486  24                 	db	36
   267  002487  24                 	db	36
   268  002488  00                 	db	0
   269                           
   270                           ;initializer for _time2Zn3
   271  002489  24                 	db	36
   272  00248A  24                 	db	36
   273  00248B  24                 	db	36
   274  00248C  24                 	db	36
   275  00248D  00                 	db	0
   276                           
   277                           ;initializer for _time3Zn1
   278  00248E  24                 	db	36
   279  00248F  24                 	db	36
   280  002490  24                 	db	36
   281  002491  24                 	db	36
   282  002492  00                 	db	0
   283                           
   284                           ;initializer for _time3Zn2
   285  002493  24                 	db	36
   286  002494  24                 	db	36
   287  002495  24                 	db	36
   288  002496  24                 	db	36
   289  002497  00                 	db	0
   290                           
   291                           ;initializer for _time3Zn3
   292  002498  24                 	db	36
   293  002499  24                 	db	36
   294  00249A  24                 	db	36
   295  00249B  24                 	db	36
   296  00249C  00                 	db	0
   297                           
   298                           ;initializer for _counterHOUR
   299  00249D  30                 	db	48
   300  00249E  30                 	db	48
   301  00249F  00                 	db	0
   302                           
   303                           ;initializer for _counterMIN
   304  0024A0  30                 	db	48
   305  0024A1  30                 	db	48
   306  0024A2  00                 	db	0
   307                           
   308                           ;initializer for _humidityZn2Val
   309  0024A3  35                 	db	53
   310  0024A4  30                 	db	48
   311  0024A5  00                 	db	0
   312                           
   313                           ;initializer for _humidityZn3Val
   314  0024A6  35                 	db	53
   315  0024A7  30                 	db	48
   316  0024A8  00                 	db	0
   317                           
   318                           ;initializer for _humidityZn1ValInt
   319  0024A9  32                 	db	50
   320                           
   321                           ;initializer for _humidityZn2ValInt
   322  0024AA  32                 	db	50
   323                           
   324                           ;initializer for _humidityZn3ValInt
   325  0024AB  32                 	db	50
   326                           
   327                           	psect	idataBANK1
   328  0026D2                     __pidataBANK1:
   329                           	opt stack 0
   330                           
   331                           ;initializer for _GREETING
   332  0026D2  48                 	db	72
   333  0026D3  65                 	db	101
   334  0026D4  6C                 	db	108
   335  0026D5  6C                 	db	108
   336  0026D6  6F                 	db	111
   337  0026D7  20                 	db	32
   338  0026D8  57                 	db	87
   339  0026D9  6F                 	db	111
   340  0026DA  72                 	db	114
   341  0026DB  6C                 	db	108
   342  0026DC  64                 	db	100
   343  0026DD  00                 	db	0
   344                           
   345                           ;initializer for _CASTELLO
   346  0026DE  43                 	db	67
   347  0026DF  61                 	db	97
   348  0026E0  73                 	db	115
   349  0026E1  74                 	db	116
   350  0026E2  65                 	db	101
   351  0026E3  6C                 	db	108
   352  0026E4  6C                 	db	108
   353  0026E5  6F                 	db	111
   354  0026E6  20                 	db	32
   355  0026E7  3C                 	db	60
   356  0026E8  00                 	db	0
   357                           
   358                           ;initializer for _automaticMessage
   359  0026E9  41                 	db	65
   360  0026EA  75                 	db	117
   361  0026EB  74                 	db	116
   362  0026EC  6F                 	db	111
   363  0026ED  6D                 	db	109
   364  0026EE  61                 	db	97
   365  0026EF  74                 	db	116
   366  0026F0  69                 	db	105
   367  0026F1  63                 	db	99
   368  0026F2  20                 	db	32
   369  0026F3  6D                 	db	109
   370  0026F4  6F                 	db	111
   371  0026F5  64                 	db	100
   372  0026F6  65                 	db	101
   373  0026F7  00                 	db	0
   374                           
   375                           ;initializer for _manualMessage
   376  0026F8  4D                 	db	77
   377  0026F9  61                 	db	97
   378  0026FA  6E                 	db	110
   379  0026FB  75                 	db	117
   380  0026FC  61                 	db	97
   381  0026FD  6C                 	db	108
   382  0026FE  20                 	db	32
   383  0026FF  6D                 	db	109
   384  002700  6F                 	db	111
   385  002701  64                 	db	100
   386  002702  65                 	db	101
   387  002703  00                 	db	0
   388                           
   389                           ;initializer for _configAutoMessage
   390  002704  48                 	db	72
   391  002705  75                 	db	117
   392  002706  6D                 	db	109
   393  002707  69                 	db	105
   394  002708  64                 	db	100
   395  002709  69                 	db	105
   396  00270A  74                 	db	116
   397  00270B  79                 	db	121
   398  00270C  3A                 	db	58
   399  00270D  20                 	db	32
   400  00270E  00                 	db	0
   401  0000                     _ADRES	set	4035
   402  0000                     _TMR0	set	4054
   403  0000                     _ADCON0	set	4034
   404  0000                     _ADCON0bits	set	4034
   405  0000                     _ADCON1	set	4033
   406  0000                     _ADCON2	set	4032
   407  0000                     _CMCON	set	4020
   408  0000                     _CVRCONbits	set	4021
   409  0000                     _INTCON2bits	set	4081
   410  0000                     _INTCONbits	set	4082
   411  0000                     _IPR1bits	set	3999
   412  0000                     _LATA	set	3977
   413  0000                     _LATB	set	3978
   414  0000                     _LATC	set	3979
   415  0000                     _LATEbits	set	3981
   416  0000                     _OSCCON	set	4051
   417  0000                     _PIE1bits	set	3997
   418  0000                     _PIR1bits	set	3998
   419  0000                     _PORTA	set	3968
   420  0000                     _PORTB	set	3969
   421  0000                     _PORTBbits	set	3969
   422  0000                     _PORTC	set	3970
   423  0000                     _PORTCbits	set	3970
   424  0000                     _PORTD	set	3971
   425  0000                     _PORTDbits	set	3971
   426  0000                     _PORTEbits	set	3972
   427  0000                     _RCONbits	set	4048
   428  0000                     _T0CON	set	4053
   429  0000                     _T0CONbits	set	4053
   430  0000                     _TRISA	set	3986
   431  0000                     _TRISAbits	set	3986
   432  0000                     _TRISB	set	3987
   433  0000                     _TRISBbits	set	3987
   434  0000                     _TRISC	set	3988
   435  0000                     _TRISD	set	3989
   436  0000                     _TRISEbits	set	3990
   437  0000                     _TMR0IE	set	32661
   438  0000                     _TMR0IF	set	32658
   439                           
   440                           	psect	smallconst
   441  000D00                     __psmallconst:
   442                           	opt stack 0
   443  000D00  00                 	db	0
   444  000D01                     STR_3:
   445  000D01  50                 	db	80	;'P'
   446  000D02  65                 	db	101	;'e'
   447  000D03  72                 	db	114	;'r'
   448  000D04  69                 	db	105	;'i'
   449  000D05  6F                 	db	111	;'o'
   450  000D06  64                 	db	100	;'d'
   451  000D07  20                 	db	32
   452  000D08  6F                 	db	111	;'o'
   453  000D09  66                 	db	102	;'f'
   454  000D0A  20                 	db	32
   455  000D0B  74                 	db	116	;'t'
   456  000D0C  69                 	db	105	;'i'
   457  000D0D  6D                 	db	109	;'m'
   458  000D0E  65                 	db	101	;'e'
   459  000D0F  3A                 	db	58	;':'
   460  000D10  00                 	db	0
   461  000D11                     STR_1:
   462  000D11  54                 	db	84	;'T'
   463  000D12  69                 	db	105	;'i'
   464  000D13  6D                 	db	109	;'m'
   465  000D14  65                 	db	101	;'e'
   466  000D15  73                 	db	115	;'s'
   467  000D16  20                 	db	32
   468  000D17  70                 	db	112	;'p'
   469  000D18  65                 	db	101	;'e'
   470  000D19  72                 	db	114	;'r'
   471  000D1A  20                 	db	32
   472  000D1B  64                 	db	100	;'d'
   473  000D1C  61                 	db	97	;'a'
   474  000D1D  79                 	db	121	;'y'
   475  000D1E  3A                 	db	58	;':'
   476  000D1F  00                 	db	0
   477  000D20                     STR_4:
   478  000D20  43                 	db	67	;'C'
   479  000D21  6F                 	db	111	;'o'
   480  000D22  6E                 	db	110	;'n'
   481  000D23  66                 	db	102	;'f'
   482  000D24  69                 	db	105	;'i'
   483  000D25  67                 	db	103	;'g'
   484  000D26  20                 	db	32
   485  000D27  48                 	db	72	;'H'
   486  000D28  6F                 	db	111	;'o'
   487  000D29  75                 	db	117	;'u'
   488  000D2A  72                 	db	114	;'r'
   489  000D2B  00                 	db	0
   490  000D2C                     STR_5:
   491  000D2C  20                 	db	32
   492  000D2D  20                 	db	32
   493  000D2E  20                 	db	32
   494  000D2F  20                 	db	32
   495  000D30  20                 	db	32
   496  000D31  00                 	db	0
   497  000D32                     STR_2:
   498  000D32  54                 	db	84	;'T'
   499  000D33  69                 	db	105	;'i'
   500  000D34  6D                 	db	109	;'m'
   501  000D35  65                 	db	101	;'e'
   502  000D36  20                 	db	32
   503  000D37  00                 	db	0
   504                           
   505                           ; #config settings
   506  000D38  00                 	db	0	; dummy byte at the end
   507  0000                     
   508                           	psect	cinit
   509  0024AC                     __pcinit:
   510                           	opt stack 0
   511  0024AC                     start_initialization:
   512                           	opt stack 0
   513  0024AC                     __initialization:
   514                           	opt stack 0
   515                           
   516                           ; Clear objects allocated to BANK0 (4 bytes)
   517  0024AC  0100               	movlb	0
   518  0024AE  6BFF               	clrf	(__pbssBANK0+3)& (0+255),b
   519  0024B0  6BFE               	clrf	(__pbssBANK0+2)& (0+255),b
   520  0024B2  6BFD               	clrf	(__pbssBANK0+1)& (0+255),b
   521  0024B4  6BFC               	clrf	__pbssBANK0& (0+255),b
   522                           
   523                           ; Clear objects allocated to COMRAM (12 bytes)
   524  0024B6  EE00  F038         	lfsr	0,__pbssCOMRAM
   525  0024BA  0E0C               	movlw	12
   526  0024BC                     clear_0:
   527  0024BC  6AEE               	clrf	postinc0,c
   528  0024BE  06E8               	decf	wreg,f,c
   529  0024C0  E1FD               	bnz	clear_0
   530                           
   531                           ; Initialize objects allocated to BANK1 (61 bytes)
   532                           ; load TBLPTR registers with __pidataBANK1
   533  0024C2  0ED2               	movlw	low __pidataBANK1
   534  0024C4  6EF6               	movwf	tblptrl,c
   535  0024C6  0E26               	movlw	high __pidataBANK1
   536  0024C8  6EF7               	movwf	tblptrh,c
   537  0024CA  0E00               	movlw	low (__pidataBANK1 shr (0+16))
   538  0024CC  6EF8               	movwf	tblptru,c
   539  0024CE  EE01  F000         	lfsr	0,__pdataBANK1
   540  0024D2  EE10 F03D          	lfsr	1,61
   541  0024D6                     copy_data0:
   542  0024D6  0009               	tblrd		*+
   543  0024D8  CFF5 FFEE          	movff	tablat,postinc0
   544  0024DC  50E5               	movf	postdec1,w,c
   545  0024DE  50E1               	movf	fsr1l,w,c
   546  0024E0  E1FA               	bnz	copy_data0
   547                           
   548                           ; Initialize objects allocated to BANK0 (140 bytes)
   549                           ; load TBLPTR registers with __pidataBANK0
   550  0024E2  0E20               	movlw	low __pidataBANK0
   551  0024E4  6EF6               	movwf	tblptrl,c
   552  0024E6  0E24               	movlw	high __pidataBANK0
   553  0024E8  6EF7               	movwf	tblptrh,c
   554  0024EA  0E00               	movlw	low (__pidataBANK0 shr (0+16))
   555  0024EC  6EF8               	movwf	tblptru,c
   556  0024EE  EE00  F060         	lfsr	0,__pdataBANK0
   557  0024F2  EE10 F08C          	lfsr	1,140
   558  0024F6                     copy_data1:
   559  0024F6  0009               	tblrd		*+
   560  0024F8  CFF5 FFEE          	movff	tablat,postinc0
   561  0024FC  50E5               	movf	postdec1,w,c
   562  0024FE  50E1               	movf	fsr1l,w,c
   563  002500  E1FA               	bnz	copy_data1
   564                           
   565                           ; Initialize objects allocated to COMRAM (21 bytes)
   566                           ; load TBLPTR registers with __pidataCOMRAM
   567  002502  0E66               	movlw	low __pidataCOMRAM
   568  002504  6EF6               	movwf	tblptrl,c
   569  002506  0E2A               	movlw	high __pidataCOMRAM
   570  002508  6EF7               	movwf	tblptrh,c
   571  00250A  0E00               	movlw	low (__pidataCOMRAM shr (0+16))
   572  00250C  6EF8               	movwf	tblptru,c
   573  00250E  EE00  F023         	lfsr	0,__pdataCOMRAM
   574  002512  EE10 F015          	lfsr	1,21
   575  002516                     copy_data2:
   576  002516  0009               	tblrd		*+
   577  002518  CFF5 FFEE          	movff	tablat,postinc0
   578  00251C  50E5               	movf	postdec1,w,c
   579  00251E  50E1               	movf	fsr1l,w,c
   580  002520  E1FA               	bnz	copy_data2
   581  002522                     end_of_initialization:
   582                           	opt stack 0
   583  002522                     __end_of__initialization:
   584                           	opt stack 0
   585  002522  9044               	bcf	int$flags,0,c	;clear compiler interrupt flag (level 1)
   586  002524  9244               	bcf	int$flags,1,c	;clear compiler interrupt flag (level 2)
   587  002526  0E00               	movlw	low (__Lmediumconst shr (0+16))
   588  002528  6EF8               	movwf	tblptru,c
   589  00252A  0100               	movlb	0
   590  00252C  EFF3  F00E         	goto	_main	;jump to C main() function
   591                           tblptru	equ	0xFF8
   592                           tblptrh	equ	0xFF7
   593                           tblptrl	equ	0xFF6
   594                           tablat	equ	0xFF5
   595                           postinc0	equ	0xFEE
   596                           wreg	equ	0xFE8
   597                           postdec1	equ	0xFE5
   598                           fsr1l	equ	0xFE1
   599                           
   600                           	psect	bssCOMRAM
   601  000038                     __pbssCOMRAM:
   602                           	opt stack 0
   603  000038                     _humidityZnValInt:
   604                           	opt stack 0
   605  000038                     	ds	2
   606  00003A                     _zoneSelected:
   607                           	opt stack 0
   608  00003A                     	ds	2
   609  00003C                     _columnSelected:
   610                           	opt stack 0
   611  00003C                     	ds	1
   612  00003D                     _getValueStatus:
   613                           	opt stack 0
   614  00003D                     	ds	1
   615  00003E                     _irrigateManualStatus:
   616                           	opt stack 0
   617  00003E                     	ds	1
   618  00003F                     _keyCode:
   619                           	opt stack 0
   620  00003F                     	ds	1
   621  000040                     _modeSelected:
   622                           	opt stack 0
   623  000040                     	ds	1
   624  000041                     _oneShotFlag:
   625                           	opt stack 0
   626  000041                     	ds	1
   627  000042                     _rowSelected:
   628                           	opt stack 0
   629  000042                     	ds	1
   630  000043                     _statusConfiguration:
   631                           	opt stack 0
   632  000043                     	ds	1
   633                           tblptru	equ	0xFF8
   634                           tblptrh	equ	0xFF7
   635                           tblptrl	equ	0xFF6
   636                           tablat	equ	0xFF5
   637                           postinc0	equ	0xFEE
   638                           wreg	equ	0xFE8
   639                           postdec1	equ	0xFE5
   640                           fsr1l	equ	0xFE1
   641                           
   642                           	psect	dataCOMRAM
   643  000023                     __pdataCOMRAM:
   644                           	opt stack 0
   645  000023                     _counterDAYS:
   646                           	opt stack 0
   647  000023                     	ds	1
   648  000024                     _counterSEC:
   649                           	opt stack 0
   650  000024                     	ds	1
   651  000025                     _dayName:
   652                           	opt stack 0
   653  000025                     	ds	4
   654  000029                     _humidityZn1Val:
   655                           	opt stack 0
   656  000029                     	ds	3
   657  00002C                     _irrigateTimeZn1:
   658                           	opt stack 0
   659  00002C                     	ds	3
   660  00002F                     _irrigateTimeZn2:
   661                           	opt stack 0
   662  00002F                     	ds	3
   663  000032                     _irrigateTimeZn3:
   664                           	opt stack 0
   665  000032                     	ds	3
   666  000035                     _manualZn1Val:
   667                           	opt stack 0
   668  000035                     	ds	1
   669  000036                     _manualZn2Val:
   670                           	opt stack 0
   671  000036                     	ds	1
   672  000037                     _manualZn3Val:
   673                           	opt stack 0
   674  000037                     	ds	1
   675                           tblptru	equ	0xFF8
   676                           tblptrh	equ	0xFF7
   677                           tblptrl	equ	0xFF6
   678                           tablat	equ	0xFF5
   679                           postinc0	equ	0xFEE
   680                           wreg	equ	0xFE8
   681                           postdec1	equ	0xFE5
   682                           fsr1l	equ	0xFE1
   683                           
   684                           	psect	bssBANK0
   685  0000FC                     __pbssBANK0:
   686                           	opt stack 0
   687  0000FC                     _irrigateTime:
   688                           	opt stack 0
   689  0000FC                     	ds	2
   690  0000FE                     _hourConfiguration:
   691                           	opt stack 0
   692  0000FE                     	ds	1
   693  0000FF                     _offSetZoneTimes:
   694                           	opt stack 0
   695  0000FF                     	ds	1
   696                           tblptru	equ	0xFF8
   697                           tblptrh	equ	0xFF7
   698                           tblptrl	equ	0xFF6
   699                           tablat	equ	0xFF5
   700                           postinc0	equ	0xFEE
   701                           wreg	equ	0xFE8
   702                           postdec1	equ	0xFE5
   703                           fsr1l	equ	0xFE1
   704                           
   705                           	psect	dataBANK0
   706  000060                     __pdataBANK0:
   707                           	opt stack 0
   708  000060                     _zoneTimes:
   709                           	opt stack 0
   710  000060                     	ds	18
   711  000072                     _humidityZnValuesInt:
   712                           	opt stack 0
   713  000072                     	ds	6
   714  000078                     _zoneEndTimes:
   715                           	opt stack 0
   716  000078                     	ds	6
   717  00007E                     timerConfiguration@F16264:
   718                           	opt stack 0
   719  00007E                     	ds	5
   720  000083                     _CONVERSIONRATE:
   721                           	opt stack 0
   722  000083                     	ds	3
   723  000086                     _timerMessage:
   724                           	opt stack 0
   725  000086                     	ds	11
   726  000091                     _manualInactiveMessage:
   727                           	opt stack 0
   728  000091                     	ds	9
   729  00009A                     _manualActiveMessage:
   730                           	opt stack 0
   731  00009A                     	ds	7
   732  0000A1                     _endTimeZn1:
   733                           	opt stack 0
   734  0000A1                     	ds	5
   735  0000A6                     _endTimeZn2:
   736                           	opt stack 0
   737  0000A6                     	ds	5
   738  0000AB                     _endTimeZn3:
   739                           	opt stack 0
   740  0000AB                     	ds	5
   741  0000B0                     _time1Zn1:
   742                           	opt stack 0
   743  0000B0                     	ds	5
   744  0000B5                     _time1Zn2:
   745                           	opt stack 0
   746  0000B5                     	ds	5
   747  0000BA                     _time1Zn3:
   748                           	opt stack 0
   749  0000BA                     	ds	5
   750  0000BF                     _time2Zn1:
   751                           	opt stack 0
   752  0000BF                     	ds	5
   753  0000C4                     _time2Zn2:
   754                           	opt stack 0
   755  0000C4                     	ds	5
   756  0000C9                     _time2Zn3:
   757                           	opt stack 0
   758  0000C9                     	ds	5
   759  0000CE                     _time3Zn1:
   760                           	opt stack 0
   761  0000CE                     	ds	5
   762  0000D3                     _time3Zn2:
   763                           	opt stack 0
   764  0000D3                     	ds	5
   765  0000D8                     _time3Zn3:
   766                           	opt stack 0
   767  0000D8                     	ds	5
   768  0000DD                     _counterHOUR:
   769                           	opt stack 0
   770  0000DD                     	ds	3
   771  0000E0                     _counterMIN:
   772                           	opt stack 0
   773  0000E0                     	ds	3
   774  0000E3                     _humidityZn2Val:
   775                           	opt stack 0
   776  0000E3                     	ds	3
   777  0000E6                     _humidityZn3Val:
   778                           	opt stack 0
   779  0000E6                     	ds	3
   780  0000E9                     _humidityZn1ValInt:
   781                           	opt stack 0
   782  0000E9                     	ds	1
   783  0000EA                     _humidityZn2ValInt:
   784                           	opt stack 0
   785  0000EA                     	ds	1
   786  0000EB                     _humidityZn3ValInt:
   787                           	opt stack 0
   788  0000EB                     	ds	1
   789                           tblptru	equ	0xFF8
   790                           tblptrh	equ	0xFF7
   791                           tblptrl	equ	0xFF6
   792                           tablat	equ	0xFF5
   793                           postinc0	equ	0xFEE
   794                           wreg	equ	0xFE8
   795                           postdec1	equ	0xFE5
   796                           fsr1l	equ	0xFE1
   797                           
   798                           	psect	dataBANK1
   799  000100                     __pdataBANK1:
   800                           	opt stack 0
   801  000100                     _GREETING:
   802                           	opt stack 0
   803  000100                     	ds	12
   804  00010C                     _CASTELLO:
   805                           	opt stack 0
   806  00010C                     	ds	11
   807  000117                     _automaticMessage:
   808                           	opt stack 0
   809  000117                     	ds	15
   810  000126                     _manualMessage:
   811                           	opt stack 0
   812  000126                     	ds	12
   813  000132                     _configAutoMessage:
   814                           	opt stack 0
   815  000132                     	ds	11
   816                           tblptru	equ	0xFF8
   817                           tblptrh	equ	0xFF7
   818                           tblptrl	equ	0xFF6
   819                           tablat	equ	0xFF5
   820                           postinc0	equ	0xFEE
   821                           wreg	equ	0xFE8
   822                           postdec1	equ	0xFE5
   823                           fsr1l	equ	0xFE1
   824                           
   825                           	psect	cstackBANK1
   826  00013D                     __pcstackBANK1:
   827                           	opt stack 0
   828  00013D                     ?___ftmul:
   829                           	opt stack 0
   830  00013D                     workingTimer@j:
   831                           	opt stack 0
   832  00013D                     ___ftmul@f1:
   833                           	opt stack 0
   834  00013D                     timerConfiguration@newHour:
   835                           	opt stack 0
   836                           
   837                           ; 5 bytes @ 0x0
   838  00013D                     	ds	1
   839  00013E                     workingTimer@i_1225:
   840                           	opt stack 0
   841                           
   842                           ; 1 bytes @ 0x1
   843  00013E                     	ds	1
   844  00013F                     workingTimer@endTimeZn:
   845                           	opt stack 0
   846                           
   847                           ; 2 bytes @ 0x2
   848  00013F                     	ds	1
   849  000140                     ___ftmul@f2:
   850                           	opt stack 0
   851                           
   852                           ; 3 bytes @ 0x3
   853  000140                     	ds	1
   854  000141                     workingTimer@i:
   855                           	opt stack 0
   856                           
   857                           ; 1 bytes @ 0x4
   858  000141                     	ds	1
   859  000142                     timerConfiguration@counter:
   860                           	opt stack 0
   861  000142                     workingTimer@zoneTime:
   862                           	opt stack 0
   863                           
   864                           ; 2 bytes @ 0x5
   865  000142                     	ds	1
   866  000143                     timerConfiguration@counter_1212:
   867                           	opt stack 0
   868  000143                     ___ftmul@exp:
   869                           	opt stack 0
   870                           
   871                           ; 1 bytes @ 0x6
   872  000143                     	ds	1
   873  000144                     timerConfiguration@counter_1213:
   874                           	opt stack 0
   875  000144                     ___ftmul@f3_as_product:
   876                           	opt stack 0
   877                           
   878                           ; 3 bytes @ 0x7
   879  000144                     	ds	1
   880  000145                     timerConfiguration@numberIrrigations:
   881                           	opt stack 0
   882                           
   883                           ; 1 bytes @ 0x8
   884  000145                     	ds	1
   885  000146                     timerConfiguration@zoneTime:
   886                           	opt stack 0
   887                           
   888                           ; 2 bytes @ 0x9
   889  000146                     	ds	1
   890  000147                     ___ftmul@cntr:
   891                           	opt stack 0
   892                           
   893                           ; 1 bytes @ 0xA
   894  000147                     	ds	1
   895  000148                     timerConfiguration@i:
   896                           	opt stack 0
   897  000148                     ___ftmul@sign:
   898                           	opt stack 0
   899                           
   900                           ; 1 bytes @ 0xB
   901  000148                     	ds	1
   902  000149                     timerConfiguration@input:
   903                           	opt stack 0
   904  000149                     ___ftge@ff1:
   905                           	opt stack 0
   906                           
   907                           ; 3 bytes @ 0xC
   908  000149                     	ds	3
   909  00014C                     ___ftge@ff2:
   910                           	opt stack 0
   911                           
   912                           ; 3 bytes @ 0xF
   913  00014C                     	ds	3
   914  00014F                     ??___ftge:
   915                           
   916                           ; 1 bytes @ 0x12
   917  00014F                     	ds	3
   918  000152                     ??_workingAutomatic:
   919                           
   920                           ; 1 bytes @ 0x15
   921  000152                     	ds	2
   922                           tblptru	equ	0xFF8
   923                           tblptrh	equ	0xFF7
   924                           tblptrl	equ	0xFF6
   925                           tablat	equ	0xFF5
   926                           postinc0	equ	0xFEE
   927                           wreg	equ	0xFE8
   928                           postdec1	equ	0xFE5
   929                           fsr1l	equ	0xFE1
   930                           
   931                           	psect	cstackBANK0
   932  0000EC                     __pcstackBANK0:
   933                           	opt stack 0
   934  0000EC                     ??_clearUnConfigTimes:
   935  0000EC                     ??_delay:
   936  0000EC                     ?___awmod:
   937                           	opt stack 0
   938  0000EC                     ?___ftpack:
   939                           	opt stack 0
   940  0000EC                     shortDelay@L1REG:
   941                           	opt stack 0
   942  0000EC                     longDelay@L1REG:
   943                           	opt stack 0
   944  0000EC                     determinePressedRow@i:
   945                           	opt stack 0
   946  0000EC                     startIrrigation@zone:
   947                           	opt stack 0
   948  0000EC                     stopIrrigation@zone:
   949                           	opt stack 0
   950  0000EC                     startAC@acChannel:
   951                           	opt stack 0
   952  0000EC                     convertCharsToInt@humidityValue:
   953                           	opt stack 0
   954  0000EC                     clearEndTimes@zoneEndTime:
   955                           	opt stack 0
   956  0000EC                     ___awmod@dividend:
   957                           	opt stack 0
   958  0000EC                     ___ftpack@arg:
   959                           	opt stack 0
   960                           
   961                           ; 3 bytes @ 0x0
   962  0000EC                     	ds	1
   963  0000ED                     longDelay@L2REG:
   964                           	opt stack 0
   965  0000ED                     command@x:
   966                           	opt stack 0
   967  0000ED                     displayCharOnLCD@character:
   968                           	opt stack 0
   969  0000ED                     delay@L1REG:
   970                           	opt stack 0
   971                           
   972                           ; 1 bytes @ 0x1
   973  0000ED                     	ds	1
   974  0000EE                     longDelay@L3REG:
   975                           	opt stack 0
   976  0000EE                     delay@L2REG:
   977                           	opt stack 0
   978  0000EE                     convertCharsToInt@units:
   979                           	opt stack 0
   980  0000EE                     clearEndTimes@i:
   981                           	opt stack 0
   982  0000EE                     displayLineOnLCD@array:
   983                           	opt stack 0
   984  0000EE                     clearUnConfigTimes@zone:
   985                           	opt stack 0
   986  0000EE                     ___awmod@divisor:
   987                           	opt stack 0
   988                           
   989                           ; 2 bytes @ 0x2
   990  0000EE                     	ds	1
   991  0000EF                     convertCharsToInt@dozens:
   992                           	opt stack 0
   993  0000EF                     clearEndTimes@j:
   994                           	opt stack 0
   995  0000EF                     ___ftpack@exp:
   996                           	opt stack 0
   997                           
   998                           ; 1 bytes @ 0x3
   999  0000EF                     	ds	1
  1000  0000F0                     displayLineOnLCD@sizeOfArray:
  1001                           	opt stack 0
  1002  0000F0                     clearUnConfigTimes@numberIrrigations:
  1003                           	opt stack 0
  1004  0000F0                     ___awmod@counter:
  1005                           	opt stack 0
  1006  0000F0                     ___ftpack@sign:
  1007                           	opt stack 0
  1008                           
  1009                           ; 1 bytes @ 0x4
  1010  0000F0                     	ds	1
  1011  0000F1                     ??___ftpack:
  1012  0000F1                     ??_displayLineOnLCD:
  1013  0000F1                     clearUnConfigTimes@i:
  1014                           	opt stack 0
  1015  0000F1                     ___awmod@sign:
  1016                           	opt stack 0
  1017                           
  1018                           ; 1 bytes @ 0x5
  1019  0000F1                     	ds	1
  1020  0000F2                     updateEndTime@endTimeZn:
  1021                           	opt stack 0
  1022                           
  1023                           ; 2 bytes @ 0x6
  1024  0000F2                     	ds	2
  1025  0000F4                     ?___lbtoft:
  1026                           	opt stack 0
  1027  0000F4                     ?___lwtoft:
  1028                           	opt stack 0
  1029  0000F4                     updateEndTime@zoneTime:
  1030                           	opt stack 0
  1031  0000F4                     ___lwtoft@c:
  1032                           	opt stack 0
  1033                           
  1034                           ; 2 bytes @ 0x8
  1035  0000F4                     	ds	2
  1036  0000F6                     updateEndTime@irrigateTimeZn:
  1037                           	opt stack 0
  1038                           
  1039                           ; 2 bytes @ 0xA
  1040  0000F6                     	ds	1
  1041  0000F7                     ___lbtoft@c:
  1042                           	opt stack 0
  1043                           
  1044                           ; 1 bytes @ 0xB
  1045  0000F7                     	ds	1
  1046  0000F8                     ??_updateEndTime:
  1047  0000F8                     ??___ftmul:
  1048  0000F8                     displayLineOnLCD@i:
  1049                           	opt stack 0
  1050                           
  1051                           ; 1 bytes @ 0xC
  1052  0000F8                     	ds	1
  1053  0000F9                     ??_automaticConfiguration:
  1054  0000F9                     ??_timerConfiguration:
  1055  0000F9                     
  1056                           ; 1 bytes @ 0xD
  1057  0000F9                     	ds	1
  1058  0000FA                     automaticConfiguration@counter:
  1059                           	opt stack 0
  1060  0000FA                     manualConfiguration@input:
  1061                           	opt stack 0
  1062                           
  1063                           ; 1 bytes @ 0xE
  1064  0000FA                     	ds	1
  1065  0000FB                     automaticConfiguration@input:
  1066                           	opt stack 0
  1067  0000FB                     workingAutomatic@i:
  1068                           	opt stack 0
  1069                           
  1070                           ; 1 bytes @ 0xF
  1071  0000FB                     	ds	1
  1072  0000FC                     tblptru	equ	0xFF8
  1073                           tblptrh	equ	0xFF7
  1074                           tblptrl	equ	0xFF6
  1075                           tablat	equ	0xFF5
  1076                           postinc0	equ	0xFEE
  1077                           wreg	equ	0xFE8
  1078                           postdec1	equ	0xFE5
  1079                           fsr1l	equ	0xFE1
  1080                           
  1081                           ; 1 bytes @ 0x10
  1082                           
  1083                           	psect	cstackCOMRAM
  1084  000001                     __pcstackCOMRAM:
  1085                           	opt stack 0
  1086  000001                     ??i2_delay:
  1087  000001                     i2determinePressedRow@i:
  1088                           	opt stack 0
  1089  000001                     i2startIrrigation@zone:
  1090                           	opt stack 0
  1091  000001                     i2stopIrrigation@zone:
  1092                           	opt stack 0
  1093                           
  1094                           ; 1 bytes @ 0x0
  1095  000001                     	ds	1
  1096  000002                     pressedKeyAction@keyCode:
  1097                           	opt stack 0
  1098  000002                     i2delay@L1REG:
  1099                           	opt stack 0
  1100                           
  1101                           ; 1 bytes @ 0x1
  1102  000002                     	ds	1
  1103  000003                     i2delay@L2REG:
  1104                           	opt stack 0
  1105                           
  1106                           ; 1 bytes @ 0x2
  1107  000003                     	ds	1
  1108  000004                     ??_ISRH:
  1109                           
  1110                           ; 1 bytes @ 0x3
  1111  000004                     	ds	14
  1112  000012                     ??_ISRL:
  1113                           
  1114                           ; 1 bytes @ 0x11
  1115  000012                     	ds	17
  1116                           tblptru	equ	0xFF8
  1117                           tblptrh	equ	0xFF7
  1118                           tblptrl	equ	0xFF6
  1119                           tablat	equ	0xFF5
  1120                           postinc0	equ	0xFEE
  1121                           wreg	equ	0xFE8
  1122                           postdec1	equ	0xFE5
  1123                           fsr1l	equ	0xFE1
  1124                           
  1125 ;;
  1126 ;;Main: autosize = 0, tempsize = 0, incstack = 0, save=0
  1127 ;;
  1128 ;; *************** function _main *****************
  1129 ;; Defined at:
  1130 ;;		line 263 in file "SysRiego.c"
  1131 ;; Parameters:    Size  Location     Type
  1132 ;;		None
  1133 ;; Auto vars:     Size  Location     Type
  1134 ;;		None
  1135 ;; Return value:  Size  Location     Type
  1136 ;;                  1    wreg      void 
  1137 ;; Registers used:
  1138 ;;		wreg, fsr0l, fsr0h, fsr1l, fsr1h, fsr2l, fsr2h, status,2, status,0, tblptrl, tblptrh, tblptru, prodl, prodh, cstack
  1139 ;; Tracked objects:
  1140 ;;		On entry : 0/0
  1141 ;;		On exit  : 0/0
  1142 ;;		Unchanged: 0/0
  1143 ;; Data sizes:     COMRAM   BANK0   BANK1   BANK2   BANK3   BANK4   BANK5   BANK6   BANK7   BANK8   BANK9  BANK10  BANK1
      +1  BANK12
  1144 ;;      Params:         0       0       0       0       0       0       0       0       0       0       0       0       
      +0       0
  1145 ;;      Locals:         0       0       0       0       0       0       0       0       0       0       0       0       
      +0       0
  1146 ;;      Temps:          0       0       0       0       0       0       0       0       0       0       0       0       
      +0       0
  1147 ;;      Totals:         0       0       0       0       0       0       0       0       0       0       0       0       
      +0       0
  1148 ;;Total ram usage:        0 bytes
  1149 ;; Hardware stack levels required when called:   13
  1150 ;; This function calls:
  1151 ;;		_LCDSetup
  1152 ;;		_automaticConfiguration
  1153 ;;		_manualConfiguration
  1154 ;;		_portDAsOutput
  1155 ;;		_timerConfiguration
  1156 ;;		_workingAutomatic
  1157 ;;		_workingManual
  1158 ;;		_workingTimer
  1159 ;; This function is called by:
  1160 ;;		Startup code after reset
  1161 ;; This function uses a non-reentrant model
  1162 ;;
  1163                           
  1164                           	psect	text0
  1165  001DE6                     __ptext0:
  1166                           	opt stack 0
  1167  001DE6                     _main:
  1168                           	opt stack 18
  1169                           
  1170                           ;SysRiego.c: 266: OSCCON = 0x60;
  1171                           
  1172                           ;incstack = 0
  1173  001DE6  0E60               	movlw	96
  1174  001DE8  6ED3               	movwf	4051,c	;volatile
  1175                           
  1176                           ;SysRiego.c: 270: CMCON = 0x07;
  1177  001DEA  0E07               	movlw	7
  1178  001DEC  6EB4               	movwf	4020,c	;volatile
  1179                           
  1180                           ;SysRiego.c: 271: CVRCONbits.CVREN = 0;
  1181  001DEE  9EB5               	bcf	4021,7,c	;volatile
  1182                           
  1183                           ;SysRiego.c: 272: ADCON1 = 0x0F;
  1184  001DF0  0E0F               	movlw	15
  1185  001DF2  6EC1               	movwf	4033,c	;volatile
  1186                           
  1187                           ;SysRiego.c: 274: PORTB = 0X00;
  1188  001DF4  0E00               	movlw	0
  1189  001DF6  6E81               	movwf	3969,c	;volatile
  1190                           
  1191                           ;SysRiego.c: 275: LATB = 0X00;
  1192  001DF8  0E00               	movlw	0
  1193  001DFA  6E8A               	movwf	3978,c	;volatile
  1194                           
  1195                           ;SysRiego.c: 276: TRISB = 0XFF;
  1196  001DFC  6893               	setf	3987,c	;volatile
  1197                           
  1198                           ;SysRiego.c: 278: PORTC = 0X00;
  1199  001DFE  0E00               	movlw	0
  1200  001E00  6E82               	movwf	3970,c	;volatile
  1201                           
  1202                           ;SysRiego.c: 279: LATC = 0X00;
  1203  001E02  0E00               	movlw	0
  1204  001E04  6E8B               	movwf	3979,c	;volatile
  1205                           
  1206                           ;SysRiego.c: 280: TRISC = 0X00;
  1207  001E06  0E00               	movlw	0
  1208  001E08  6E94               	movwf	3988,c	;volatile
  1209                           
  1210                           ;SysRiego.c: 283: TRISBbits.RB0 = 0;
  1211  001E0A  9093               	bcf	3987,0,c	;volatile
  1212                           
  1213                           ;SysRiego.c: 284: TRISBbits.RB1 = 0;
  1214  001E0C  9293               	bcf	3987,1,c	;volatile
  1215                           
  1216                           ;SysRiego.c: 285: TRISBbits.RB2 = 0;
  1217  001E0E  9493               	bcf	3987,2,c	;volatile
  1218                           
  1219                           ;SysRiego.c: 286: TRISBbits.RB3 = 0;
  1220  001E10  9693               	bcf	3987,3,c	;volatile
  1221                           
  1222                           ;SysRiego.c: 288: PORTEbits.RE0 = 0;
  1223  001E12  9084               	bcf	3972,0,c	;volatile
  1224                           
  1225                           ;SysRiego.c: 289: PORTEbits.RE1 = 0;
  1226  001E14  9284               	bcf	3972,1,c	;volatile
  1227                           
  1228                           ;SysRiego.c: 290: PORTEbits.RE2 = 0;
  1229  001E16  9484               	bcf	3972,2,c	;volatile
  1230                           
  1231                           ;SysRiego.c: 292: LATEbits.LATE0 = 0;
  1232  001E18  908D               	bcf	3981,0,c	;volatile
  1233                           
  1234                           ;SysRiego.c: 293: LATEbits.LATE1 = 0;
  1235  001E1A  928D               	bcf	3981,1,c	;volatile
  1236                           
  1237                           ;SysRiego.c: 294: LATEbits.LATE2 = 0;
  1238  001E1C  948D               	bcf	3981,2,c	;volatile
  1239                           
  1240                           ;SysRiego.c: 296: TRISEbits.RE0 = 0;
  1241  001E1E  9096               	bcf	3990,0,c	;volatile
  1242                           
  1243                           ;SysRiego.c: 297: TRISEbits.RE1 = 0;
  1244  001E20  9296               	bcf	3990,1,c	;volatile
  1245                           
  1246                           ;SysRiego.c: 298: TRISEbits.RE2 = 0;
  1247  001E22  9496               	bcf	3990,2,c	;volatile
  1248                           
  1249                           ;SysRiego.c: 302: RCONbits.IPEN = 1;
  1250  001E24  8ED0               	bsf	4048,7,c	;volatile
  1251                           
  1252                           ;SysRiego.c: 305: INTCONbits.GIEH = 1;
  1253  001E26  8EF2               	bsf	intcon,7,c	;volatile
  1254                           
  1255                           ;SysRiego.c: 308: INTCONbits.GIEL = 1;
  1256  001E28  8CF2               	bsf	intcon,6,c	;volatile
  1257                           
  1258                           ;SysRiego.c: 311: INTCON2bits.RBPU = 0;
  1259  001E2A  9EF1               	bcf	intcon2,7,c	;volatile
  1260                           
  1261                           ;SysRiego.c: 314: INTCONbits.RBIE = 1;
  1262  001E2C  86F2               	bsf	intcon,3,c	;volatile
  1263                           
  1264                           ;SysRiego.c: 317: INTCONbits.RBIF = 0;
  1265  001E2E  90F2               	bcf	intcon,0,c	;volatile
  1266                           
  1267                           ;SysRiego.c: 320: INTCON2bits.RBIP = 1;
  1268  001E30  80F1               	bsf	intcon2,0,c	;volatile
  1269                           
  1270                           ;SysRiego.c: 323: portDAsOutput();
  1271  001E32  EC8A  F015         	call	_portDAsOutput	;wreg free
  1272                           
  1273                           ;SysRiego.c: 326: LCDSetup();
  1274  001E36  EC6B  F014         	call	_LCDSetup	;wreg free
  1275                           
  1276                           ;SysRiego.c: 335: modeSelected = 0;
  1277  001E3A  0E00               	movlw	0
  1278  001E3C  6E40               	movwf	_modeSelected,c
  1279                           
  1280                           ;SysRiego.c: 337: getValueStatus = 0;
  1281  001E3E  0E00               	movlw	0
  1282  001E40  6E3D               	movwf	_getValueStatus,c
  1283                           
  1284                           ;SysRiego.c: 338: statusConfiguration = 0;
  1285  001E42  0E00               	movlw	0
  1286  001E44  6E43               	movwf	_statusConfiguration,c
  1287                           
  1288                           ;SysRiego.c: 339: oneShotFlag = 0;
  1289  001E46  0E00               	movlw	0
  1290  001E48  6E41               	movwf	_oneShotFlag,c
  1291                           
  1292                           ;SysRiego.c: 343: INTCON2bits.TMR0IP = 1;
  1293  001E4A  84F1               	bsf	intcon2,2,c	;volatile
  1294                           
  1295                           ;SysRiego.c: 346: INTCONbits.TMR0IE = 1;
  1296  001E4C  8AF2               	bsf	intcon,5,c	;volatile
  1297                           
  1298                           ;SysRiego.c: 350: T0CON = 0x07;
  1299  001E4E  0E07               	movlw	7
  1300  001E50  6ED5               	movwf	4053,c	;volatile
  1301                           
  1302                           ;SysRiego.c: 354: TMR0 = 0x3A98;
  1303  001E52  0E3A               	movlw	58
  1304  001E54  6ED7               	movwf	4055,c	;volatile
  1305  001E56  0E98               	movlw	152
  1306  001E58  6ED6               	movwf	4054,c	;volatile
  1307                           
  1308                           ;SysRiego.c: 356: T0CONbits.TMR0ON = 1;
  1309  001E5A  8ED5               	bsf	4053,7,c	;volatile
  1310                           
  1311                           ;SysRiego.c: 360: CMCON = 0xFF;
  1312  001E5C  68B4               	setf	4020,c	;volatile
  1313                           
  1314                           ;SysRiego.c: 363: ADCON1 = 0x0C;
  1315  001E5E  0E0C               	movlw	12
  1316  001E60  6EC1               	movwf	4033,c	;volatile
  1317                           
  1318                           ;SysRiego.c: 364: ADCON2 = 0x95;
  1319  001E62  0E95               	movlw	149
  1320  001E64  6EC0               	movwf	4032,c	;volatile
  1321  001E66                     l5648:
  1322                           
  1323                           ;SysRiego.c: 370: if(statusConfiguration == 0) {
  1324  001E66  5043               	movf	_statusConfiguration,w,c
  1325  001E68  B4D8               	btfsc	status,2,c
  1326  001E6A  D00A               	goto	l5660
  1327  001E6C  D01D               	goto	l5670
  1328  001E6E                     l5652:
  1329                           
  1330                           ;SysRiego.c: 374: workingAutomatic();
  1331  001E6E  EC5F  F00F         	call	_workingAutomatic	;wreg free
  1332                           
  1333                           ;SysRiego.c: 375: break;
  1334  001E72  D7F9               	goto	l5648
  1335  001E74                     l5654:
  1336                           
  1337                           ;SysRiego.c: 378: workingTimer();
  1338  001E74  EC75  F009         	call	_workingTimer	;wreg free
  1339                           
  1340                           ;SysRiego.c: 379: break;
  1341  001E78  D7F6               	goto	l5648
  1342  001E7A                     l5656:
  1343                           
  1344                           ;SysRiego.c: 382: workingManual();
  1345  001E7A  ECD5  F013         	call	_workingManual	;wreg free
  1346                           
  1347                           ;SysRiego.c: 385: }
  1348                           
  1349                           ;SysRiego.c: 383: break;
  1350  001E7E  D7F3               	goto	l5648
  1351  001E80                     l5660:
  1352  001E80  5040               	movf	_modeSelected,w,c
  1353                           
  1354                           ; Switch size 1, requested type "space"
  1355                           ; Number of cases is 3, Range of values is 0 to 2
  1356                           ; switch strategies available:
  1357                           ; Name         Instructions Cycles
  1358                           ; simple_byte           10     6 (average)
  1359                           ;	Chosen strategy is simple_byte
  1360  001E82  0A00               	xorlw	0	; case 0
  1361  001E84  B4D8               	btfsc	status,2,c
  1362  001E86  D7F3               	goto	l5652
  1363  001E88  0A01               	xorlw	1	; case 1
  1364  001E8A  B4D8               	btfsc	status,2,c
  1365  001E8C  D7F3               	goto	l5654
  1366  001E8E  0A03               	xorlw	3	; case 2
  1367  001E90  B4D8               	btfsc	status,2,c
  1368  001E92  D7F3               	goto	l5656
  1369                           
  1370                           ;SysRiego.c: 386: }
  1371  001E94  D7E8               	goto	l5648
  1372  001E96                     l5662:
  1373                           
  1374                           ;SysRiego.c: 392: automaticConfiguration();
  1375  001E96  ECA3  F010         	call	_automaticConfiguration	;wreg free
  1376                           
  1377                           ;SysRiego.c: 393: break;
  1378  001E9A  D7E5               	goto	l5648
  1379  001E9C                     l5664:
  1380                           
  1381                           ;SysRiego.c: 396: timerConfiguration();
  1382  001E9C  EC9D  F006         	call	_timerConfiguration	;wreg free
  1383                           
  1384                           ;SysRiego.c: 397: break;
  1385  001EA0  D7E2               	goto	l5648
  1386  001EA2                     l5666:
  1387                           
  1388                           ;SysRiego.c: 400: manualConfiguration();
  1389  001EA2  EC6F  F00E         	call	_manualConfiguration	;wreg free
  1390                           
  1391                           ;SysRiego.c: 403: }
  1392                           
  1393                           ;SysRiego.c: 401: break;
  1394  001EA6  D7DF               	goto	l5648
  1395  001EA8                     l5670:
  1396  001EA8  5040               	movf	_modeSelected,w,c
  1397                           
  1398                           ; Switch size 1, requested type "space"
  1399                           ; Number of cases is 3, Range of values is 0 to 2
  1400                           ; switch strategies available:
  1401                           ; Name         Instructions Cycles
  1402                           ; simple_byte           10     6 (average)
  1403                           ;	Chosen strategy is simple_byte
  1404  001EAA  0A00               	xorlw	0	; case 0
  1405  001EAC  B4D8               	btfsc	status,2,c
  1406  001EAE  D7F3               	goto	l5662
  1407  001EB0  0A01               	xorlw	1	; case 1
  1408  001EB2  B4D8               	btfsc	status,2,c
  1409  001EB4  D7F3               	goto	l5664
  1410  001EB6  0A03               	xorlw	3	; case 2
  1411  001EB8  B4D8               	btfsc	status,2,c
  1412  001EBA  D7F3               	goto	l5666
  1413  001EBC  D7D4               	goto	l5648
  1414  001EBE                     __end_of_main:
  1415                           	opt stack 0
  1416                           tblptru	equ	0xFF8
  1417                           tblptrh	equ	0xFF7
  1418                           tblptrl	equ	0xFF6
  1419                           tablat	equ	0xFF5
  1420                           intcon	equ	0xFF2
  1421                           intcon2	equ	0xFF1
  1422                           postinc0	equ	0xFEE
  1423                           wreg	equ	0xFE8
  1424                           postdec1	equ	0xFE5
  1425                           fsr1l	equ	0xFE1
  1426                           status	equ	0xFD8
  1427                           
  1428 ;; *************** function _workingTimer *****************
  1429 ;; Defined at:
  1430 ;;		line 785 in file "SysRiego.c"
  1431 ;; Parameters:    Size  Location     Type
  1432 ;;		None
  1433 ;; Auto vars:     Size  Location     Type
  1434 ;;  j               1    0[BANK1 ] unsigned char 
  1435 ;;  endTimeZn       2    2[BANK1 ] PTR unsigned char 
  1436 ;;		 -> endTimeZn3(5), endTimeZn2(5), endTimeZn1(5), 
  1437 ;;  i               1    1[BANK1 ] unsigned char 
  1438 ;;  i               1    4[BANK1 ] unsigned char 
  1439 ;;  zoneTime        2    5[BANK1 ] PTR unsigned char 
  1440 ;;		 -> time3Zn3(5), time2Zn3(5), time1Zn3(5), time3Zn2(5), 
  1441 ;;		 -> time2Zn2(5), time1Zn2(5), time3Zn1(5), time2Zn1(5), 
  1442 ;;		 -> time1Zn1(5), 
  1443 ;; Return value:  Size  Location     Type
  1444 ;;                  1    wreg      void 
  1445 ;; Registers used:
  1446 ;;		wreg, fsr0l, fsr0h, fsr1l, fsr1h, fsr2l, fsr2h, status,2, status,0, tblptrl, tblptrh, tblptru, prodl, prodh, cstack
  1447 ;; Tracked objects:
  1448 ;;		On entry : 0/0
  1449 ;;		On exit  : 0/0
  1450 ;;		Unchanged: 0/0
  1451 ;; Data sizes:     COMRAM   BANK0   BANK1   BANK2   BANK3   BANK4   BANK5   BANK6   BANK7   BANK8   BANK9  BANK10  BANK1
      +1  BANK12
  1452 ;;      Params:         0       0       0       0       0       0       0       0       0       0       0       0       
      +0       0
  1453 ;;      Locals:         0       0       7       0       0       0       0       0       0       0       0       0       
      +0       0
  1454 ;;      Temps:          0       1       0       0       0       0       0       0       0       0       0       0       
      +0       0
  1455 ;;      Totals:         0       1       7       0       0       0       0       0       0       0       0       0       
      +0       0
  1456 ;;Total ram usage:        8 bytes
  1457 ;; Hardware stack levels used:    1
  1458 ;; Hardware stack levels required when called:   10
  1459 ;; This function calls:
  1460 ;;		_clearDisplay
  1461 ;;		_clearEndTimes
  1462 ;;		_command
  1463 ;;		_displayLineOnLCD
  1464 ;;		_startIrrigation
  1465 ;;		_stopAllIrrigation
  1466 ;;		_stopIrrigation
  1467 ;;		_updateEndTime
  1468 ;; This function is called by:
  1469 ;;		_main
  1470 ;; This function uses a non-reentrant model
  1471 ;;
  1472                           
  1473                           	psect	text1
  1474  0012EA                     __ptext1:
  1475                           	opt stack 0
  1476  0012EA                     _workingTimer:
  1477                           	opt stack 20
  1478                           
  1479                           ;SysRiego.c: 787: clearDisplay();
  1480                           
  1481                           ;incstack = 0
  1482  0012EA  EC64  F015         	call	_clearDisplay	;wreg free
  1483                           
  1484                           ;SysRiego.c: 788: displayLineOnLCD(timerMessage, sizeof(timerMessage) / sizeof(timerMess
      +                          age[0]));
  1485  0012EE  0E86               	movlw	low _timerMessage
  1486  0012F0  0100               	movlb	0	; () banked
  1487  0012F2  6FEE               	movwf	displayLineOnLCD@array& (0+255),b
  1488  0012F4  0E00               	movlw	high _timerMessage
  1489  0012F6  0100               	movlb	0	; () banked
  1490  0012F8  6FEF               	movwf	(displayLineOnLCD@array+1)& (0+255),b
  1491  0012FA  0E0B               	movlw	11
  1492  0012FC  0100               	movlb	0	; () banked
  1493  0012FE  6FF0               	movwf	displayLineOnLCD@sizeOfArray& (0+255),b
  1494  001300  ECC2  F011         	call	_displayLineOnLCD	;wreg free
  1495                           
  1496                           ;SysRiego.c: 790: unsigned char *zoneTime;
  1497                           ;SysRiego.c: 792: while(modeSelected == 1 && statusConfiguration == 0) {
  1498  001304  D11C               	goto	l5356
  1499  001306                     l5274:
  1500                           
  1501                           ;SysRiego.c: 793: command(0xC0);
  1502  001306  0EC0               	movlw	192
  1503  001308  EC28  F015         	call	_command
  1504                           
  1505                           ;SysRiego.c: 794: displayLineOnLCD(counterHOUR, 3);
  1506  00130C  0EDD               	movlw	low _counterHOUR
  1507  00130E  0100               	movlb	0	; () banked
  1508  001310  6FEE               	movwf	displayLineOnLCD@array& (0+255),b
  1509  001312  0E00               	movlw	high _counterHOUR
  1510  001314  0100               	movlb	0	; () banked
  1511  001316  6FEF               	movwf	(displayLineOnLCD@array+1)& (0+255),b
  1512  001318  0E03               	movlw	3
  1513  00131A  0100               	movlb	0	; () banked
  1514  00131C  6FF0               	movwf	displayLineOnLCD@sizeOfArray& (0+255),b
  1515  00131E  ECC2  F011         	call	_displayLineOnLCD	;wreg free
  1516                           
  1517                           ;SysRiego.c: 795: displayLineOnLCD(counterMIN, 3);
  1518  001322  0EE0               	movlw	low _counterMIN
  1519  001324  0100               	movlb	0	; () banked
  1520  001326  6FEE               	movwf	displayLineOnLCD@array& (0+255),b
  1521  001328  0E00               	movlw	high _counterMIN
  1522  00132A  0100               	movlb	0	; () banked
  1523  00132C  6FEF               	movwf	(displayLineOnLCD@array+1)& (0+255),b
  1524  00132E  0E03               	movlw	3
  1525  001330  0100               	movlb	0	; () banked
  1526  001332  6FF0               	movwf	displayLineOnLCD@sizeOfArray& (0+255),b
  1527  001334  ECC2  F011         	call	_displayLineOnLCD	;wreg free
  1528                           
  1529                           ;SysRiego.c: 797: for(unsigned char i = 0; i < 9; i++) {
  1530  001338  0E00               	movlw	0
  1531  00133A  0101               	movlb	1	; () banked
  1532  00133C  6F41               	movwf	workingTimer@i& (0+255),b
  1533  00133E                     l5282:
  1534                           
  1535                           ; BSR set to: 1
  1536  00133E  0E08               	movlw	8
  1537  001340  0101               	movlb	1	; () banked
  1538  001342  6541               	cpfsgt	workingTimer@i& (0+255),b
  1539  001344  D001               	goto	l5286
  1540  001346  D092               	goto	l5320
  1541  001348                     l5286:
  1542                           
  1543                           ; BSR set to: 1
  1544                           ;SysRiego.c: 799: zoneTime = zoneTimes[i];
  1545  001348  0101               	movlb	1	; () banked
  1546  00134A  5141               	movf	workingTimer@i& (0+255),w,b
  1547  00134C  0D02               	mullw	2
  1548  00134E  0E60               	movlw	low _zoneTimes
  1549  001350  24F3               	addwf	prodl,w,c
  1550  001352  6ED9               	movwf	fsr2l,c
  1551  001354  0E00               	movlw	high _zoneTimes
  1552  001356  20F4               	addwfc	prodh,w,c
  1553  001358  6EDA               	movwf	fsr2h,c
  1554  00135A  CFDE F142          	movff	postinc2,workingTimer@zoneTime
  1555  00135E  CFDD F143          	movff	postdec2,workingTimer@zoneTime+1
  1556                           
  1557                           ; BSR set to: 1
  1558                           ;SysRiego.c: 801: if (zoneTime[0] != '$') {
  1559  001362  C142  FFD9         	movff	workingTimer@zoneTime,fsr2l
  1560  001366  C143  FFDA         	movff	workingTimer@zoneTime+1,fsr2h
  1561  00136A  0E24               	movlw	36
  1562  00136C  18DE               	xorwf	postinc2,w,c
  1563  00136E  B4D8               	btfsc	status,2,c
  1564  001370  D07A               	goto	l5316
  1565                           
  1566                           ; BSR set to: 1
  1567                           ;SysRiego.c: 803: if (zoneTime[0] == counterHOUR[0]) {
  1568  001372  C142  FFD9         	movff	workingTimer@zoneTime,fsr2l
  1569  001376  C143  FFDA         	movff	workingTimer@zoneTime+1,fsr2h
  1570  00137A  0100               	movlb	0	; () banked
  1571  00137C  51DD               	movf	_counterHOUR& (0+255),w,b
  1572  00137E  18DE               	xorwf	postinc2,w,c
  1573  001380  A4D8               	btfss	status,2,c
  1574  001382  D071               	goto	l5316
  1575                           
  1576                           ; BSR set to: 0
  1577                           ;SysRiego.c: 805: if (zoneTime[1] == counterHOUR[1]) {
  1578  001384  0101               	movlb	1	; () banked
  1579  001386  EE20 F001          	lfsr	2,1
  1580  00138A  5142               	movf	workingTimer@zoneTime& (0+255),w,b
  1581  00138C  26D9               	addwf	fsr2l,f,c
  1582  00138E  5143               	movf	(workingTimer@zoneTime+1)& (0+255),w,b
  1583  001390  22DA               	addwfc	fsr2h,f,c
  1584  001392  0100               	movlb	0	; () banked
  1585  001394  51DE               	movf	(_counterHOUR+1)& (0+255),w,b
  1586  001396  18DE               	xorwf	postinc2,w,c
  1587  001398  A4D8               	btfss	status,2,c
  1588  00139A  D065               	goto	l5316
  1589                           
  1590                           ; BSR set to: 0
  1591                           ;SysRiego.c: 807: if (zoneTime[2] == counterMIN[0]) {
  1592  00139C  0101               	movlb	1	; () banked
  1593  00139E  EE20 F002          	lfsr	2,2
  1594  0013A2  5142               	movf	workingTimer@zoneTime& (0+255),w,b
  1595  0013A4  26D9               	addwf	fsr2l,f,c
  1596  0013A6  5143               	movf	(workingTimer@zoneTime+1)& (0+255),w,b
  1597  0013A8  22DA               	addwfc	fsr2h,f,c
  1598  0013AA  0100               	movlb	0	; () banked
  1599  0013AC  51E0               	movf	_counterMIN& (0+255),w,b
  1600  0013AE  18DE               	xorwf	postinc2,w,c
  1601  0013B0  A4D8               	btfss	status,2,c
  1602  0013B2  D059               	goto	l5316
  1603                           
  1604                           ; BSR set to: 0
  1605                           ;SysRiego.c: 809: if (zoneTime[3] == counterMIN[1]) {
  1606  0013B4  0101               	movlb	1	; () banked
  1607  0013B6  EE20 F003          	lfsr	2,3
  1608  0013BA  5142               	movf	workingTimer@zoneTime& (0+255),w,b
  1609  0013BC  26D9               	addwf	fsr2l,f,c
  1610  0013BE  5143               	movf	(workingTimer@zoneTime+1)& (0+255),w,b
  1611  0013C0  22DA               	addwfc	fsr2h,f,c
  1612  0013C2  0100               	movlb	0	; () banked
  1613  0013C4  51E1               	movf	(_counterMIN+1)& (0+255),w,b
  1614  0013C6  18DE               	xorwf	postinc2,w,c
  1615  0013C8  A4D8               	btfss	status,2,c
  1616  0013CA  D04D               	goto	l5316
  1617                           
  1618                           ; BSR set to: 0
  1619                           ;SysRiego.c: 811: if (i < 3) {
  1620  0013CC  0E03               	movlw	3
  1621  0013CE  0101               	movlb	1	; () banked
  1622  0013D0  6141               	cpfslt	workingTimer@i& (0+255),b
  1623  0013D2  D016               	goto	l5304
  1624                           
  1625                           ; BSR set to: 1
  1626                           ;SysRiego.c: 812: updateEndTime(endTimeZn1, zoneTime, irrigateTimeZn1);
  1627  0013D4  0EA1               	movlw	low _endTimeZn1
  1628  0013D6  0100               	movlb	0	; () banked
  1629  0013D8  6FF2               	movwf	updateEndTime@endTimeZn& (0+255),b
  1630  0013DA  0E00               	movlw	high _endTimeZn1
  1631  0013DC  0100               	movlb	0	; () banked
  1632  0013DE  6FF3               	movwf	(updateEndTime@endTimeZn+1)& (0+255),b
  1633  0013E0  C142  F0F4         	movff	workingTimer@zoneTime,updateEndTime@zoneTime
  1634  0013E4  C143  F0F5         	movff	workingTimer@zoneTime+1,updateEndTime@zoneTime+1
  1635  0013E8  0E2C               	movlw	low _irrigateTimeZn1
  1636  0013EA  0100               	movlb	0	; () banked
  1637  0013EC  6FF6               	movwf	updateEndTime@irrigateTimeZn& (0+255),b
  1638  0013EE  0E00               	movlw	high _irrigateTimeZn1
  1639  0013F0  0100               	movlb	0	; () banked
  1640  0013F2  6FF7               	movwf	(updateEndTime@irrigateTimeZn+1)& (0+255),b
  1641  0013F4  EC13  F008         	call	_updateEndTime	;wreg free
  1642                           
  1643                           ;SysRiego.c: 813: startIrrigation(1);
  1644  0013F8  0E01               	movlw	1
  1645  0013FA  EC18  F014         	call	_startIrrigation
  1646                           
  1647                           ;SysRiego.c: 814: }
  1648  0013FE  D033               	goto	l5316
  1649  001400                     l5304:
  1650                           
  1651                           ;SysRiego.c: 815: else if (i < 6) {
  1652  001400  0E06               	movlw	6
  1653  001402  0101               	movlb	1	; () banked
  1654  001404  6141               	cpfslt	workingTimer@i& (0+255),b
  1655  001406  D016               	goto	l5310
  1656                           
  1657                           ; BSR set to: 1
  1658                           ;SysRiego.c: 816: updateEndTime(endTimeZn2, zoneTime, irrigateTimeZn2);
  1659  001408  0EA6               	movlw	low _endTimeZn2
  1660  00140A  0100               	movlb	0	; () banked
  1661  00140C  6FF2               	movwf	updateEndTime@endTimeZn& (0+255),b
  1662  00140E  0E00               	movlw	high _endTimeZn2
  1663  001410  0100               	movlb	0	; () banked
  1664  001412  6FF3               	movwf	(updateEndTime@endTimeZn+1)& (0+255),b
  1665  001414  C142  F0F4         	movff	workingTimer@zoneTime,updateEndTime@zoneTime
  1666  001418  C143  F0F5         	movff	workingTimer@zoneTime+1,updateEndTime@zoneTime+1
  1667  00141C  0E2F               	movlw	low _irrigateTimeZn2
  1668  00141E  0100               	movlb	0	; () banked
  1669  001420  6FF6               	movwf	updateEndTime@irrigateTimeZn& (0+255),b
  1670  001422  0E00               	movlw	high _irrigateTimeZn2
  1671  001424  0100               	movlb	0	; () banked
  1672  001426  6FF7               	movwf	(updateEndTime@irrigateTimeZn+1)& (0+255),b
  1673  001428  EC13  F008         	call	_updateEndTime	;wreg free
  1674                           
  1675                           ;SysRiego.c: 817: startIrrigation(2);
  1676  00142C  0E02               	movlw	2
  1677  00142E  EC18  F014         	call	_startIrrigation
  1678                           
  1679                           ;SysRiego.c: 818: }
  1680  001432  D019               	goto	l5316
  1681  001434                     l5310:
  1682                           
  1683                           ;SysRiego.c: 819: else if (i < 9) {
  1684  001434  0E09               	movlw	9
  1685  001436  0101               	movlb	1	; () banked
  1686  001438  6141               	cpfslt	workingTimer@i& (0+255),b
  1687  00143A  D015               	goto	l5316
  1688                           
  1689                           ; BSR set to: 1
  1690                           ;SysRiego.c: 820: updateEndTime(endTimeZn3, zoneTime, irrigateTimeZn3);
  1691  00143C  0EAB               	movlw	low _endTimeZn3
  1692  00143E  0100               	movlb	0	; () banked
  1693  001440  6FF2               	movwf	updateEndTime@endTimeZn& (0+255),b
  1694  001442  0E00               	movlw	high _endTimeZn3
  1695  001444  0100               	movlb	0	; () banked
  1696  001446  6FF3               	movwf	(updateEndTime@endTimeZn+1)& (0+255),b
  1697  001448  C142  F0F4         	movff	workingTimer@zoneTime,updateEndTime@zoneTime
  1698  00144C  C143  F0F5         	movff	workingTimer@zoneTime+1,updateEndTime@zoneTime+1
  1699  001450  0E32               	movlw	low _irrigateTimeZn3
  1700  001452  0100               	movlb	0	; () banked
  1701  001454  6FF6               	movwf	updateEndTime@irrigateTimeZn& (0+255),b
  1702  001456  0E00               	movlw	high _irrigateTimeZn3
  1703  001458  0100               	movlb	0	; () banked
  1704  00145A  6FF7               	movwf	(updateEndTime@irrigateTimeZn+1)& (0+255),b
  1705  00145C  EC13  F008         	call	_updateEndTime	;wreg free
  1706                           
  1707                           ;SysRiego.c: 821: startIrrigation(3);
  1708  001460  0E03               	movlw	3
  1709  001462  EC18  F014         	call	_startIrrigation
  1710  001466                     l5316:
  1711  001466  0101               	movlb	1	; () banked
  1712  001468  2B41               	incf	workingTimer@i& (0+255),f,b
  1713  00146A  D769               	goto	l5282
  1714  00146C                     l5320:
  1715                           
  1716                           ; BSR set to: 1
  1717                           ;SysRiego.c: 822: }
  1718                           ;SysRiego.c: 829: }
  1719                           ;SysRiego.c: 831: }
  1720                           ;SysRiego.c: 833: }
  1721                           ;SysRiego.c: 835: }
  1722                           ;SysRiego.c: 837: }
  1723                           ;SysRiego.c: 839: }
  1724                           ;SysRiego.c: 841: for(unsigned char i = 0; i < 3; i++) {
  1725  00146C  0E00               	movlw	0
  1726  00146E  0101               	movlb	1	; () banked
  1727  001470  6F3E               	movwf	workingTimer@i_1225& (0+255),b
  1728  001472                     l5322:
  1729                           
  1730                           ; BSR set to: 1
  1731  001472  0E02               	movlw	2
  1732  001474  0101               	movlb	1	; () banked
  1733  001476  653E               	cpfsgt	workingTimer@i_1225& (0+255),b
  1734  001478  D001               	goto	l5326
  1735  00147A  D061               	goto	l5356
  1736  00147C                     l5326:
  1737                           
  1738                           ; BSR set to: 1
  1739                           ;SysRiego.c: 843: unsigned char *endTimeZn = zoneEndTimes[i];
  1740  00147C  0101               	movlb	1	; () banked
  1741  00147E  513E               	movf	workingTimer@i_1225& (0+255),w,b
  1742  001480  0D02               	mullw	2
  1743  001482  0E78               	movlw	low _zoneEndTimes
  1744  001484  24F3               	addwf	prodl,w,c
  1745  001486  6ED9               	movwf	fsr2l,c
  1746  001488  0E00               	movlw	high _zoneEndTimes
  1747  00148A  20F4               	addwfc	prodh,w,c
  1748  00148C  6EDA               	movwf	fsr2h,c
  1749  00148E  CFDE F13F          	movff	postinc2,workingTimer@endTimeZn
  1750  001492  CFDD F140          	movff	postdec2,workingTimer@endTimeZn+1
  1751                           
  1752                           ; BSR set to: 1
  1753                           ;SysRiego.c: 845: if(endTimeZn[0] != '$') {
  1754  001496  C13F  FFD9         	movff	workingTimer@endTimeZn,fsr2l
  1755  00149A  C140  FFDA         	movff	workingTimer@endTimeZn+1,fsr2h
  1756  00149E  0E24               	movlw	36
  1757  0014A0  18DE               	xorwf	postinc2,w,c
  1758  0014A2  B4D8               	btfsc	status,2,c
  1759  0014A4  D049               	goto	l5352
  1760                           
  1761                           ; BSR set to: 1
  1762                           ;SysRiego.c: 846: if(endTimeZn[0] == counterHOUR[0]) {
  1763  0014A6  C13F  FFD9         	movff	workingTimer@endTimeZn,fsr2l
  1764  0014AA  C140  FFDA         	movff	workingTimer@endTimeZn+1,fsr2h
  1765  0014AE  0100               	movlb	0	; () banked
  1766  0014B0  51DD               	movf	_counterHOUR& (0+255),w,b
  1767  0014B2  18DE               	xorwf	postinc2,w,c
  1768  0014B4  A4D8               	btfss	status,2,c
  1769  0014B6  D040               	goto	l5352
  1770                           
  1771                           ; BSR set to: 0
  1772                           ;SysRiego.c: 847: if(endTimeZn[1] == counterHOUR[1]) {
  1773  0014B8  0101               	movlb	1	; () banked
  1774  0014BA  EE20 F001          	lfsr	2,1
  1775  0014BE  513F               	movf	workingTimer@endTimeZn& (0+255),w,b
  1776  0014C0  26D9               	addwf	fsr2l,f,c
  1777  0014C2  5140               	movf	(workingTimer@endTimeZn+1)& (0+255),w,b
  1778  0014C4  22DA               	addwfc	fsr2h,f,c
  1779  0014C6  0100               	movlb	0	; () banked
  1780  0014C8  51DE               	movf	(_counterHOUR+1)& (0+255),w,b
  1781  0014CA  18DE               	xorwf	postinc2,w,c
  1782  0014CC  A4D8               	btfss	status,2,c
  1783  0014CE  D034               	goto	l5352
  1784                           
  1785                           ; BSR set to: 0
  1786                           ;SysRiego.c: 848: if(endTimeZn[2] == counterMIN[0]) {
  1787  0014D0  0101               	movlb	1	; () banked
  1788  0014D2  EE20 F002          	lfsr	2,2
  1789  0014D6  513F               	movf	workingTimer@endTimeZn& (0+255),w,b
  1790  0014D8  26D9               	addwf	fsr2l,f,c
  1791  0014DA  5140               	movf	(workingTimer@endTimeZn+1)& (0+255),w,b
  1792  0014DC  22DA               	addwfc	fsr2h,f,c
  1793  0014DE  0100               	movlb	0	; () banked
  1794  0014E0  51E0               	movf	_counterMIN& (0+255),w,b
  1795  0014E2  18DE               	xorwf	postinc2,w,c
  1796  0014E4  A4D8               	btfss	status,2,c
  1797  0014E6  D028               	goto	l5352
  1798                           
  1799                           ; BSR set to: 0
  1800                           ;SysRiego.c: 849: if(endTimeZn[3] == counterMIN[1]) {
  1801  0014E8  0101               	movlb	1	; () banked
  1802  0014EA  EE20 F003          	lfsr	2,3
  1803  0014EE  513F               	movf	workingTimer@endTimeZn& (0+255),w,b
  1804  0014F0  26D9               	addwf	fsr2l,f,c
  1805  0014F2  5140               	movf	(workingTimer@endTimeZn+1)& (0+255),w,b
  1806  0014F4  22DA               	addwfc	fsr2h,f,c
  1807  0014F6  0100               	movlb	0	; () banked
  1808  0014F8  51E1               	movf	(_counterMIN+1)& (0+255),w,b
  1809  0014FA  18DE               	xorwf	postinc2,w,c
  1810  0014FC  A4D8               	btfss	status,2,c
  1811  0014FE  D01C               	goto	l5352
  1812                           
  1813                           ; BSR set to: 0
  1814                           ;SysRiego.c: 850: stopIrrigation(i + 1);
  1815  001500  0101               	movlb	1	; () banked
  1816  001502  293E               	incf	workingTimer@i_1225& (0+255),w,b
  1817  001504  EC03  F014         	call	_stopIrrigation
  1818                           
  1819                           ;SysRiego.c: 851: for(unsigned char j = 0; j < 4; j ++)
  1820  001508  0E00               	movlw	0
  1821  00150A  0101               	movlb	1	; () banked
  1822  00150C  6F3D               	movwf	workingTimer@j& (0+255),b
  1823  00150E                     l5342:
  1824                           
  1825                           ; BSR set to: 1
  1826  00150E  0E03               	movlw	3
  1827  001510  0101               	movlb	1	; () banked
  1828  001512  653D               	cpfsgt	workingTimer@j& (0+255),b
  1829  001514  D001               	goto	l5346
  1830  001516  D010               	goto	l5352
  1831  001518                     l5346:
  1832                           
  1833                           ; BSR set to: 1
  1834                           ;SysRiego.c: 852: endTimeZn[j] = '$';
  1835  001518  0101               	movlb	1	; () banked
  1836  00151A  513D               	movf	workingTimer@j& (0+255),w,b
  1837  00151C  0D01               	mullw	1
  1838  00151E  50F3               	movf	prodl,w,c
  1839  001520  0101               	movlb	1	; () banked
  1840  001522  253F               	addwf	workingTimer@endTimeZn& (0+255),w,b
  1841  001524  6ED9               	movwf	fsr2l,c
  1842  001526  50F4               	movf	prodh,w,c
  1843  001528  0101               	movlb	1	; () banked
  1844  00152A  2140               	addwfc	(workingTimer@endTimeZn+1)& (0+255),w,b
  1845  00152C  6EDA               	movwf	fsr2h,c
  1846  00152E  0E24               	movlw	36
  1847  001530  6EDF               	movwf	indf2,c
  1848                           
  1849                           ; BSR set to: 1
  1850  001532  0101               	movlb	1	; () banked
  1851  001534  2B3D               	incf	workingTimer@j& (0+255),f,b
  1852  001536  D7EB               	goto	l5342
  1853  001538                     l5352:
  1854  001538  0101               	movlb	1	; () banked
  1855  00153A  2B3E               	incf	workingTimer@i_1225& (0+255),f,b
  1856  00153C  D79A               	goto	l5322
  1857  00153E                     l5356:
  1858  00153E  0440               	decf	_modeSelected,w,c
  1859  001540  A4D8               	btfss	status,2,c
  1860  001542  D003               	goto	l5360
  1861  001544  5043               	movf	_statusConfiguration,w,c
  1862  001546  B4D8               	btfsc	status,2,c
  1863  001548  D6DE               	goto	l5274
  1864  00154A                     l5360:
  1865                           
  1866                           ;SysRiego.c: 853: }
  1867                           ;SysRiego.c: 854: }
  1868                           ;SysRiego.c: 855: }
  1869                           ;SysRiego.c: 856: }
  1870                           ;SysRiego.c: 857: }
  1871                           ;SysRiego.c: 859: }
  1872                           ;SysRiego.c: 861: }
  1873                           ;SysRiego.c: 864: clearEndTimes();
  1874  00154A  ECD4  F012         	call	_clearEndTimes	;wreg free
  1875                           
  1876                           ;SysRiego.c: 866: stopAllIrrigation();
  1877  00154E  EC3E  F015         	call	_stopAllIrrigation	;wreg free
  1878  001552  0012               	return		;funcret
  1879  001554                     __end_of_workingTimer:
  1880                           	opt stack 0
  1881                           tblptru	equ	0xFF8
  1882                           tblptrh	equ	0xFF7
  1883                           tblptrl	equ	0xFF6
  1884                           tablat	equ	0xFF5
  1885                           prodh	equ	0xFF4
  1886                           prodl	equ	0xFF3
  1887                           intcon	equ	0xFF2
  1888                           intcon2	equ	0xFF1
  1889                           postinc0	equ	0xFEE
  1890                           wreg	equ	0xFE8
  1891                           postdec1	equ	0xFE5
  1892                           fsr1l	equ	0xFE1
  1893                           indf2	equ	0xFDF
  1894                           postinc2	equ	0xFDE
  1895                           postdec2	equ	0xFDD
  1896                           fsr2h	equ	0xFDA
  1897                           fsr2l	equ	0xFD9
  1898                           status	equ	0xFD8
  1899                           
  1900 ;; *************** function _updateEndTime *****************
  1901 ;; Defined at:
  1902 ;;		line 1484 in file "SysRiego.c"
  1903 ;; Parameters:    Size  Location     Type
  1904 ;;  endTimeZn       2    6[BANK0 ] PTR unsigned char 
  1905 ;;		 -> endTimeZn3(5), endTimeZn2(5), endTimeZn1(5), 
  1906 ;;  zoneTime        2    8[BANK0 ] PTR unsigned char 
  1907 ;;		 -> time3Zn3(5), time2Zn3(5), time1Zn3(5), time3Zn2(5), 
  1908 ;;		 -> time2Zn2(5), time1Zn2(5), time3Zn1(5), time2Zn1(5), 
  1909 ;;		 -> time1Zn1(5), 
  1910 ;;  irrigateTime    2   10[BANK0 ] PTR unsigned char 
  1911 ;;		 -> irrigateTimeZn3(3), irrigateTimeZn2(3), irrigateTimeZn1(3), 
  1912 ;; Auto vars:     Size  Location     Type
  1913 ;;		None
  1914 ;; Return value:  Size  Location     Type
  1915 ;;                  1    wreg      void 
  1916 ;; Registers used:
  1917 ;;		wreg, fsr1l, fsr1h, fsr2l, fsr2h, status,2, status,0, cstack
  1918 ;; Tracked objects:
  1919 ;;		On entry : 0/0
  1920 ;;		On exit  : 0/0
  1921 ;;		Unchanged: 0/0
  1922 ;; Data sizes:     COMRAM   BANK0   BANK1   BANK2   BANK3   BANK4   BANK5   BANK6   BANK7   BANK8   BANK9  BANK10  BANK1
      +1  BANK12
  1923 ;;      Params:         0       6       0       0       0       0       0       0       0       0       0       0       
      +0       0
  1924 ;;      Locals:         0       0       0       0       0       0       0       0       0       0       0       0       
      +0       0
  1925 ;;      Temps:          0       1       0       0       0       0       0       0       0       0       0       0       
      +0       0
  1926 ;;      Totals:         0       7       0       0       0       0       0       0       0       0       0       0       
      +0       0
  1927 ;;Total ram usage:        7 bytes
  1928 ;; Hardware stack levels used:    1
  1929 ;; Hardware stack levels required when called:    8
  1930 ;; This function calls:
  1931 ;;		___awmod
  1932 ;; This function is called by:
  1933 ;;		_workingTimer
  1934 ;; This function uses a non-reentrant model
  1935 ;;
  1936                           
  1937                           	psect	text2
  1938  001026                     __ptext2:
  1939                           	opt stack 0
  1940  001026                     _updateEndTime:
  1941                           	opt stack 21
  1942                           
  1943                           ;SysRiego.c: 1486: endTimeZn[0] = zoneTime[0];
  1944                           
  1945                           ;incstack = 0
  1946  001026  C0F4  FFD9         	movff	updateEndTime@zoneTime,fsr2l
  1947  00102A  C0F5  FFDA         	movff	updateEndTime@zoneTime+1,fsr2h
  1948  00102E  C0F2  FFE1         	movff	updateEndTime@endTimeZn,fsr1l
  1949  001032  C0F3  FFE2         	movff	updateEndTime@endTimeZn+1,fsr1h
  1950  001036  CFDF FFE7          	movff	indf2,indf1
  1951                           
  1952                           ;SysRiego.c: 1487: endTimeZn[1] = zoneTime[1];
  1953  00103A  0100               	movlb	0	; () banked
  1954  00103C  EE20 F001          	lfsr	2,1
  1955  001040  51F4               	movf	updateEndTime@zoneTime& (0+255),w,b
  1956  001042  26D9               	addwf	fsr2l,f,c
  1957  001044  51F5               	movf	(updateEndTime@zoneTime+1)& (0+255),w,b
  1958  001046  22DA               	addwfc	fsr2h,f,c
  1959  001048  0100               	movlb	0	; () banked
  1960  00104A  EE10 F001          	lfsr	1,1
  1961  00104E  51F2               	movf	updateEndTime@endTimeZn& (0+255),w,b
  1962  001050  26E1               	addwf	fsr1l,f,c
  1963  001052  51F3               	movf	(updateEndTime@endTimeZn+1)& (0+255),w,b
  1964  001054  22E2               	addwfc	fsr1h,f,c
  1965  001056  CFDF FFE7          	movff	indf2,indf1
  1966                           
  1967                           ; BSR set to: 0
  1968                           ;SysRiego.c: 1488: endTimeZn[2] = zoneTime[2];
  1969  00105A  0100               	movlb	0	; () banked
  1970  00105C  EE20 F002          	lfsr	2,2
  1971  001060  51F4               	movf	updateEndTime@zoneTime& (0+255),w,b
  1972  001062  26D9               	addwf	fsr2l,f,c
  1973  001064  51F5               	movf	(updateEndTime@zoneTime+1)& (0+255),w,b
  1974  001066  22DA               	addwfc	fsr2h,f,c
  1975  001068  0100               	movlb	0	; () banked
  1976  00106A  EE10 F002          	lfsr	1,2
  1977  00106E  51F2               	movf	updateEndTime@endTimeZn& (0+255),w,b
  1978  001070  26E1               	addwf	fsr1l,f,c
  1979  001072  51F3               	movf	(updateEndTime@endTimeZn+1)& (0+255),w,b
  1980  001074  22E2               	addwfc	fsr1h,f,c
  1981  001076  CFDF FFE7          	movff	indf2,indf1
  1982                           
  1983                           ; BSR set to: 0
  1984                           ;SysRiego.c: 1489: endTimeZn[3] = zoneTime[3];
  1985  00107A  0100               	movlb	0	; () banked
  1986  00107C  EE20 F003          	lfsr	2,3
  1987  001080  51F4               	movf	updateEndTime@zoneTime& (0+255),w,b
  1988  001082  26D9               	addwf	fsr2l,f,c
  1989  001084  51F5               	movf	(updateEndTime@zoneTime+1)& (0+255),w,b
  1990  001086  22DA               	addwfc	fsr2h,f,c
  1991  001088  0100               	movlb	0	; () banked
  1992  00108A  EE10 F003          	lfsr	1,3
  1993  00108E  51F2               	movf	updateEndTime@endTimeZn& (0+255),w,b
  1994  001090  26E1               	addwf	fsr1l,f,c
  1995  001092  51F3               	movf	(updateEndTime@endTimeZn+1)& (0+255),w,b
  1996  001094  22E2               	addwfc	fsr1h,f,c
  1997  001096  CFDF FFE7          	movff	indf2,indf1
  1998                           
  1999                           ; BSR set to: 0
  2000                           ;SysRiego.c: 1491: endTimeZn[3] = endTimeZn[3] + (irrigateTimeZn[1] - 48);
  2001  00109A  0100               	movlb	0	; () banked
  2002  00109C  EE20 F003          	lfsr	2,3
  2003  0010A0  51F2               	movf	updateEndTime@endTimeZn& (0+255),w,b
  2004  0010A2  26D9               	addwf	fsr2l,f,c
  2005  0010A4  51F3               	movf	(updateEndTime@endTimeZn+1)& (0+255),w,b
  2006  0010A6  22DA               	addwfc	fsr2h,f,c
  2007  0010A8  0100               	movlb	0	; () banked
  2008  0010AA  EE10 F003          	lfsr	1,3
  2009  0010AE  51F2               	movf	updateEndTime@endTimeZn& (0+255),w,b
  2010  0010B0  26E1               	addwf	fsr1l,f,c
  2011  0010B2  51F3               	movf	(updateEndTime@endTimeZn+1)& (0+255),w,b
  2012  0010B4  22E2               	addwfc	fsr1h,f,c
  2013  0010B6  50E7               	movf	indf1,w,c
  2014  0010B8  0100               	movlb	0	; () banked
  2015  0010BA  6FF8               	movwf	??_updateEndTime& (0+255),b
  2016  0010BC  0100               	movlb	0	; () banked
  2017  0010BE  EE10 F001          	lfsr	1,1
  2018  0010C2  51F6               	movf	updateEndTime@irrigateTimeZn& (0+255),w,b
  2019  0010C4  26E1               	addwf	fsr1l,f,c
  2020  0010C6  51F7               	movf	(updateEndTime@irrigateTimeZn+1)& (0+255),w,b
  2021  0010C8  22E2               	addwfc	fsr1h,f,c
  2022  0010CA  50E7               	movf	indf1,w,c
  2023  0010CC  0100               	movlb	0	; () banked
  2024  0010CE  25F8               	addwf	??_updateEndTime& (0+255),w,b
  2025  0010D0  0FD0               	addlw	208
  2026  0010D2  6EDF               	movwf	indf2,c
  2027                           
  2028                           ; BSR set to: 0
  2029                           ;SysRiego.c: 1493: if(endTimeZn[3] > 57) {
  2030  0010D4  0100               	movlb	0	; () banked
  2031  0010D6  EE20 F003          	lfsr	2,3
  2032  0010DA  51F2               	movf	updateEndTime@endTimeZn& (0+255),w,b
  2033  0010DC  26D9               	addwf	fsr2l,f,c
  2034  0010DE  51F3               	movf	(updateEndTime@endTimeZn+1)& (0+255),w,b
  2035  0010E0  22DA               	addwfc	fsr2h,f,c
  2036  0010E2  0E39               	movlw	57
  2037  0010E4  64DF               	cpfsgt	indf2,c
  2038  0010E6  D029               	goto	l5106
  2039                           
  2040                           ; BSR set to: 0
  2041                           ;SysRiego.c: 1494: endTimeZn[3] = endTimeZn[3]%58 + 48;
  2042  0010E8  0100               	movlb	0	; () banked
  2043  0010EA  EE20 F003          	lfsr	2,3
  2044  0010EE  51F2               	movf	updateEndTime@endTimeZn& (0+255),w,b
  2045  0010F0  26D9               	addwf	fsr2l,f,c
  2046  0010F2  51F3               	movf	(updateEndTime@endTimeZn+1)& (0+255),w,b
  2047  0010F4  22DA               	addwfc	fsr2h,f,c
  2048  0010F6  0100               	movlb	0	; () banked
  2049  0010F8  EE10 F003          	lfsr	1,3
  2050  0010FC  51F2               	movf	updateEndTime@endTimeZn& (0+255),w,b
  2051  0010FE  26E1               	addwf	fsr1l,f,c
  2052  001100  51F3               	movf	(updateEndTime@endTimeZn+1)& (0+255),w,b
  2053  001102  22E2               	addwfc	fsr1h,f,c
  2054  001104  50E7               	movf	indf1,w,c
  2055  001106  0100               	movlb	0	; () banked
  2056  001108  6FF8               	movwf	??_updateEndTime& (0+255),b
  2057  00110A  0100               	movlb	0	; () banked
  2058  00110C  51F8               	movf	??_updateEndTime& (0+255),w,b
  2059  00110E  0100               	movlb	0	; () banked
  2060  001110  6FEC               	movwf	___awmod@dividend& (0+255),b
  2061  001112  6BED               	clrf	(___awmod@dividend+1)& (0+255),b
  2062  001114  0E00               	movlw	0
  2063  001116  0100               	movlb	0	; () banked
  2064  001118  6FEF               	movwf	(___awmod@divisor+1)& (0+255),b
  2065  00111A  0E3A               	movlw	58
  2066  00111C  6FEE               	movwf	___awmod@divisor& (0+255),b
  2067  00111E  EC71  F011         	call	___awmod	;wreg free
  2068  001122  0100               	movlb	0	; () banked
  2069  001124  51EC               	movf	?___awmod& (0+255),w,b
  2070  001126  0F30               	addlw	48
  2071  001128  6EDF               	movwf	indf2,c
  2072                           
  2073                           ; BSR set to: 0
  2074                           ;SysRiego.c: 1495: endTimeZn[2]++;
  2075  00112A  0100               	movlb	0	; () banked
  2076  00112C  EE20 F002          	lfsr	2,2
  2077  001130  51F2               	movf	updateEndTime@endTimeZn& (0+255),w,b
  2078  001132  26D9               	addwf	fsr2l,f,c
  2079  001134  51F3               	movf	(updateEndTime@endTimeZn+1)& (0+255),w,b
  2080  001136  22DA               	addwfc	fsr2h,f,c
  2081  001138  2ADF               	incf	indf2,f,c
  2082  00113A                     l5106:
  2083                           
  2084                           ; BSR set to: 0
  2085                           ;SysRiego.c: 1496: }
  2086                           ;SysRiego.c: 1498: endTimeZn[2] = endTimeZn[2] + (irrigateTimeZn[0] - 48);
  2087  00113A  0100               	movlb	0	; () banked
  2088  00113C  EE20 F002          	lfsr	2,2
  2089  001140  51F2               	movf	updateEndTime@endTimeZn& (0+255),w,b
  2090  001142  26D9               	addwf	fsr2l,f,c
  2091  001144  51F3               	movf	(updateEndTime@endTimeZn+1)& (0+255),w,b
  2092  001146  22DA               	addwfc	fsr2h,f,c
  2093  001148  0100               	movlb	0	; () banked
  2094  00114A  EE10 F002          	lfsr	1,2
  2095  00114E  51F2               	movf	updateEndTime@endTimeZn& (0+255),w,b
  2096  001150  26E1               	addwf	fsr1l,f,c
  2097  001152  51F3               	movf	(updateEndTime@endTimeZn+1)& (0+255),w,b
  2098  001154  22E2               	addwfc	fsr1h,f,c
  2099  001156  50E7               	movf	indf1,w,c
  2100  001158  0100               	movlb	0	; () banked
  2101  00115A  6FF8               	movwf	??_updateEndTime& (0+255),b
  2102  00115C  C0F6  FFE1         	movff	updateEndTime@irrigateTimeZn,fsr1l
  2103  001160  C0F7  FFE2         	movff	updateEndTime@irrigateTimeZn+1,fsr1h
  2104  001164  50E7               	movf	indf1,w,c
  2105  001166  0100               	movlb	0	; () banked
  2106  001168  25F8               	addwf	??_updateEndTime& (0+255),w,b
  2107  00116A  0FD0               	addlw	208
  2108  00116C  6EDF               	movwf	indf2,c
  2109                           
  2110                           ; BSR set to: 0
  2111                           ;SysRiego.c: 1500: if(endTimeZn[2] > 53) {
  2112  00116E  0100               	movlb	0	; () banked
  2113  001170  EE20 F002          	lfsr	2,2
  2114  001174  51F2               	movf	updateEndTime@endTimeZn& (0+255),w,b
  2115  001176  26D9               	addwf	fsr2l,f,c
  2116  001178  51F3               	movf	(updateEndTime@endTimeZn+1)& (0+255),w,b
  2117  00117A  22DA               	addwfc	fsr2h,f,c
  2118  00117C  0E35               	movlw	53
  2119  00117E  64DF               	cpfsgt	indf2,c
  2120  001180  D029               	goto	l5114
  2121                           
  2122                           ; BSR set to: 0
  2123                           ;SysRiego.c: 1501: endTimeZn[2] = endTimeZn[2]%54 + 48;
  2124  001182  0100               	movlb	0	; () banked
  2125  001184  EE20 F002          	lfsr	2,2
  2126  001188  51F2               	movf	updateEndTime@endTimeZn& (0+255),w,b
  2127  00118A  26D9               	addwf	fsr2l,f,c
  2128  00118C  51F3               	movf	(updateEndTime@endTimeZn+1)& (0+255),w,b
  2129  00118E  22DA               	addwfc	fsr2h,f,c
  2130  001190  0100               	movlb	0	; () banked
  2131  001192  EE10 F002          	lfsr	1,2
  2132  001196  51F2               	movf	updateEndTime@endTimeZn& (0+255),w,b
  2133  001198  26E1               	addwf	fsr1l,f,c
  2134  00119A  51F3               	movf	(updateEndTime@endTimeZn+1)& (0+255),w,b
  2135  00119C  22E2               	addwfc	fsr1h,f,c
  2136  00119E  50E7               	movf	indf1,w,c
  2137  0011A0  0100               	movlb	0	; () banked
  2138  0011A2  6FF8               	movwf	??_updateEndTime& (0+255),b
  2139  0011A4  0100               	movlb	0	; () banked
  2140  0011A6  51F8               	movf	??_updateEndTime& (0+255),w,b
  2141  0011A8  0100               	movlb	0	; () banked
  2142  0011AA  6FEC               	movwf	___awmod@dividend& (0+255),b
  2143  0011AC  6BED               	clrf	(___awmod@dividend+1)& (0+255),b
  2144  0011AE  0E00               	movlw	0
  2145  0011B0  0100               	movlb	0	; () banked
  2146  0011B2  6FEF               	movwf	(___awmod@divisor+1)& (0+255),b
  2147  0011B4  0E36               	movlw	54
  2148  0011B6  6FEE               	movwf	___awmod@divisor& (0+255),b
  2149  0011B8  EC71  F011         	call	___awmod	;wreg free
  2150  0011BC  0100               	movlb	0	; () banked
  2151  0011BE  51EC               	movf	?___awmod& (0+255),w,b
  2152  0011C0  0F30               	addlw	48
  2153  0011C2  6EDF               	movwf	indf2,c
  2154                           
  2155                           ; BSR set to: 0
  2156                           ;SysRiego.c: 1502: endTimeZn[1]++;
  2157  0011C4  0100               	movlb	0	; () banked
  2158  0011C6  EE20 F001          	lfsr	2,1
  2159  0011CA  51F2               	movf	updateEndTime@endTimeZn& (0+255),w,b
  2160  0011CC  26D9               	addwf	fsr2l,f,c
  2161  0011CE  51F3               	movf	(updateEndTime@endTimeZn+1)& (0+255),w,b
  2162  0011D0  22DA               	addwfc	fsr2h,f,c
  2163  0011D2  2ADF               	incf	indf2,f,c
  2164  0011D4                     l5114:
  2165                           
  2166                           ; BSR set to: 0
  2167                           ;SysRiego.c: 1503: }
  2168                           ;SysRiego.c: 1505: if(endTimeZn[0] < '2') {
  2169  0011D4  C0F2  FFD9         	movff	updateEndTime@endTimeZn,fsr2l
  2170  0011D8  C0F3  FFDA         	movff	updateEndTime@endTimeZn+1,fsr2h
  2171  0011DC  0E32               	movlw	50
  2172  0011DE  60DF               	cpfslt	indf2,c
  2173  0011E0  D031               	goto	l5122
  2174                           
  2175                           ; BSR set to: 0
  2176                           ;SysRiego.c: 1507: if(endTimeZn[1] > 57) {
  2177  0011E2  0100               	movlb	0	; () banked
  2178  0011E4  EE20 F001          	lfsr	2,1
  2179  0011E8  51F2               	movf	updateEndTime@endTimeZn& (0+255),w,b
  2180  0011EA  26D9               	addwf	fsr2l,f,c
  2181  0011EC  51F3               	movf	(updateEndTime@endTimeZn+1)& (0+255),w,b
  2182  0011EE  22DA               	addwfc	fsr2h,f,c
  2183  0011F0  0E39               	movlw	57
  2184  0011F2  64DF               	cpfsgt	indf2,c
  2185  0011F4  0012               	return	
  2186                           
  2187                           ; BSR set to: 0
  2188                           ;SysRiego.c: 1508: endTimeZn[1] = endTimeZn[1]%58 + 48;
  2189  0011F6  0100               	movlb	0	; () banked
  2190  0011F8  EE20 F001          	lfsr	2,1
  2191  0011FC  51F2               	movf	updateEndTime@endTimeZn& (0+255),w,b
  2192  0011FE  26D9               	addwf	fsr2l,f,c
  2193  001200  51F3               	movf	(updateEndTime@endTimeZn+1)& (0+255),w,b
  2194  001202  22DA               	addwfc	fsr2h,f,c
  2195  001204  0100               	movlb	0	; () banked
  2196  001206  EE10 F001          	lfsr	1,1
  2197  00120A  51F2               	movf	updateEndTime@endTimeZn& (0+255),w,b
  2198  00120C  26E1               	addwf	fsr1l,f,c
  2199  00120E  51F3               	movf	(updateEndTime@endTimeZn+1)& (0+255),w,b
  2200  001210  22E2               	addwfc	fsr1h,f,c
  2201  001212  50E7               	movf	indf1,w,c
  2202  001214  0100               	movlb	0	; () banked
  2203  001216  6FF8               	movwf	??_updateEndTime& (0+255),b
  2204  001218  0100               	movlb	0	; () banked
  2205  00121A  51F8               	movf	??_updateEndTime& (0+255),w,b
  2206  00121C  0100               	movlb	0	; () banked
  2207  00121E  6FEC               	movwf	___awmod@dividend& (0+255),b
  2208  001220  6BED               	clrf	(___awmod@dividend+1)& (0+255),b
  2209  001222  0E00               	movlw	0
  2210  001224  0100               	movlb	0	; () banked
  2211  001226  6FEF               	movwf	(___awmod@divisor+1)& (0+255),b
  2212  001228  0E3A               	movlw	58
  2213  00122A  6FEE               	movwf	___awmod@divisor& (0+255),b
  2214  00122C  EC71  F011         	call	___awmod	;wreg free
  2215  001230  0100               	movlb	0	; () banked
  2216  001232  51EC               	movf	?___awmod& (0+255),w,b
  2217  001234  0F30               	addlw	48
  2218  001236  6EDF               	movwf	indf2,c
  2219                           
  2220                           ; BSR set to: 0
  2221                           ;SysRiego.c: 1509: endTimeZn[0]++;
  2222  001238  C0F2  FFD9         	movff	updateEndTime@endTimeZn,fsr2l
  2223  00123C  C0F3  FFDA         	movff	updateEndTime@endTimeZn+1,fsr2h
  2224  001240  2ADF               	incf	indf2,f,c
  2225                           
  2226                           ; BSR set to: 0
  2227                           ;SysRiego.c: 1510: }
  2228                           ;SysRiego.c: 1512: }
  2229  001242  0012               	return	
  2230  001244                     l5122:
  2231                           
  2232                           ; BSR set to: 0
  2233                           ;SysRiego.c: 1514: else {
  2234                           ;SysRiego.c: 1516: if(endTimeZn[1] > 51) {
  2235  001244  0100               	movlb	0	; () banked
  2236  001246  EE20 F001          	lfsr	2,1
  2237  00124A  51F2               	movf	updateEndTime@endTimeZn& (0+255),w,b
  2238  00124C  26D9               	addwf	fsr2l,f,c
  2239  00124E  51F3               	movf	(updateEndTime@endTimeZn+1)& (0+255),w,b
  2240  001250  22DA               	addwfc	fsr2h,f,c
  2241  001252  0E33               	movlw	51
  2242  001254  64DF               	cpfsgt	indf2,c
  2243  001256  D026               	goto	l5128
  2244                           
  2245                           ; BSR set to: 0
  2246                           ;SysRiego.c: 1517: endTimeZn[1] = endTimeZn[1]%52 + 48;
  2247  001258  0100               	movlb	0	; () banked
  2248  00125A  EE20 F001          	lfsr	2,1
  2249  00125E  51F2               	movf	updateEndTime@endTimeZn& (0+255),w,b
  2250  001260  26D9               	addwf	fsr2l,f,c
  2251  001262  51F3               	movf	(updateEndTime@endTimeZn+1)& (0+255),w,b
  2252  001264  22DA               	addwfc	fsr2h,f,c
  2253  001266  0100               	movlb	0	; () banked
  2254  001268  EE10 F001          	lfsr	1,1
  2255  00126C  51F2               	movf	updateEndTime@endTimeZn& (0+255),w,b
  2256  00126E  26E1               	addwf	fsr1l,f,c
  2257  001270  51F3               	movf	(updateEndTime@endTimeZn+1)& (0+255),w,b
  2258  001272  22E2               	addwfc	fsr1h,f,c
  2259  001274  50E7               	movf	indf1,w,c
  2260  001276  0100               	movlb	0	; () banked
  2261  001278  6FF8               	movwf	??_updateEndTime& (0+255),b
  2262  00127A  0100               	movlb	0	; () banked
  2263  00127C  51F8               	movf	??_updateEndTime& (0+255),w,b
  2264  00127E  0100               	movlb	0	; () banked
  2265  001280  6FEC               	movwf	___awmod@dividend& (0+255),b
  2266  001282  6BED               	clrf	(___awmod@dividend+1)& (0+255),b
  2267  001284  0E00               	movlw	0
  2268  001286  0100               	movlb	0	; () banked
  2269  001288  6FEF               	movwf	(___awmod@divisor+1)& (0+255),b
  2270  00128A  0E34               	movlw	52
  2271  00128C  6FEE               	movwf	___awmod@divisor& (0+255),b
  2272  00128E  EC71  F011         	call	___awmod	;wreg free
  2273  001292  0100               	movlb	0	; () banked
  2274  001294  51EC               	movf	?___awmod& (0+255),w,b
  2275  001296  0F30               	addlw	48
  2276  001298  6EDF               	movwf	indf2,c
  2277                           
  2278                           ; BSR set to: 0
  2279                           ;SysRiego.c: 1518: endTimeZn[0]++;
  2280  00129A  C0F2  FFD9         	movff	updateEndTime@endTimeZn,fsr2l
  2281  00129E  C0F3  FFDA         	movff	updateEndTime@endTimeZn+1,fsr2h
  2282  0012A2  2ADF               	incf	indf2,f,c
  2283  0012A4                     l5128:
  2284                           
  2285                           ; BSR set to: 0
  2286                           ;SysRiego.c: 1519: }
  2287                           ;SysRiego.c: 1521: if (endTimeZn[0] > 50) {
  2288  0012A4  C0F2  FFD9         	movff	updateEndTime@endTimeZn,fsr2l
  2289  0012A8  C0F3  FFDA         	movff	updateEndTime@endTimeZn+1,fsr2h
  2290  0012AC  0E32               	movlw	50
  2291  0012AE  64DF               	cpfsgt	indf2,c
  2292  0012B0  0012               	return	
  2293                           
  2294                           ; BSR set to: 0
  2295                           ;SysRiego.c: 1522: endTimeZn[0] = endTimeZn[0]%51 + 48;
  2296  0012B2  C0F2  FFD9         	movff	updateEndTime@endTimeZn,fsr2l
  2297  0012B6  C0F3  FFDA         	movff	updateEndTime@endTimeZn+1,fsr2h
  2298  0012BA  50DF               	movf	indf2,w,c
  2299  0012BC  0100               	movlb	0	; () banked
  2300  0012BE  6FF8               	movwf	??_updateEndTime& (0+255),b
  2301  0012C0  0100               	movlb	0	; () banked
  2302  0012C2  51F8               	movf	??_updateEndTime& (0+255),w,b
  2303  0012C4  0100               	movlb	0	; () banked
  2304  0012C6  6FEC               	movwf	___awmod@dividend& (0+255),b
  2305  0012C8  6BED               	clrf	(___awmod@dividend+1)& (0+255),b
  2306  0012CA  0E00               	movlw	0
  2307  0012CC  0100               	movlb	0	; () banked
  2308  0012CE  6FEF               	movwf	(___awmod@divisor+1)& (0+255),b
  2309  0012D0  0E33               	movlw	51
  2310  0012D2  6FEE               	movwf	___awmod@divisor& (0+255),b
  2311  0012D4  EC71  F011         	call	___awmod	;wreg free
  2312  0012D8  0100               	movlb	0	; () banked
  2313  0012DA  51EC               	movf	?___awmod& (0+255),w,b
  2314  0012DC  0F30               	addlw	48
  2315  0012DE  C0F2  FFD9         	movff	updateEndTime@endTimeZn,fsr2l
  2316  0012E2  C0F3  FFDA         	movff	updateEndTime@endTimeZn+1,fsr2h
  2317  0012E6  6EDF               	movwf	indf2,c
  2318                           
  2319                           ; BSR set to: 0
  2320  0012E8  0012               	return	
  2321  0012EA                     __end_of_updateEndTime:
  2322                           	opt stack 0
  2323                           tblptru	equ	0xFF8
  2324                           tblptrh	equ	0xFF7
  2325                           tblptrl	equ	0xFF6
  2326                           tablat	equ	0xFF5
  2327                           prodh	equ	0xFF4
  2328                           prodl	equ	0xFF3
  2329                           intcon	equ	0xFF2
  2330                           intcon2	equ	0xFF1
  2331                           postinc0	equ	0xFEE
  2332                           wreg	equ	0xFE8
  2333                           indf1	equ	0xFE7
  2334                           postdec1	equ	0xFE5
  2335                           fsr1h	equ	0xFE2
  2336                           fsr1l	equ	0xFE1
  2337                           indf2	equ	0xFDF
  2338                           postinc2	equ	0xFDE
  2339                           postdec2	equ	0xFDD
  2340                           fsr2h	equ	0xFDA
  2341                           fsr2l	equ	0xFD9
  2342                           status	equ	0xFD8
  2343                           
  2344 ;; *************** function _clearEndTimes *****************
  2345 ;; Defined at:
  2346 ;;		line 1676 in file "SysRiego.c"
  2347 ;; Parameters:    Size  Location     Type
  2348 ;;		None
  2349 ;; Auto vars:     Size  Location     Type
  2350 ;;  j               1    3[BANK0 ] unsigned char 
  2351 ;;  zoneEndTime     2    0[BANK0 ] PTR unsigned char 
  2352 ;;		 -> endTimeZn3(5), endTimeZn2(5), endTimeZn1(5), 
  2353 ;;  i               1    2[BANK0 ] unsigned char 
  2354 ;; Return value:  Size  Location     Type
  2355 ;;                  1    wreg      void 
  2356 ;; Registers used:
  2357 ;;		wreg, fsr2l, fsr2h, status,2, status,0, prodl, prodh
  2358 ;; Tracked objects:
  2359 ;;		On entry : 0/0
  2360 ;;		On exit  : 0/0
  2361 ;;		Unchanged: 0/0
  2362 ;; Data sizes:     COMRAM   BANK0   BANK1   BANK2   BANK3   BANK4   BANK5   BANK6   BANK7   BANK8   BANK9  BANK10  BANK1
      +1  BANK12
  2363 ;;      Params:         0       0       0       0       0       0       0       0       0       0       0       0       
      +0       0
  2364 ;;      Locals:         0       4       0       0       0       0       0       0       0       0       0       0       
      +0       0
  2365 ;;      Temps:          0       0       0       0       0       0       0       0       0       0       0       0       
      +0       0
  2366 ;;      Totals:         0       4       0       0       0       0       0       0       0       0       0       0       
      +0       0
  2367 ;;Total ram usage:        4 bytes
  2368 ;; Hardware stack levels used:    1
  2369 ;; Hardware stack levels required when called:    7
  2370 ;; This function calls:
  2371 ;;		Nothing
  2372 ;; This function is called by:
  2373 ;;		_workingTimer
  2374 ;; This function uses a non-reentrant model
  2375 ;;
  2376                           
  2377                           	psect	text3
  2378  0025A8                     __ptext3:
  2379                           	opt stack 0
  2380  0025A8                     _clearEndTimes:
  2381                           	opt stack 22
  2382                           
  2383                           ;SysRiego.c: 1678: for(unsigned char i = 0; i < 3; i++) {
  2384                           
  2385                           ; BSR set to: 0
  2386                           ;incstack = 0
  2387  0025A8  0E00               	movlw	0
  2388  0025AA  0100               	movlb	0	; () banked
  2389  0025AC  6FEE               	movwf	clearEndTimes@i& (0+255),b
  2390  0025AE                     l5134:
  2391                           
  2392                           ; BSR set to: 0
  2393  0025AE  0E02               	movlw	2
  2394  0025B0  0100               	movlb	0	; () banked
  2395  0025B2  65EE               	cpfsgt	clearEndTimes@i& (0+255),b
  2396  0025B4  D001               	goto	l5138
  2397  0025B6  0012               	return	
  2398  0025B8                     l5138:
  2399                           
  2400                           ; BSR set to: 0
  2401                           ;SysRiego.c: 1680: unsigned char *zoneEndTime = zoneEndTimes[i];
  2402  0025B8  0100               	movlb	0	; () banked
  2403  0025BA  51EE               	movf	clearEndTimes@i& (0+255),w,b
  2404  0025BC  0D02               	mullw	2
  2405  0025BE  0E78               	movlw	low _zoneEndTimes
  2406  0025C0  24F3               	addwf	prodl,w,c
  2407  0025C2  6ED9               	movwf	fsr2l,c
  2408  0025C4  0E00               	movlw	high _zoneEndTimes
  2409  0025C6  20F4               	addwfc	prodh,w,c
  2410  0025C8  6EDA               	movwf	fsr2h,c
  2411  0025CA  CFDE F0EC          	movff	postinc2,clearEndTimes@zoneEndTime
  2412  0025CE  CFDD F0ED          	movff	postdec2,clearEndTimes@zoneEndTime+1
  2413                           
  2414                           ; BSR set to: 0
  2415                           ;SysRiego.c: 1682: for(unsigned char j = 0; j < 4; j++) {
  2416  0025D2  0E00               	movlw	0
  2417  0025D4  0100               	movlb	0	; () banked
  2418  0025D6  6FEF               	movwf	clearEndTimes@j& (0+255),b
  2419  0025D8                     l5142:
  2420                           
  2421                           ; BSR set to: 0
  2422  0025D8  0E03               	movlw	3
  2423  0025DA  0100               	movlb	0	; () banked
  2424  0025DC  65EF               	cpfsgt	clearEndTimes@j& (0+255),b
  2425  0025DE  D001               	goto	l5146
  2426  0025E0  D010               	goto	l5152
  2427  0025E2                     l5146:
  2428                           
  2429                           ; BSR set to: 0
  2430                           ;SysRiego.c: 1683: zoneEndTime[j] = '$';
  2431  0025E2  0100               	movlb	0	; () banked
  2432  0025E4  51EF               	movf	clearEndTimes@j& (0+255),w,b
  2433  0025E6  0D01               	mullw	1
  2434  0025E8  50F3               	movf	prodl,w,c
  2435  0025EA  0100               	movlb	0	; () banked
  2436  0025EC  25EC               	addwf	clearEndTimes@zoneEndTime& (0+255),w,b
  2437  0025EE  6ED9               	movwf	fsr2l,c
  2438  0025F0  50F4               	movf	prodh,w,c
  2439  0025F2  0100               	movlb	0	; () banked
  2440  0025F4  21ED               	addwfc	(clearEndTimes@zoneEndTime+1)& (0+255),w,b
  2441  0025F6  6EDA               	movwf	fsr2h,c
  2442  0025F8  0E24               	movlw	36
  2443  0025FA  6EDF               	movwf	indf2,c
  2444                           
  2445                           ; BSR set to: 0
  2446  0025FC  0100               	movlb	0	; () banked
  2447  0025FE  2BEF               	incf	clearEndTimes@j& (0+255),f,b
  2448  002600  D7EB               	goto	l5142
  2449  002602                     l5152:
  2450                           
  2451                           ; BSR set to: 0
  2452  002602  0100               	movlb	0	; () banked
  2453  002604  2BEE               	incf	clearEndTimes@i& (0+255),f,b
  2454  002606  D7D3               	goto	l5134
  2455  002608                     __end_of_clearEndTimes:
  2456                           	opt stack 0
  2457                           tblptru	equ	0xFF8
  2458                           tblptrh	equ	0xFF7
  2459                           tblptrl	equ	0xFF6
  2460                           tablat	equ	0xFF5
  2461                           prodh	equ	0xFF4
  2462                           prodl	equ	0xFF3
  2463                           intcon	equ	0xFF2
  2464                           intcon2	equ	0xFF1
  2465                           postinc0	equ	0xFEE
  2466                           wreg	equ	0xFE8
  2467                           indf1	equ	0xFE7
  2468                           postdec1	equ	0xFE5
  2469                           fsr1h	equ	0xFE2
  2470                           fsr1l	equ	0xFE1
  2471                           indf2	equ	0xFDF
  2472                           postinc2	equ	0xFDE
  2473                           postdec2	equ	0xFDD
  2474                           fsr2h	equ	0xFDA
  2475                           fsr2l	equ	0xFD9
  2476                           status	equ	0xFD8
  2477                           
  2478 ;; *************** function _workingManual *****************
  2479 ;; Defined at:
  2480 ;;		line 870 in file "SysRiego.c"
  2481 ;; Parameters:    Size  Location     Type
  2482 ;;		None
  2483 ;; Auto vars:     Size  Location     Type
  2484 ;;		None
  2485 ;; Return value:  Size  Location     Type
  2486 ;;                  1    wreg      void 
  2487 ;; Registers used:
  2488 ;;		wreg, fsr0l, fsr0h, status,2, status,0, tblptrl, tblptrh, tblptru, prodl, prodh, cstack
  2489 ;; Tracked objects:
  2490 ;;		On entry : 0/0
  2491 ;;		On exit  : 0/0
  2492 ;;		Unchanged: 0/0
  2493 ;; Data sizes:     COMRAM   BANK0   BANK1   BANK2   BANK3   BANK4   BANK5   BANK6   BANK7   BANK8   BANK9  BANK10  BANK1
      +1  BANK12
  2494 ;;      Params:         0       0       0       0       0       0       0       0       0       0       0       0       
      +0       0
  2495 ;;      Locals:         0       0       0       0       0       0       0       0       0       0       0       0       
      +0       0
  2496 ;;      Temps:          0       0       0       0       0       0       0       0       0       0       0       0       
      +0       0
  2497 ;;      Totals:         0       0       0       0       0       0       0       0       0       0       0       0       
      +0       0
  2498 ;;Total ram usage:        0 bytes
  2499 ;; Hardware stack levels used:    1
  2500 ;; Hardware stack levels required when called:   10
  2501 ;; This function calls:
  2502 ;;		_clearDisplay
  2503 ;;		_displayLineOnLCD
  2504 ;;		_stopIrrigateManual
  2505 ;; This function is called by:
  2506 ;;		_main
  2507 ;; This function uses a non-reentrant model
  2508 ;;
  2509                           
  2510                           	psect	text4
  2511  0027AA                     __ptext4:
  2512                           	opt stack 0
  2513  0027AA                     _workingManual:
  2514                           	opt stack 20
  2515                           
  2516                           ;SysRiego.c: 872: clearDisplay();
  2517                           
  2518                           ; BSR set to: 0
  2519                           ;incstack = 0
  2520  0027AA  EC64  F015         	call	_clearDisplay	;wreg free
  2521                           
  2522                           ;SysRiego.c: 873: displayLineOnLCD(manualMessage, sizeof(manualMessage) / sizeof(manualM
      +                          essage[0]));
  2523  0027AE  0E26               	movlw	low _manualMessage
  2524  0027B0  0100               	movlb	0	; () banked
  2525  0027B2  6FEE               	movwf	displayLineOnLCD@array& (0+255),b
  2526  0027B4  0E01               	movlw	high _manualMessage
  2527  0027B6  0100               	movlb	0	; () banked
  2528  0027B8  6FEF               	movwf	(displayLineOnLCD@array+1)& (0+255),b
  2529  0027BA  0E0C               	movlw	12
  2530  0027BC  0100               	movlb	0	; () banked
  2531  0027BE  6FF0               	movwf	displayLineOnLCD@sizeOfArray& (0+255),b
  2532  0027C0  ECC2  F011         	call	_displayLineOnLCD	;wreg free
  2533  0027C4                     l5368:
  2534  0027C4  0E02               	movlw	2
  2535  0027C6  1840               	xorwf	_modeSelected,w,c
  2536  0027C8  A4D8               	btfss	status,2,c
  2537  0027CA  D003               	goto	l5372
  2538  0027CC  5043               	movf	_statusConfiguration,w,c
  2539  0027CE  B4D8               	btfsc	status,2,c
  2540  0027D0  D7F9               	goto	l5368
  2541  0027D2                     l5372:
  2542                           
  2543                           ;SysRiego.c: 879: }
  2544                           ;SysRiego.c: 881: stopIrrigateManual();
  2545  0027D2  ECF9  F014         	call	_stopIrrigateManual	;wreg free
  2546  0027D6  0012               	return		;funcret
  2547  0027D8                     __end_of_workingManual:
  2548                           	opt stack 0
  2549                           tblptru	equ	0xFF8
  2550                           tblptrh	equ	0xFF7
  2551                           tblptrl	equ	0xFF6
  2552                           tablat	equ	0xFF5
  2553                           prodh	equ	0xFF4
  2554                           prodl	equ	0xFF3
  2555                           intcon	equ	0xFF2
  2556                           intcon2	equ	0xFF1
  2557                           postinc0	equ	0xFEE
  2558                           wreg	equ	0xFE8
  2559                           indf1	equ	0xFE7
  2560                           postdec1	equ	0xFE5
  2561                           fsr1h	equ	0xFE2
  2562                           fsr1l	equ	0xFE1
  2563                           indf2	equ	0xFDF
  2564                           postinc2	equ	0xFDE
  2565                           postdec2	equ	0xFDD
  2566                           fsr2h	equ	0xFDA
  2567                           fsr2l	equ	0xFD9
  2568                           status	equ	0xFD8
  2569                           
  2570 ;; *************** function _stopIrrigateManual *****************
  2571 ;; Defined at:
  2572 ;;		line 1587 in file "SysRiego.c"
  2573 ;; Parameters:    Size  Location     Type
  2574 ;;		None
  2575 ;; Auto vars:     Size  Location     Type
  2576 ;;		None
  2577 ;; Return value:  Size  Location     Type
  2578 ;;                  1    wreg      void 
  2579 ;; Registers used:
  2580 ;;		wreg, status,2, status,0, cstack
  2581 ;; Tracked objects:
  2582 ;;		On entry : 0/0
  2583 ;;		On exit  : 0/0
  2584 ;;		Unchanged: 0/0
  2585 ;; Data sizes:     COMRAM   BANK0   BANK1   BANK2   BANK3   BANK4   BANK5   BANK6   BANK7   BANK8   BANK9  BANK10  BANK1
      +1  BANK12
  2586 ;;      Params:         0       0       0       0       0       0       0       0       0       0       0       0       
      +0       0
  2587 ;;      Locals:         0       0       0       0       0       0       0       0       0       0       0       0       
      +0       0
  2588 ;;      Temps:          0       0       0       0       0       0       0       0       0       0       0       0       
      +0       0
  2589 ;;      Totals:         0       0       0       0       0       0       0       0       0       0       0       0       
      +0       0
  2590 ;;Total ram usage:        0 bytes
  2591 ;; Hardware stack levels used:    1
  2592 ;; Hardware stack levels required when called:    8
  2593 ;; This function calls:
  2594 ;;		_stopIrrigation
  2595 ;; This function is called by:
  2596 ;;		_workingManual
  2597 ;; This function uses a non-reentrant model
  2598 ;;
  2599                           
  2600                           	psect	text5
  2601  0029F2                     __ptext5:
  2602                           	opt stack 0
  2603  0029F2                     _stopIrrigateManual:
  2604                           	opt stack 21
  2605                           
  2606                           ;SysRiego.c: 1589: stopIrrigation(1);
  2607                           
  2608                           ;incstack = 0
  2609  0029F2  0E01               	movlw	1
  2610  0029F4  EC03  F014         	call	_stopIrrigation
  2611                           
  2612                           ;SysRiego.c: 1590: stopIrrigation(2);
  2613  0029F8  0E02               	movlw	2
  2614  0029FA  EC03  F014         	call	_stopIrrigation
  2615                           
  2616                           ;SysRiego.c: 1591: stopIrrigation(3);
  2617  0029FE  0E03               	movlw	3
  2618  002A00  EC03  F014         	call	_stopIrrigation
  2619                           
  2620                           ;SysRiego.c: 1593: irrigateManualStatus = 0;
  2621  002A04  0E00               	movlw	0
  2622  002A06  6E3E               	movwf	_irrigateManualStatus,c
  2623  002A08  0012               	return		;funcret
  2624  002A0A                     __end_of_stopIrrigateManual:
  2625                           	opt stack 0
  2626                           tblptru	equ	0xFF8
  2627                           tblptrh	equ	0xFF7
  2628                           tblptrl	equ	0xFF6
  2629                           tablat	equ	0xFF5
  2630                           prodh	equ	0xFF4
  2631                           prodl	equ	0xFF3
  2632                           intcon	equ	0xFF2
  2633                           intcon2	equ	0xFF1
  2634                           postinc0	equ	0xFEE
  2635                           wreg	equ	0xFE8
  2636                           indf1	equ	0xFE7
  2637                           postdec1	equ	0xFE5
  2638                           fsr1h	equ	0xFE2
  2639                           fsr1l	equ	0xFE1
  2640                           indf2	equ	0xFDF
  2641                           postinc2	equ	0xFDE
  2642                           postdec2	equ	0xFDD
  2643                           fsr2h	equ	0xFDA
  2644                           fsr2l	equ	0xFD9
  2645                           status	equ	0xFD8
  2646                           
  2647 ;; *************** function _workingAutomatic *****************
  2648 ;; Defined at:
  2649 ;;		line 756 in file "SysRiego.c"
  2650 ;; Parameters:    Size  Location     Type
  2651 ;;		None
  2652 ;; Auto vars:     Size  Location     Type
  2653 ;;  i               1   15[BANK0 ] unsigned char 
  2654 ;; Return value:  Size  Location     Type
  2655 ;;                  1    wreg      void 
  2656 ;; Registers used:
  2657 ;;		wreg, fsr0l, fsr0h, fsr2l, fsr2h, status,2, status,0, tblptrl, tblptrh, tblptru, prodl, prodh, cstack
  2658 ;; Tracked objects:
  2659 ;;		On entry : 0/0
  2660 ;;		On exit  : 0/0
  2661 ;;		Unchanged: 0/0
  2662 ;; Data sizes:     COMRAM   BANK0   BANK1   BANK2   BANK3   BANK4   BANK5   BANK6   BANK7   BANK8   BANK9  BANK10  BANK1
      +1  BANK12
  2663 ;;      Params:         0       0       0       0       0       0       0       0       0       0       0       0       
      +0       0
  2664 ;;      Locals:         0       1       0       0       0       0       0       0       0       0       0       0       
      +0       0
  2665 ;;      Temps:          0       0       2       0       0       0       0       0       0       0       0       0       
      +0       0
  2666 ;;      Totals:         0       1       2       0       0       0       0       0       0       0       0       0       
      +0       0
  2667 ;;Total ram usage:        3 bytes
  2668 ;; Hardware stack levels used:    1
  2669 ;; Hardware stack levels required when called:   10
  2670 ;; This function calls:
  2671 ;;		___ftge
  2672 ;;		___ftmul
  2673 ;;		___lbtoft
  2674 ;;		___lwtoft
  2675 ;;		_clearDisplay
  2676 ;;		_disableACInterrupts
  2677 ;;		_displayLineOnLCD
  2678 ;;		_enableACInterrupts
  2679 ;;		_startAC
  2680 ;;		_startIrrigation
  2681 ;;		_stopAllIrrigation
  2682 ;;		_stopIrrigation
  2683 ;; This function is called by:
  2684 ;;		_main
  2685 ;; This function uses a non-reentrant model
  2686 ;;
  2687                           
  2688                           	psect	text6
  2689  001EBE                     __ptext6:
  2690                           	opt stack 0
  2691  001EBE                     _workingAutomatic:
  2692                           	opt stack 20
  2693                           
  2694                           ;SysRiego.c: 758: enableACInterrupts();
  2695                           
  2696                           ;incstack = 0
  2697  001EBE  EC05  F015         	call	_enableACInterrupts	;wreg free
  2698                           
  2699                           ;SysRiego.c: 760: clearDisplay();
  2700  001EC2  EC64  F015         	call	_clearDisplay	;wreg free
  2701                           
  2702                           ;SysRiego.c: 761: displayLineOnLCD(automaticMessage, sizeof(automaticMessage) / sizeof(a
      +                          utomaticMessage[0]));
  2703  001EC6  0E17               	movlw	low _automaticMessage
  2704  001EC8  0100               	movlb	0	; () banked
  2705  001ECA  6FEE               	movwf	displayLineOnLCD@array& (0+255),b
  2706  001ECC  0E01               	movlw	high _automaticMessage
  2707  001ECE  0100               	movlb	0	; () banked
  2708  001ED0  6FEF               	movwf	(displayLineOnLCD@array+1)& (0+255),b
  2709  001ED2  0E0F               	movlw	15
  2710  001ED4  0100               	movlb	0	; () banked
  2711  001ED6  6FF0               	movwf	displayLineOnLCD@sizeOfArray& (0+255),b
  2712  001ED8  ECC2  F011         	call	_displayLineOnLCD	;wreg free
  2713                           
  2714                           ;SysRiego.c: 763: while(modeSelected == 0 && statusConfiguration == 0) {
  2715  001EDC  D051               	goto	l5262
  2716  001EDE                     l5244:
  2717                           
  2718                           ;SysRiego.c: 765: for(unsigned char i = 0; i < 3; i++) {
  2719  001EDE  0E00               	movlw	0
  2720  001EE0  0100               	movlb	0	; () banked
  2721  001EE2  6FFB               	movwf	workingAutomatic@i& (0+255),b
  2722  001EE4                     l5246:
  2723                           
  2724                           ; BSR set to: 0
  2725  001EE4  0E02               	movlw	2
  2726  001EE6  0100               	movlb	0	; () banked
  2727  001EE8  65FB               	cpfsgt	workingAutomatic@i& (0+255),b
  2728  001EEA  D001               	goto	l5250
  2729  001EEC  D049               	goto	l5262
  2730  001EEE                     l5250:
  2731                           
  2732                           ; BSR set to: 0
  2733                           ;SysRiego.c: 767: startAC(i + 1);
  2734  001EEE  0100               	movlb	0	; () banked
  2735  001EF0  29FB               	incf	workingAutomatic@i& (0+255),w,b
  2736  001EF2  EC88  F013         	call	_startAC
  2737                           
  2738                           ;SysRiego.c: 768: if( ADRES < (*humidityZnValuesInt[i] * CONVERSIONRATE)){
  2739  001EF6  CFC3 F0F4          	movff	4035,___lwtoft@c	;volatile
  2740  001EFA  CFC4 F0F5          	movff	4036,___lwtoft@c+1	;volatile
  2741  001EFE  EC2D  F014         	call	___lwtoft	;wreg free
  2742  001F02  C0F4  F149         	movff	?___lwtoft,___ftge@ff1
  2743  001F06  C0F5  F14A         	movff	?___lwtoft+1,___ftge@ff1+1
  2744  001F0A  C0F6  F14B         	movff	?___lwtoft+2,___ftge@ff1+2
  2745  001F0E  C083  F140         	movff	_CONVERSIONRATE,___ftmul@f2
  2746  001F12  C084  F141         	movff	_CONVERSIONRATE+1,___ftmul@f2+1
  2747  001F16  C085  F142         	movff	_CONVERSIONRATE+2,___ftmul@f2+2
  2748  001F1A  0100               	movlb	0	; () banked
  2749  001F1C  51FB               	movf	workingAutomatic@i& (0+255),w,b
  2750  001F1E  0D02               	mullw	2
  2751  001F20  0E72               	movlw	low _humidityZnValuesInt
  2752  001F22  24F3               	addwf	prodl,w,c
  2753  001F24  6ED9               	movwf	fsr2l,c
  2754  001F26  0E00               	movlw	high _humidityZnValuesInt
  2755  001F28  20F4               	addwfc	prodh,w,c
  2756  001F2A  6EDA               	movwf	fsr2h,c
  2757  001F2C  CFDE F152          	movff	postinc2,??_workingAutomatic
  2758  001F30  CFDD F153          	movff	postdec2,??_workingAutomatic+1
  2759  001F34  C152  FFD9         	movff	??_workingAutomatic,fsr2l
  2760  001F38  C153  FFDA         	movff	??_workingAutomatic+1,fsr2h
  2761  001F3C  50DF               	movf	indf2,w,c
  2762  001F3E  ECEC  F013         	call	___lbtoft
  2763  001F42  C0F4  F13D         	movff	?___lbtoft,___ftmul@f1
  2764  001F46  C0F5  F13E         	movff	?___lbtoft+1,___ftmul@f1+1
  2765  001F4A  C0F6  F13F         	movff	?___lbtoft+2,___ftmul@f1+2
  2766  001F4E  EC60  F00B         	call	___ftmul	;wreg free
  2767  001F52  C13D  F14C         	movff	?___ftmul,___ftge@ff2
  2768  001F56  C13E  F14D         	movff	?___ftmul+1,___ftge@ff2+1
  2769  001F5A  C13F  F14E         	movff	?___ftmul+2,___ftge@ff2+2
  2770  001F5E  EC0D  F011         	call	___ftge	;wreg free
  2771  001F62  0101               	movlb	1	; () banked
  2772  001F64  B0D8               	btfsc	status,0,c
  2773  001F66  D005               	goto	l5256
  2774                           
  2775                           ; BSR set to: 1
  2776                           ;SysRiego.c: 769: startIrrigation(i + 1);
  2777  001F68  0100               	movlb	0	; () banked
  2778  001F6A  29FB               	incf	workingAutomatic@i& (0+255),w,b
  2779  001F6C  EC18  F014         	call	_startIrrigation
  2780                           
  2781                           ;SysRiego.c: 770: }
  2782  001F70  D004               	goto	l5258
  2783  001F72                     l5256:
  2784                           
  2785                           ;SysRiego.c: 771: else {
  2786                           ;SysRiego.c: 772: stopIrrigation(i + 1);
  2787  001F72  0100               	movlb	0	; () banked
  2788  001F74  29FB               	incf	workingAutomatic@i& (0+255),w,b
  2789  001F76  EC03  F014         	call	_stopIrrigation
  2790  001F7A                     l5258:
  2791  001F7A  0100               	movlb	0	; () banked
  2792  001F7C  2BFB               	incf	workingAutomatic@i& (0+255),f,b
  2793  001F7E  D7B2               	goto	l5246
  2794  001F80                     l5262:
  2795  001F80  5040               	movf	_modeSelected,w,c
  2796  001F82  A4D8               	btfss	status,2,c
  2797  001F84  D003               	goto	l5266
  2798  001F86  5043               	movf	_statusConfiguration,w,c
  2799  001F88  B4D8               	btfsc	status,2,c
  2800  001F8A  D7A9               	goto	l5244
  2801  001F8C                     l5266:
  2802                           
  2803                           ;SysRiego.c: 773: }
  2804                           ;SysRiego.c: 775: }
  2805                           ;SysRiego.c: 777: }
  2806                           ;SysRiego.c: 779: stopAllIrrigation();
  2807  001F8C  EC3E  F015         	call	_stopAllIrrigation	;wreg free
  2808                           
  2809                           ;SysRiego.c: 781: disableACInterrupts();
  2810  001F90  EC48  F015         	call	_disableACInterrupts	;wreg free
  2811  001F94  0012               	return		;funcret
  2812  001F96                     __end_of_workingAutomatic:
  2813                           	opt stack 0
  2814                           tblptru	equ	0xFF8
  2815                           tblptrh	equ	0xFF7
  2816                           tblptrl	equ	0xFF6
  2817                           tablat	equ	0xFF5
  2818                           prodh	equ	0xFF4
  2819                           prodl	equ	0xFF3
  2820                           intcon	equ	0xFF2
  2821                           intcon2	equ	0xFF1
  2822                           postinc0	equ	0xFEE
  2823                           wreg	equ	0xFE8
  2824                           indf1	equ	0xFE7
  2825                           postdec1	equ	0xFE5
  2826                           fsr1h	equ	0xFE2
  2827                           fsr1l	equ	0xFE1
  2828                           indf2	equ	0xFDF
  2829                           postinc2	equ	0xFDE
  2830                           postdec2	equ	0xFDD
  2831                           fsr2h	equ	0xFDA
  2832                           fsr2l	equ	0xFD9
  2833                           status	equ	0xFD8
  2834                           
  2835 ;; *************** function _stopAllIrrigation *****************
  2836 ;; Defined at:
  2837 ;;		line 1690 in file "SysRiego.c"
  2838 ;; Parameters:    Size  Location     Type
  2839 ;;		None
  2840 ;; Auto vars:     Size  Location     Type
  2841 ;;		None
  2842 ;; Return value:  Size  Location     Type
  2843 ;;                  1    wreg      void 
  2844 ;; Registers used:
  2845 ;;		wreg, status,2, status,0, cstack
  2846 ;; Tracked objects:
  2847 ;;		On entry : 0/0
  2848 ;;		On exit  : 0/0
  2849 ;;		Unchanged: 0/0
  2850 ;; Data sizes:     COMRAM   BANK0   BANK1   BANK2   BANK3   BANK4   BANK5   BANK6   BANK7   BANK8   BANK9  BANK10  BANK1
      +1  BANK12
  2851 ;;      Params:         0       0       0       0       0       0       0       0       0       0       0       0       
      +0       0
  2852 ;;      Locals:         0       0       0       0       0       0       0       0       0       0       0       0       
      +0       0
  2853 ;;      Temps:          0       0       0       0       0       0       0       0       0       0       0       0       
      +0       0
  2854 ;;      Totals:         0       0       0       0       0       0       0       0       0       0       0       0       
      +0       0
  2855 ;;Total ram usage:        0 bytes
  2856 ;; Hardware stack levels used:    1
  2857 ;; Hardware stack levels required when called:    8
  2858 ;; This function calls:
  2859 ;;		_stopIrrigation
  2860 ;; This function is called by:
  2861 ;;		_workingAutomatic
  2862 ;;		_workingTimer
  2863 ;; This function uses a non-reentrant model
  2864 ;;
  2865                           
  2866                           	psect	text7
  2867  002A7C                     __ptext7:
  2868                           	opt stack 0
  2869  002A7C                     _stopAllIrrigation:
  2870                           	opt stack 21
  2871                           
  2872                           ;SysRiego.c: 1692: stopIrrigation(1);
  2873                           
  2874                           ;incstack = 0
  2875  002A7C  0E01               	movlw	1
  2876  002A7E  EC03  F014         	call	_stopIrrigation
  2877                           
  2878                           ;SysRiego.c: 1693: stopIrrigation(2);
  2879  002A82  0E02               	movlw	2
  2880  002A84  EC03  F014         	call	_stopIrrigation
  2881                           
  2882                           ;SysRiego.c: 1694: stopIrrigation(3);
  2883  002A88  0E03               	movlw	3
  2884  002A8A  EC03  F014         	call	_stopIrrigation
  2885  002A8E  0012               	return		;funcret
  2886  002A90                     __end_of_stopAllIrrigation:
  2887                           	opt stack 0
  2888                           tblptru	equ	0xFF8
  2889                           tblptrh	equ	0xFF7
  2890                           tblptrl	equ	0xFF6
  2891                           tablat	equ	0xFF5
  2892                           prodh	equ	0xFF4
  2893                           prodl	equ	0xFF3
  2894                           intcon	equ	0xFF2
  2895                           intcon2	equ	0xFF1
  2896                           postinc0	equ	0xFEE
  2897                           wreg	equ	0xFE8
  2898                           indf1	equ	0xFE7
  2899                           postdec1	equ	0xFE5
  2900                           fsr1h	equ	0xFE2
  2901                           fsr1l	equ	0xFE1
  2902                           indf2	equ	0xFDF
  2903                           postinc2	equ	0xFDE
  2904                           postdec2	equ	0xFDD
  2905                           fsr2h	equ	0xFDA
  2906                           fsr2l	equ	0xFD9
  2907                           status	equ	0xFD8
  2908                           
  2909 ;; *************** function _stopIrrigation *****************
  2910 ;; Defined at:
  2911 ;;		line 1549 in file "SysRiego.c"
  2912 ;; Parameters:    Size  Location     Type
  2913 ;;  zone            1    wreg     unsigned char 
  2914 ;; Auto vars:     Size  Location     Type
  2915 ;;  zone            1    0[BANK0 ] unsigned char 
  2916 ;; Return value:  Size  Location     Type
  2917 ;;                  1    wreg      void 
  2918 ;; Registers used:
  2919 ;;		wreg, status,2, status,0
  2920 ;; Tracked objects:
  2921 ;;		On entry : 0/0
  2922 ;;		On exit  : 0/0
  2923 ;;		Unchanged: 0/0
  2924 ;; Data sizes:     COMRAM   BANK0   BANK1   BANK2   BANK3   BANK4   BANK5   BANK6   BANK7   BANK8   BANK9  BANK10  BANK1
      +1  BANK12
  2925 ;;      Params:         0       0       0       0       0       0       0       0       0       0       0       0       
      +0       0
  2926 ;;      Locals:         0       1       0       0       0       0       0       0       0       0       0       0       
      +0       0
  2927 ;;      Temps:          0       0       0       0       0       0       0       0       0       0       0       0       
      +0       0
  2928 ;;      Totals:         0       1       0       0       0       0       0       0       0       0       0       0       
      +0       0
  2929 ;;Total ram usage:        1 bytes
  2930 ;; Hardware stack levels used:    1
  2931 ;; Hardware stack levels required when called:    7
  2932 ;; This function calls:
  2933 ;;		Nothing
  2934 ;; This function is called by:
  2935 ;;		_workingAutomatic
  2936 ;;		_workingTimer
  2937 ;;		_stopIrrigateManual
  2938 ;;		_stopAllIrrigation
  2939 ;; This function uses a non-reentrant model
  2940 ;;
  2941                           
  2942                           	psect	text8
  2943  002806                     __ptext8:
  2944                           	opt stack 0
  2945  002806                     _stopIrrigation:
  2946                           	opt stack 22
  2947                           
  2948                           ;incstack = 0
  2949                           ;stopIrrigation@zone stored from wreg
  2950  002806  0100               	movlb	0	; () banked
  2951  002808  6FEC               	movwf	stopIrrigation@zone& (0+255),b
  2952                           
  2953                           ;SysRiego.c: 1551: switch(zone) {
  2954  00280A  D006               	goto	l4872
  2955  00280C                     l663:
  2956                           
  2957                           ; BSR set to: 0
  2958                           ;SysRiego.c: 1554: PORTEbits.RE0 = 0;
  2959  00280C  9084               	bcf	3972,0,c	;volatile
  2960                           
  2961                           ;SysRiego.c: 1555: break;
  2962  00280E  0012               	return	
  2963  002810                     l665:
  2964                           
  2965                           ; BSR set to: 0
  2966                           ;SysRiego.c: 1558: PORTEbits.RE1 = 0;
  2967  002810  9284               	bcf	3972,1,c	;volatile
  2968                           
  2969                           ;SysRiego.c: 1559: break;
  2970  002812  0012               	return	
  2971  002814                     l666:
  2972                           
  2973                           ; BSR set to: 0
  2974                           ;SysRiego.c: 1562: PORTEbits.RE2 = 0;
  2975  002814  9484               	bcf	3972,2,c	;volatile
  2976                           
  2977                           ; BSR set to: 0
  2978                           ;SysRiego.c: 1565: }
  2979                           
  2980                           ;SysRiego.c: 1563: break;
  2981  002816  0012               	return	
  2982  002818                     l4872:
  2983  002818  0100               	movlb	0	; () banked
  2984  00281A  51EC               	movf	stopIrrigation@zone& (0+255),w,b
  2985                           
  2986                           ; Switch size 1, requested type "space"
  2987                           ; Number of cases is 3, Range of values is 1 to 3
  2988                           ; switch strategies available:
  2989                           ; Name         Instructions Cycles
  2990                           ; simple_byte           10     6 (average)
  2991                           ;	Chosen strategy is simple_byte
  2992  00281C  0A01               	xorlw	1	; case 1
  2993  00281E  B4D8               	btfsc	status,2,c
  2994  002820  D7F5               	goto	l663
  2995  002822  0A03               	xorlw	3	; case 2
  2996  002824  B4D8               	btfsc	status,2,c
  2997  002826  D7F4               	goto	l665
  2998  002828  0A01               	xorlw	1	; case 3
  2999  00282A  A4D8               	btfss	status,2,c
  3000  00282C  0012               	return	
  3001  00282E  D7F2               	goto	l666
  3002  002830                     __end_of_stopIrrigation:
  3003                           	opt stack 0
  3004                           tblptru	equ	0xFF8
  3005                           tblptrh	equ	0xFF7
  3006                           tblptrl	equ	0xFF6
  3007                           tablat	equ	0xFF5
  3008                           prodh	equ	0xFF4
  3009                           prodl	equ	0xFF3
  3010                           intcon	equ	0xFF2
  3011                           intcon2	equ	0xFF1
  3012                           postinc0	equ	0xFEE
  3013                           wreg	equ	0xFE8
  3014                           indf1	equ	0xFE7
  3015                           postdec1	equ	0xFE5
  3016                           fsr1h	equ	0xFE2
  3017                           fsr1l	equ	0xFE1
  3018                           indf2	equ	0xFDF
  3019                           postinc2	equ	0xFDE
  3020                           postdec2	equ	0xFDD
  3021                           fsr2h	equ	0xFDA
  3022                           fsr2l	equ	0xFD9
  3023                           status	equ	0xFD8
  3024                           
  3025 ;; *************** function _startIrrigation *****************
  3026 ;; Defined at:
  3027 ;;		line 1529 in file "SysRiego.c"
  3028 ;; Parameters:    Size  Location     Type
  3029 ;;  zone            1    wreg     unsigned char 
  3030 ;; Auto vars:     Size  Location     Type
  3031 ;;  zone            1    0[BANK0 ] unsigned char 
  3032 ;; Return value:  Size  Location     Type
  3033 ;;                  1    wreg      void 
  3034 ;; Registers used:
  3035 ;;		wreg, status,2, status,0
  3036 ;; Tracked objects:
  3037 ;;		On entry : 0/0
  3038 ;;		On exit  : 0/0
  3039 ;;		Unchanged: 0/0
  3040 ;; Data sizes:     COMRAM   BANK0   BANK1   BANK2   BANK3   BANK4   BANK5   BANK6   BANK7   BANK8   BANK9  BANK10  BANK1
      +1  BANK12
  3041 ;;      Params:         0       0       0       0       0       0       0       0       0       0       0       0       
      +0       0
  3042 ;;      Locals:         0       1       0       0       0       0       0       0       0       0       0       0       
      +0       0
  3043 ;;      Temps:          0       0       0       0       0       0       0       0       0       0       0       0       
      +0       0
  3044 ;;      Totals:         0       1       0       0       0       0       0       0       0       0       0       0       
      +0       0
  3045 ;;Total ram usage:        1 bytes
  3046 ;; Hardware stack levels used:    1
  3047 ;; Hardware stack levels required when called:    7
  3048 ;; This function calls:
  3049 ;;		Nothing
  3050 ;; This function is called by:
  3051 ;;		_workingAutomatic
  3052 ;;		_workingTimer
  3053 ;; This function uses a non-reentrant model
  3054 ;;
  3055                           
  3056                           	psect	text9
  3057  002830                     __ptext9:
  3058                           	opt stack 0
  3059  002830                     _startIrrigation:
  3060                           	opt stack 22
  3061                           
  3062                           ; BSR set to: 0
  3063                           ;incstack = 0
  3064                           ;startIrrigation@zone stored from wreg
  3065  002830  0100               	movlb	0	; () banked
  3066  002832  6FEC               	movwf	startIrrigation@zone& (0+255),b
  3067                           
  3068                           ;SysRiego.c: 1531: switch(zone) {
  3069  002834  D006               	goto	l5078
  3070  002836                     l655:
  3071                           
  3072                           ; BSR set to: 0
  3073                           ;SysRiego.c: 1534: PORTEbits.RE0 = 1;
  3074  002836  8084               	bsf	3972,0,c	;volatile
  3075                           
  3076                           ;SysRiego.c: 1535: break;
  3077  002838  0012               	return	
  3078  00283A                     l657:
  3079                           
  3080                           ; BSR set to: 0
  3081                           ;SysRiego.c: 1538: PORTEbits.RE1 = 1;
  3082  00283A  8284               	bsf	3972,1,c	;volatile
  3083                           
  3084                           ;SysRiego.c: 1539: break;
  3085  00283C  0012               	return	
  3086  00283E                     l658:
  3087                           
  3088                           ; BSR set to: 0
  3089                           ;SysRiego.c: 1542: PORTEbits.RE2 = 1;
  3090  00283E  8484               	bsf	3972,2,c	;volatile
  3091                           
  3092                           ; BSR set to: 0
  3093                           ;SysRiego.c: 1545: }
  3094                           
  3095                           ;SysRiego.c: 1543: break;
  3096  002840  0012               	return	
  3097  002842                     l5078:
  3098  002842  0100               	movlb	0	; () banked
  3099  002844  51EC               	movf	startIrrigation@zone& (0+255),w,b
  3100                           
  3101                           ; Switch size 1, requested type "space"
  3102                           ; Number of cases is 3, Range of values is 1 to 3
  3103                           ; switch strategies available:
  3104                           ; Name         Instructions Cycles
  3105                           ; simple_byte           10     6 (average)
  3106                           ;	Chosen strategy is simple_byte
  3107  002846  0A01               	xorlw	1	; case 1
  3108  002848  B4D8               	btfsc	status,2,c
  3109  00284A  D7F5               	goto	l655
  3110  00284C  0A03               	xorlw	3	; case 2
  3111  00284E  B4D8               	btfsc	status,2,c
  3112  002850  D7F4               	goto	l657
  3113  002852  0A01               	xorlw	1	; case 3
  3114  002854  A4D8               	btfss	status,2,c
  3115  002856  0012               	return	
  3116  002858  D7F2               	goto	l658
  3117  00285A                     __end_of_startIrrigation:
  3118                           	opt stack 0
  3119                           tblptru	equ	0xFF8
  3120                           tblptrh	equ	0xFF7
  3121                           tblptrl	equ	0xFF6
  3122                           tablat	equ	0xFF5
  3123                           prodh	equ	0xFF4
  3124                           prodl	equ	0xFF3
  3125                           intcon	equ	0xFF2
  3126                           intcon2	equ	0xFF1
  3127                           postinc0	equ	0xFEE
  3128                           wreg	equ	0xFE8
  3129                           indf1	equ	0xFE7
  3130                           postdec1	equ	0xFE5
  3131                           fsr1h	equ	0xFE2
  3132                           fsr1l	equ	0xFE1
  3133                           indf2	equ	0xFDF
  3134                           postinc2	equ	0xFDE
  3135                           postdec2	equ	0xFDD
  3136                           fsr2h	equ	0xFDA
  3137                           fsr2l	equ	0xFD9
  3138                           status	equ	0xFD8
  3139                           
  3140 ;; *************** function _startAC *****************
  3141 ;; Defined at:
  3142 ;;		line 1628 in file "SysRiego.c"
  3143 ;; Parameters:    Size  Location     Type
  3144 ;;  acChannel       1    wreg     unsigned char 
  3145 ;; Auto vars:     Size  Location     Type
  3146 ;;  acChannel       1    0[BANK0 ] unsigned char 
  3147 ;; Return value:  Size  Location     Type
  3148 ;;                  1    wreg      void 
  3149 ;; Registers used:
  3150 ;;		wreg, status,2, status,0
  3151 ;; Tracked objects:
  3152 ;;		On entry : 0/0
  3153 ;;		On exit  : 0/0
  3154 ;;		Unchanged: 0/0
  3155 ;; Data sizes:     COMRAM   BANK0   BANK1   BANK2   BANK3   BANK4   BANK5   BANK6   BANK7   BANK8   BANK9  BANK10  BANK1
      +1  BANK12
  3156 ;;      Params:         0       0       0       0       0       0       0       0       0       0       0       0       
      +0       0
  3157 ;;      Locals:         0       1       0       0       0       0       0       0       0       0       0       0       
      +0       0
  3158 ;;      Temps:          0       0       0       0       0       0       0       0       0       0       0       0       
      +0       0
  3159 ;;      Totals:         0       1       0       0       0       0       0       0       0       0       0       0       
      +0       0
  3160 ;;Total ram usage:        1 bytes
  3161 ;; Hardware stack levels used:    1
  3162 ;; Hardware stack levels required when called:    7
  3163 ;; This function calls:
  3164 ;;		Nothing
  3165 ;; This function is called by:
  3166 ;;		_workingAutomatic
  3167 ;; This function uses a non-reentrant model
  3168 ;;
  3169                           
  3170                           	psect	text10
  3171  002710                     __ptext10:
  3172                           	opt stack 0
  3173  002710                     _startAC:
  3174                           	opt stack 22
  3175                           
  3176                           ; BSR set to: 0
  3177                           ;incstack = 0
  3178                           ;startAC@acChannel stored from wreg
  3179  002710  0100               	movlb	0	; () banked
  3180  002712  6FEC               	movwf	startAC@acChannel& (0+255),b
  3181                           
  3182                           ;SysRiego.c: 1631: PIR1bits.ADIF = 0;
  3183  002714  9C9E               	bcf	3998,6,c	;volatile
  3184                           
  3185                           ;SysRiego.c: 1633: PIE1bits.ADIE = 1;
  3186  002716  8C9D               	bsf	3997,6,c	;volatile
  3187                           
  3188                           ;SysRiego.c: 1635: switch(acChannel) {
  3189  002718  D007               	goto	l5072
  3190  00271A                     l5064:
  3191                           
  3192                           ;SysRiego.c: 1638: ADCON0 = 0x01;
  3193  00271A  0E01               	movlw	1
  3194  00271C  D003               	goto	L2
  3195  00271E                     l5066:
  3196                           
  3197                           ;SysRiego.c: 1642: ADCON0 = 0x05;
  3198  00271E  0E05               	movlw	5
  3199  002720  D001               	goto	L2
  3200  002722                     l5068:
  3201                           
  3202                           ;SysRiego.c: 1646: ADCON0 = 0x09;
  3203  002722  0E09               	movlw	9
  3204  002724                     L2:
  3205  002724  6EC2               	movwf	4034,c	;volatile
  3206                           
  3207                           ;SysRiego.c: 1649: }
  3208                           
  3209                           ;SysRiego.c: 1647: break;
  3210  002726  D00B               	goto	l687
  3211  002728                     l5072:
  3212  002728  0100               	movlb	0	; () banked
  3213  00272A  51EC               	movf	startAC@acChannel& (0+255),w,b
  3214                           
  3215                           ; Switch size 1, requested type "space"
  3216                           ; Number of cases is 3, Range of values is 1 to 3
  3217                           ; switch strategies available:
  3218                           ; Name         Instructions Cycles
  3219                           ; simple_byte           10     6 (average)
  3220                           ;	Chosen strategy is simple_byte
  3221  00272C  0A01               	xorlw	1	; case 1
  3222  00272E  B4D8               	btfsc	status,2,c
  3223  002730  D7F4               	goto	l5064
  3224  002732  0A03               	xorlw	3	; case 2
  3225  002734  B4D8               	btfsc	status,2,c
  3226  002736  D7F3               	goto	l5066
  3227  002738  0A01               	xorlw	1	; case 3
  3228  00273A  B4D8               	btfsc	status,2,c
  3229  00273C  D7F2               	goto	l5068
  3230  00273E                     l687:
  3231                           
  3232                           ;SysRiego.c: 1651: ADCON0bits.GO_DONE = 1;
  3233  00273E  82C2               	bsf	4034,1,c	;volatile
  3234  002740                     l690:
  3235  002740  B2C2               	btfsc	4034,1,c	;volatile
  3236  002742  D7FE               	goto	l690
  3237                           
  3238                           ;SysRiego.c: 1656: PIE1bits.ADIE = 0;
  3239  002744  9C9D               	bcf	3997,6,c	;volatile
  3240  002746  0012               	return		;funcret
  3241  002748                     __end_of_startAC:
  3242                           	opt stack 0
  3243                           tblptru	equ	0xFF8
  3244                           tblptrh	equ	0xFF7
  3245                           tblptrl	equ	0xFF6
  3246                           tablat	equ	0xFF5
  3247                           prodh	equ	0xFF4
  3248                           prodl	equ	0xFF3
  3249                           intcon	equ	0xFF2
  3250                           intcon2	equ	0xFF1
  3251                           postinc0	equ	0xFEE
  3252                           wreg	equ	0xFE8
  3253                           indf1	equ	0xFE7
  3254                           postdec1	equ	0xFE5
  3255                           fsr1h	equ	0xFE2
  3256                           fsr1l	equ	0xFE1
  3257                           indf2	equ	0xFDF
  3258                           postinc2	equ	0xFDE
  3259                           postdec2	equ	0xFDD
  3260                           fsr2h	equ	0xFDA
  3261                           fsr2l	equ	0xFD9
  3262                           status	equ	0xFD8
  3263                           
  3264 ;; *************** function _enableACInterrupts *****************
  3265 ;; Defined at:
  3266 ;;		line 1608 in file "SysRiego.c"
  3267 ;; Parameters:    Size  Location     Type
  3268 ;;		None
  3269 ;; Auto vars:     Size  Location     Type
  3270 ;;		None
  3271 ;; Return value:  Size  Location     Type
  3272 ;;                  1    wreg      void 
  3273 ;; Registers used:
  3274 ;;		wreg, status,2
  3275 ;; Tracked objects:
  3276 ;;		On entry : 0/0
  3277 ;;		On exit  : 0/0
  3278 ;;		Unchanged: 0/0
  3279 ;; Data sizes:     COMRAM   BANK0   BANK1   BANK2   BANK3   BANK4   BANK5   BANK6   BANK7   BANK8   BANK9  BANK10  BANK1
      +1  BANK12
  3280 ;;      Params:         0       0       0       0       0       0       0       0       0       0       0       0       
      +0       0
  3281 ;;      Locals:         0       0       0       0       0       0       0       0       0       0       0       0       
      +0       0
  3282 ;;      Temps:          0       0       0       0       0       0       0       0       0       0       0       0       
      +0       0
  3283 ;;      Totals:         0       0       0       0       0       0       0       0       0       0       0       0       
      +0       0
  3284 ;;Total ram usage:        0 bytes
  3285 ;; Hardware stack levels used:    1
  3286 ;; Hardware stack levels required when called:    7
  3287 ;; This function calls:
  3288 ;;		Nothing
  3289 ;; This function is called by:
  3290 ;;		_workingAutomatic
  3291 ;; This function uses a non-reentrant model
  3292 ;;
  3293                           
  3294                           	psect	text11
  3295  002A0A                     __ptext11:
  3296                           	opt stack 0
  3297  002A0A                     _enableACInterrupts:
  3298                           	opt stack 22
  3299                           
  3300                           ;SysRiego.c: 1610: PORTA = 0X00;
  3301                           
  3302                           ;incstack = 0
  3303  002A0A  0E00               	movlw	0
  3304  002A0C  6E80               	movwf	3968,c	;volatile
  3305                           
  3306                           ;SysRiego.c: 1611: LATA = 0X00;
  3307  002A0E  0E00               	movlw	0
  3308  002A10  6E89               	movwf	3977,c	;volatile
  3309                           
  3310                           ;SysRiego.c: 1612: TRISA = 0X00;
  3311  002A12  0E00               	movlw	0
  3312  002A14  6E92               	movwf	3986,c	;volatile
  3313                           
  3314                           ;SysRiego.c: 1614: TRISAbits.RA0 = 1;
  3315  002A16  8092               	bsf	3986,0,c	;volatile
  3316                           
  3317                           ;SysRiego.c: 1615: TRISAbits.RA1 = 1;
  3318  002A18  8292               	bsf	3986,1,c	;volatile
  3319                           
  3320                           ;SysRiego.c: 1616: TRISAbits.RA2 = 1;
  3321  002A1A  8492               	bsf	3986,2,c	;volatile
  3322                           
  3323                           ;SysRiego.c: 1619: PIE1bits.ADIE = 0;
  3324  002A1C  9C9D               	bcf	3997,6,c	;volatile
  3325                           
  3326                           ;SysRiego.c: 1622: IPR1bits.ADIP = 1;
  3327  002A1E  8C9F               	bsf	3999,6,c	;volatile
  3328  002A20  0012               	return		;funcret
  3329  002A22                     __end_of_enableACInterrupts:
  3330                           	opt stack 0
  3331                           tblptru	equ	0xFF8
  3332                           tblptrh	equ	0xFF7
  3333                           tblptrl	equ	0xFF6
  3334                           tablat	equ	0xFF5
  3335                           prodh	equ	0xFF4
  3336                           prodl	equ	0xFF3
  3337                           intcon	equ	0xFF2
  3338                           intcon2	equ	0xFF1
  3339                           postinc0	equ	0xFEE
  3340                           wreg	equ	0xFE8
  3341                           indf1	equ	0xFE7
  3342                           postdec1	equ	0xFE5
  3343                           fsr1h	equ	0xFE2
  3344                           fsr1l	equ	0xFE1
  3345                           indf2	equ	0xFDF
  3346                           postinc2	equ	0xFDE
  3347                           postdec2	equ	0xFDD
  3348                           fsr2h	equ	0xFDA
  3349                           fsr2l	equ	0xFD9
  3350                           status	equ	0xFD8
  3351                           
  3352 ;; *************** function _disableACInterrupts *****************
  3353 ;; Defined at:
  3354 ;;		line 1660 in file "SysRiego.c"
  3355 ;; Parameters:    Size  Location     Type
  3356 ;;		None
  3357 ;; Auto vars:     Size  Location     Type
  3358 ;;		None
  3359 ;; Return value:  Size  Location     Type
  3360 ;;                  1    wreg      void 
  3361 ;; Registers used:
  3362 ;;		wreg, status,2
  3363 ;; Tracked objects:
  3364 ;;		On entry : 0/0
  3365 ;;		On exit  : 0/0
  3366 ;;		Unchanged: 0/0
  3367 ;; Data sizes:     COMRAM   BANK0   BANK1   BANK2   BANK3   BANK4   BANK5   BANK6   BANK7   BANK8   BANK9  BANK10  BANK1
      +1  BANK12
  3368 ;;      Params:         0       0       0       0       0       0       0       0       0       0       0       0       
      +0       0
  3369 ;;      Locals:         0       0       0       0       0       0       0       0       0       0       0       0       
      +0       0
  3370 ;;      Temps:          0       0       0       0       0       0       0       0       0       0       0       0       
      +0       0
  3371 ;;      Totals:         0       0       0       0       0       0       0       0       0       0       0       0       
      +0       0
  3372 ;;Total ram usage:        0 bytes
  3373 ;; Hardware stack levels used:    1
  3374 ;; Hardware stack levels required when called:    7
  3375 ;; This function calls:
  3376 ;;		Nothing
  3377 ;; This function is called by:
  3378 ;;		_workingAutomatic
  3379 ;; This function uses a non-reentrant model
  3380 ;;
  3381                           
  3382                           	psect	text12
  3383  002A90                     __ptext12:
  3384                           	opt stack 0
  3385  002A90                     _disableACInterrupts:
  3386                           	opt stack 22
  3387                           
  3388                           ;SysRiego.c: 1662: PORTA = 0X00;
  3389                           
  3390                           ;incstack = 0
  3391  002A90  0E00               	movlw	0
  3392  002A92  6E80               	movwf	3968,c	;volatile
  3393                           
  3394                           ;SysRiego.c: 1663: LATA = 0X00;
  3395  002A94  0E00               	movlw	0
  3396  002A96  6E89               	movwf	3977,c	;volatile
  3397                           
  3398                           ;SysRiego.c: 1664: TRISA = 0X00;
  3399  002A98  0E00               	movlw	0
  3400  002A9A  6E92               	movwf	3986,c	;volatile
  3401                           
  3402                           ;SysRiego.c: 1667: PIE1bits.ADIE = 0;
  3403  002A9C  9C9D               	bcf	3997,6,c	;volatile
  3404                           
  3405                           ;SysRiego.c: 1670: PIR1bits.ADIF = 0;
  3406  002A9E  9C9E               	bcf	3998,6,c	;volatile
  3407                           
  3408                           ;SysRiego.c: 1672: ADCON0bits.GO_DONE = 0;
  3409  002AA0  92C2               	bcf	4034,1,c	;volatile
  3410  002AA2  0012               	return		;funcret
  3411  002AA4                     __end_of_disableACInterrupts:
  3412                           	opt stack 0
  3413                           tblptru	equ	0xFF8
  3414                           tblptrh	equ	0xFF7
  3415                           tblptrl	equ	0xFF6
  3416                           tablat	equ	0xFF5
  3417                           prodh	equ	0xFF4
  3418                           prodl	equ	0xFF3
  3419                           intcon	equ	0xFF2
  3420                           intcon2	equ	0xFF1
  3421                           postinc0	equ	0xFEE
  3422                           wreg	equ	0xFE8
  3423                           indf1	equ	0xFE7
  3424                           postdec1	equ	0xFE5
  3425                           fsr1h	equ	0xFE2
  3426                           fsr1l	equ	0xFE1
  3427                           indf2	equ	0xFDF
  3428                           postinc2	equ	0xFDE
  3429                           postdec2	equ	0xFDD
  3430                           fsr2h	equ	0xFDA
  3431                           fsr2l	equ	0xFD9
  3432                           status	equ	0xFD8
  3433                           
  3434 ;; *************** function ___lwtoft *****************
  3435 ;; Defined at:
  3436 ;;		line 28 in file "/Applications/microchip/xc8/v1.36/sources/common/lwtoft.c"
  3437 ;; Parameters:    Size  Location     Type
  3438 ;;  c               2    8[BANK0 ] unsigned int 
  3439 ;; Auto vars:     Size  Location     Type
  3440 ;;		None
  3441 ;; Return value:  Size  Location     Type
  3442 ;;                  3    8[BANK0 ] float 
  3443 ;; Registers used:
  3444 ;;		wreg, status,2, status,0, cstack
  3445 ;; Tracked objects:
  3446 ;;		On entry : 0/0
  3447 ;;		On exit  : 0/0
  3448 ;;		Unchanged: 0/0
  3449 ;; Data sizes:     COMRAM   BANK0   BANK1   BANK2   BANK3   BANK4   BANK5   BANK6   BANK7   BANK8   BANK9  BANK10  BANK1
      +1  BANK12
  3450 ;;      Params:         0       3       0       0       0       0       0       0       0       0       0       0       
      +0       0
  3451 ;;      Locals:         0       0       0       0       0       0       0       0       0       0       0       0       
      +0       0
  3452 ;;      Temps:          0       0       0       0       0       0       0       0       0       0       0       0       
      +0       0
  3453 ;;      Totals:         0       3       0       0       0       0       0       0       0       0       0       0       
      +0       0
  3454 ;;Total ram usage:        3 bytes
  3455 ;; Hardware stack levels used:    1
  3456 ;; Hardware stack levels required when called:    8
  3457 ;; This function calls:
  3458 ;;		___ftpack
  3459 ;; This function is called by:
  3460 ;;		_workingAutomatic
  3461 ;; This function uses a non-reentrant model
  3462 ;;
  3463                           
  3464                           	psect	text13
  3465  00285A                     __ptext13:
  3466                           	opt stack 0
  3467  00285A                     ___lwtoft:
  3468                           	opt stack 21
  3469                           
  3470                           ;incstack = 0
  3471  00285A  C0F4  F0EC         	movff	___lwtoft@c,___ftpack@arg
  3472  00285E  C0F5  F0ED         	movff	___lwtoft@c+1,___ftpack@arg+1
  3473  002862  0100               	movlb	0	; () banked
  3474  002864  6BEE               	clrf	(___ftpack@arg+2)& (0+255),b
  3475  002866  0E8E               	movlw	142
  3476  002868  0100               	movlb	0	; () banked
  3477  00286A  6FEF               	movwf	___ftpack@exp& (0+255),b
  3478  00286C  0E00               	movlw	0
  3479  00286E  0100               	movlb	0	; () banked
  3480  002870  6FF0               	movwf	___ftpack@sign& (0+255),b
  3481  002872  ECE9  F00D         	call	___ftpack	;wreg free
  3482  002876  C0EC  F0F4         	movff	?___ftpack,?___lwtoft
  3483  00287A  C0ED  F0F5         	movff	?___ftpack+1,?___lwtoft+1
  3484  00287E  C0EE  F0F6         	movff	?___ftpack+2,?___lwtoft+2
  3485  002882  0012               	return	
  3486  002884                     __end_of___lwtoft:
  3487                           	opt stack 0
  3488                           tblptru	equ	0xFF8
  3489                           tblptrh	equ	0xFF7
  3490                           tblptrl	equ	0xFF6
  3491                           tablat	equ	0xFF5
  3492                           prodh	equ	0xFF4
  3493                           prodl	equ	0xFF3
  3494                           intcon	equ	0xFF2
  3495                           intcon2	equ	0xFF1
  3496                           postinc0	equ	0xFEE
  3497                           wreg	equ	0xFE8
  3498                           indf1	equ	0xFE7
  3499                           postdec1	equ	0xFE5
  3500                           fsr1h	equ	0xFE2
  3501                           fsr1l	equ	0xFE1
  3502                           indf2	equ	0xFDF
  3503                           postinc2	equ	0xFDE
  3504                           postdec2	equ	0xFDD
  3505                           fsr2h	equ	0xFDA
  3506                           fsr2l	equ	0xFD9
  3507                           status	equ	0xFD8
  3508                           
  3509 ;; *************** function ___lbtoft *****************
  3510 ;; Defined at:
  3511 ;;		line 27 in file "/Applications/microchip/xc8/v1.36/sources/common/lbtoft.c"
  3512 ;; Parameters:    Size  Location     Type
  3513 ;;  c               1    wreg     unsigned char 
  3514 ;; Auto vars:     Size  Location     Type
  3515 ;;  c               1   11[BANK0 ] unsigned char 
  3516 ;; Return value:  Size  Location     Type
  3517 ;;                  3    8[BANK0 ] float 
  3518 ;; Registers used:
  3519 ;;		wreg, status,2, status,0, cstack
  3520 ;; Tracked objects:
  3521 ;;		On entry : 0/0
  3522 ;;		On exit  : 0/0
  3523 ;;		Unchanged: 0/0
  3524 ;; Data sizes:     COMRAM   BANK0   BANK1   BANK2   BANK3   BANK4   BANK5   BANK6   BANK7   BANK8   BANK9  BANK10  BANK1
      +1  BANK12
  3525 ;;      Params:         0       3       0       0       0       0       0       0       0       0       0       0       
      +0       0
  3526 ;;      Locals:         0       1       0       0       0       0       0       0       0       0       0       0       
      +0       0
  3527 ;;      Temps:          0       0       0       0       0       0       0       0       0       0       0       0       
      +0       0
  3528 ;;      Totals:         0       4       0       0       0       0       0       0       0       0       0       0       
      +0       0
  3529 ;;Total ram usage:        4 bytes
  3530 ;; Hardware stack levels used:    1
  3531 ;; Hardware stack levels required when called:    8
  3532 ;; This function calls:
  3533 ;;		___ftpack
  3534 ;; This function is called by:
  3535 ;;		_workingAutomatic
  3536 ;; This function uses a non-reentrant model
  3537 ;;
  3538                           
  3539                           	psect	text14
  3540  0027D8                     __ptext14:
  3541                           	opt stack 0
  3542  0027D8                     ___lbtoft:
  3543                           	opt stack 21
  3544                           
  3545                           ;incstack = 0
  3546                           ;___lbtoft@c stored from wreg
  3547  0027D8  0100               	movlb	0	; () banked
  3548  0027DA  6FF7               	movwf	___lbtoft@c& (0+255),b
  3549  0027DC  0100               	movlb	0	; () banked
  3550  0027DE  51F7               	movf	___lbtoft@c& (0+255),w,b
  3551  0027E0  0100               	movlb	0	; () banked
  3552  0027E2  6FEC               	movwf	___ftpack@arg& (0+255),b
  3553  0027E4  6BED               	clrf	(___ftpack@arg+1)& (0+255),b
  3554  0027E6  6BEE               	clrf	(___ftpack@arg+2)& (0+255),b
  3555  0027E8  0E8E               	movlw	142
  3556  0027EA  0100               	movlb	0	; () banked
  3557  0027EC  6FEF               	movwf	___ftpack@exp& (0+255),b
  3558  0027EE  0E00               	movlw	0
  3559  0027F0  0100               	movlb	0	; () banked
  3560  0027F2  6FF0               	movwf	___ftpack@sign& (0+255),b
  3561  0027F4  ECE9  F00D         	call	___ftpack	;wreg free
  3562  0027F8  C0EC  F0F4         	movff	?___ftpack,?___lbtoft
  3563  0027FC  C0ED  F0F5         	movff	?___ftpack+1,?___lbtoft+1
  3564  002800  C0EE  F0F6         	movff	?___ftpack+2,?___lbtoft+2
  3565  002804  0012               	return	
  3566  002806                     __end_of___lbtoft:
  3567                           	opt stack 0
  3568                           tblptru	equ	0xFF8
  3569                           tblptrh	equ	0xFF7
  3570                           tblptrl	equ	0xFF6
  3571                           tablat	equ	0xFF5
  3572                           prodh	equ	0xFF4
  3573                           prodl	equ	0xFF3
  3574                           intcon	equ	0xFF2
  3575                           intcon2	equ	0xFF1
  3576                           postinc0	equ	0xFEE
  3577                           wreg	equ	0xFE8
  3578                           indf1	equ	0xFE7
  3579                           postdec1	equ	0xFE5
  3580                           fsr1h	equ	0xFE2
  3581                           fsr1l	equ	0xFE1
  3582                           indf2	equ	0xFDF
  3583                           postinc2	equ	0xFDE
  3584                           postdec2	equ	0xFDD
  3585                           fsr2h	equ	0xFDA
  3586                           fsr2l	equ	0xFD9
  3587                           status	equ	0xFD8
  3588                           
  3589 ;; *************** function ___ftmul *****************
  3590 ;; Defined at:
  3591 ;;		line 62 in file "/Applications/microchip/xc8/v1.36/sources/common/ftmul.c"
  3592 ;; Parameters:    Size  Location     Type
  3593 ;;  f1              3    0[BANK1 ] float 
  3594 ;;  f2              3    3[BANK1 ] float 
  3595 ;; Auto vars:     Size  Location     Type
  3596 ;;  f3_as_produc    3    7[BANK1 ] unsigned um
  3597 ;;  sign            1   11[BANK1 ] unsigned char 
  3598 ;;  cntr            1   10[BANK1 ] unsigned char 
  3599 ;;  exp             1    6[BANK1 ] unsigned char 
  3600 ;; Return value:  Size  Location     Type
  3601 ;;                  3    0[BANK1 ] float 
  3602 ;; Registers used:
  3603 ;;		wreg, status,2, status,0, cstack
  3604 ;; Tracked objects:
  3605 ;;		On entry : 0/0
  3606 ;;		On exit  : 0/0
  3607 ;;		Unchanged: 0/0
  3608 ;; Data sizes:     COMRAM   BANK0   BANK1   BANK2   BANK3   BANK4   BANK5   BANK6   BANK7   BANK8   BANK9  BANK10  BANK1
      +1  BANK12
  3609 ;;      Params:         0       0       6       0       0       0       0       0       0       0       0       0       
      +0       0
  3610 ;;      Locals:         0       0       6       0       0       0       0       0       0       0       0       0       
      +0       0
  3611 ;;      Temps:          0       3       0       0       0       0       0       0       0       0       0       0       
      +0       0
  3612 ;;      Totals:         0       3      12       0       0       0       0       0       0       0       0       0       
      +0       0
  3613 ;;Total ram usage:       15 bytes
  3614 ;; Hardware stack levels used:    1
  3615 ;; Hardware stack levels required when called:    8
  3616 ;; This function calls:
  3617 ;;		___ftpack
  3618 ;; This function is called by:
  3619 ;;		_workingAutomatic
  3620 ;; This function uses a non-reentrant model
  3621 ;;
  3622                           
  3623                           	psect	text15
  3624  0016C0                     __ptext15:
  3625                           	opt stack 0
  3626  0016C0                     ___ftmul:
  3627                           	opt stack 21
  3628                           
  3629                           ;incstack = 0
  3630  0016C0  C13F  F0F8         	movff	___ftmul@f1+2,??___ftmul
  3631  0016C4  0100               	movlb	0	; () banked
  3632  0016C6  6BF9               	clrf	(??___ftmul+1)& (0+255),b
  3633  0016C8  6BFA               	clrf	(??___ftmul+2)& (0+255),b
  3634  0016CA  0101               	movlb	1	; () banked
  3635  0016CC  353E               	rlcf	(___ftmul@f1+1)& (0+255),w,b
  3636  0016CE  0100               	movlb	0	; () banked
  3637  0016D0  37F8               	rlcf	??___ftmul& (0+255),f,b
  3638  0016D2  E301               	bnc	u4971
  3639  0016D4  81F9               	bsf	(??___ftmul+1)& (0+255),0,b
  3640  0016D6                     u4971:
  3641  0016D6  0100               	movlb	0	; () banked
  3642  0016D8  51F8               	movf	??___ftmul& (0+255),w,b
  3643  0016DA  0101               	movlb	1	; () banked
  3644  0016DC  6F43               	movwf	___ftmul@exp& (0+255),b
  3645  0016DE  0101               	movlb	1	; () banked
  3646  0016E0  5143               	movf	___ftmul@exp& (0+255),w,b
  3647  0016E2  A4D8               	btfss	status,2,c
  3648  0016E4  D00A               	goto	l5166
  3649                           
  3650                           ; BSR set to: 1
  3651  0016E6  0E00               	movlw	0
  3652  0016E8  0101               	movlb	1	; () banked
  3653  0016EA  6F3D               	movwf	?___ftmul& (0+255),b
  3654  0016EC  0E00               	movlw	0
  3655  0016EE  0101               	movlb	1	; () banked
  3656  0016F0  6F3E               	movwf	(?___ftmul+1)& (0+255),b
  3657  0016F2  0E00               	movlw	0
  3658  0016F4  0101               	movlb	1	; () banked
  3659  0016F6  6F3F               	movwf	(?___ftmul+2)& (0+255),b
  3660                           
  3661                           ; BSR set to: 1
  3662  0016F8  0012               	return	
  3663  0016FA                     l5166:
  3664                           
  3665                           ; BSR set to: 1
  3666  0016FA  C142  F0F8         	movff	___ftmul@f2+2,??___ftmul
  3667  0016FE  0100               	movlb	0	; () banked
  3668  001700  6BF9               	clrf	(??___ftmul+1)& (0+255),b
  3669  001702  6BFA               	clrf	(??___ftmul+2)& (0+255),b
  3670  001704  0101               	movlb	1	; () banked
  3671  001706  3541               	rlcf	(___ftmul@f2+1)& (0+255),w,b
  3672  001708  0100               	movlb	0	; () banked
  3673  00170A  37F8               	rlcf	??___ftmul& (0+255),f,b
  3674  00170C  E301               	bnc	u4991
  3675  00170E  81F9               	bsf	(??___ftmul+1)& (0+255),0,b
  3676  001710                     u4991:
  3677  001710  0100               	movlb	0	; () banked
  3678  001712  51F8               	movf	??___ftmul& (0+255),w,b
  3679  001714  0101               	movlb	1	; () banked
  3680  001716  6F48               	movwf	___ftmul@sign& (0+255),b
  3681  001718  0101               	movlb	1	; () banked
  3682  00171A  5148               	movf	___ftmul@sign& (0+255),w,b
  3683  00171C  A4D8               	btfss	status,2,c
  3684  00171E  D00A               	goto	l5172
  3685                           
  3686                           ; BSR set to: 1
  3687  001720  0E00               	movlw	0
  3688  001722  0101               	movlb	1	; () banked
  3689  001724  6F3D               	movwf	?___ftmul& (0+255),b
  3690  001726  0E00               	movlw	0
  3691  001728  0101               	movlb	1	; () banked
  3692  00172A  6F3E               	movwf	(?___ftmul+1)& (0+255),b
  3693  00172C  0E00               	movlw	0
  3694  00172E  0101               	movlb	1	; () banked
  3695  001730  6F3F               	movwf	(?___ftmul+2)& (0+255),b
  3696                           
  3697                           ; BSR set to: 1
  3698  001732  0012               	return	
  3699  001734                     l5172:
  3700                           
  3701                           ; BSR set to: 1
  3702  001734  0101               	movlb	1	; () banked
  3703  001736  5148               	movf	___ftmul@sign& (0+255),w,b
  3704  001738  0F7B               	addlw	123
  3705  00173A  0101               	movlb	1	; () banked
  3706  00173C  2743               	addwf	___ftmul@exp& (0+255),f,b
  3707                           
  3708                           ; BSR set to: 1
  3709  00173E  C13F  F148         	movff	___ftmul@f1+2,___ftmul@sign
  3710  001742  0101               	movlb	1	; () banked
  3711  001744  5142               	movf	(___ftmul@f2+2)& (0+255),w,b
  3712  001746  0101               	movlb	1	; () banked
  3713  001748  1B48               	xorwf	___ftmul@sign& (0+255),f,b
  3714  00174A  0E80               	movlw	128
  3715  00174C  0101               	movlb	1	; () banked
  3716  00174E  1748               	andwf	___ftmul@sign& (0+255),f,b
  3717                           
  3718                           ; BSR set to: 1
  3719  001750  0101               	movlb	1	; () banked
  3720  001752  8F3E               	bsf	(___ftmul@f1+1)& (0+255),7,b
  3721                           
  3722                           ; BSR set to: 1
  3723  001754  0101               	movlb	1	; () banked
  3724  001756  8F41               	bsf	(___ftmul@f2+1)& (0+255),7,b
  3725                           
  3726                           ; BSR set to: 1
  3727  001758  0EFF               	movlw	255
  3728  00175A  0101               	movlb	1	; () banked
  3729  00175C  1740               	andwf	___ftmul@f2& (0+255),f,b
  3730  00175E  0EFF               	movlw	255
  3731  001760  0101               	movlb	1	; () banked
  3732  001762  1741               	andwf	(___ftmul@f2+1)& (0+255),f,b
  3733  001764  0E00               	movlw	0
  3734  001766  0101               	movlb	1	; () banked
  3735  001768  1742               	andwf	(___ftmul@f2+2)& (0+255),f,b
  3736                           
  3737                           ; BSR set to: 1
  3738  00176A  0E00               	movlw	0
  3739  00176C  0101               	movlb	1	; () banked
  3740  00176E  6F44               	movwf	___ftmul@f3_as_product& (0+255),b
  3741  001770  0E00               	movlw	0
  3742  001772  0101               	movlb	1	; () banked
  3743  001774  6F45               	movwf	(___ftmul@f3_as_product+1)& (0+255),b
  3744  001776  0E00               	movlw	0
  3745  001778  0101               	movlb	1	; () banked
  3746  00177A  6F46               	movwf	(___ftmul@f3_as_product+2)& (0+255),b
  3747                           
  3748                           ; BSR set to: 1
  3749  00177C  0E07               	movlw	7
  3750  00177E  0101               	movlb	1	; () banked
  3751  001780  6F47               	movwf	___ftmul@cntr& (0+255),b
  3752  001782                     l5186:
  3753                           
  3754                           ; BSR set to: 1
  3755  001782  0101               	movlb	1	; () banked
  3756  001784  A13D               	btfss	___ftmul@f1& (0+255),0,b
  3757  001786  D00C               	goto	l5190
  3758                           
  3759                           ; BSR set to: 1
  3760  001788  0101               	movlb	1	; () banked
  3761  00178A  5140               	movf	___ftmul@f2& (0+255),w,b
  3762  00178C  0101               	movlb	1	; () banked
  3763  00178E  2744               	addwf	___ftmul@f3_as_product& (0+255),f,b
  3764  001790  0101               	movlb	1	; () banked
  3765  001792  5141               	movf	(___ftmul@f2+1)& (0+255),w,b
  3766  001794  0101               	movlb	1	; () banked
  3767  001796  2345               	addwfc	(___ftmul@f3_as_product+1)& (0+255),f,b
  3768  001798  0101               	movlb	1	; () banked
  3769  00179A  5142               	movf	(___ftmul@f2+2)& (0+255),w,b
  3770  00179C  0101               	movlb	1	; () banked
  3771  00179E  2346               	addwfc	(___ftmul@f3_as_product+2)& (0+255),f,b
  3772  0017A0                     l5190:
  3773                           
  3774                           ; BSR set to: 1
  3775  0017A0  0101               	movlb	1	; () banked
  3776  0017A2  90D8               	bcf	status,0,c
  3777  0017A4  333F               	rrcf	(___ftmul@f1+2)& (0+255),f,b
  3778  0017A6  333E               	rrcf	(___ftmul@f1+1)& (0+255),f,b
  3779  0017A8  333D               	rrcf	___ftmul@f1& (0+255),f,b
  3780  0017AA  0101               	movlb	1	; () banked
  3781  0017AC  90D8               	bcf	status,0,c
  3782  0017AE  3740               	rlcf	___ftmul@f2& (0+255),f,b
  3783  0017B0  3741               	rlcf	(___ftmul@f2+1)& (0+255),f,b
  3784  0017B2  3742               	rlcf	(___ftmul@f2+2)& (0+255),f,b
  3785                           
  3786                           ; BSR set to: 1
  3787  0017B4  0101               	movlb	1	; () banked
  3788  0017B6  2F47               	decfsz	___ftmul@cntr& (0+255),f,b
  3789  0017B8  D7E4               	goto	l5186
  3790                           
  3791                           ; BSR set to: 1
  3792                           
  3793                           ; BSR set to: 1
  3794  0017BA  0E09               	movlw	9
  3795  0017BC  0101               	movlb	1	; () banked
  3796  0017BE  6F47               	movwf	___ftmul@cntr& (0+255),b
  3797  0017C0                     l5196:
  3798                           
  3799                           ; BSR set to: 1
  3800  0017C0  0101               	movlb	1	; () banked
  3801  0017C2  A13D               	btfss	___ftmul@f1& (0+255),0,b
  3802  0017C4  D00C               	goto	l5200
  3803                           
  3804                           ; BSR set to: 1
  3805  0017C6  0101               	movlb	1	; () banked
  3806  0017C8  5140               	movf	___ftmul@f2& (0+255),w,b
  3807  0017CA  0101               	movlb	1	; () banked
  3808  0017CC  2744               	addwf	___ftmul@f3_as_product& (0+255),f,b
  3809  0017CE  0101               	movlb	1	; () banked
  3810  0017D0  5141               	movf	(___ftmul@f2+1)& (0+255),w,b
  3811  0017D2  0101               	movlb	1	; () banked
  3812  0017D4  2345               	addwfc	(___ftmul@f3_as_product+1)& (0+255),f,b
  3813  0017D6  0101               	movlb	1	; () banked
  3814  0017D8  5142               	movf	(___ftmul@f2+2)& (0+255),w,b
  3815  0017DA  0101               	movlb	1	; () banked
  3816  0017DC  2346               	addwfc	(___ftmul@f3_as_product+2)& (0+255),f,b
  3817  0017DE                     l5200:
  3818                           
  3819                           ; BSR set to: 1
  3820  0017DE  0101               	movlb	1	; () banked
  3821  0017E0  90D8               	bcf	status,0,c
  3822  0017E2  333F               	rrcf	(___ftmul@f1+2)& (0+255),f,b
  3823  0017E4  333E               	rrcf	(___ftmul@f1+1)& (0+255),f,b
  3824  0017E6  333D               	rrcf	___ftmul@f1& (0+255),f,b
  3825  0017E8  0101               	movlb	1	; () banked
  3826  0017EA  90D8               	bcf	status,0,c
  3827  0017EC  3346               	rrcf	(___ftmul@f3_as_product+2)& (0+255),f,b
  3828  0017EE  3345               	rrcf	(___ftmul@f3_as_product+1)& (0+255),f,b
  3829  0017F0  3344               	rrcf	___ftmul@f3_as_product& (0+255),f,b
  3830                           
  3831                           ; BSR set to: 1
  3832  0017F2  0101               	movlb	1	; () banked
  3833  0017F4  2F47               	decfsz	___ftmul@cntr& (0+255),f,b
  3834  0017F6  D7E4               	goto	l5196
  3835                           
  3836                           ; BSR set to: 1
  3837                           
  3838                           ; BSR set to: 1
  3839  0017F8  C144  F0EC         	movff	___ftmul@f3_as_product,___ftpack@arg
  3840  0017FC  C145  F0ED         	movff	___ftmul@f3_as_product+1,___ftpack@arg+1
  3841  001800  C146  F0EE         	movff	___ftmul@f3_as_product+2,___ftpack@arg+2
  3842  001804  C143  F0EF         	movff	___ftmul@exp,___ftpack@exp
  3843  001808  C148  F0F0         	movff	___ftmul@sign,___ftpack@sign
  3844  00180C  ECE9  F00D         	call	___ftpack	;wreg free
  3845  001810  C0EC  F13D         	movff	?___ftpack,?___ftmul
  3846  001814  C0ED  F13E         	movff	?___ftpack+1,?___ftmul+1
  3847  001818  C0EE  F13F         	movff	?___ftpack+2,?___ftmul+2
  3848  00181C  0012               	return	
  3849  00181E                     __end_of___ftmul:
  3850                           	opt stack 0
  3851                           tblptru	equ	0xFF8
  3852                           tblptrh	equ	0xFF7
  3853                           tblptrl	equ	0xFF6
  3854                           tablat	equ	0xFF5
  3855                           prodh	equ	0xFF4
  3856                           prodl	equ	0xFF3
  3857                           intcon	equ	0xFF2
  3858                           intcon2	equ	0xFF1
  3859                           postinc0	equ	0xFEE
  3860                           wreg	equ	0xFE8
  3861                           indf1	equ	0xFE7
  3862                           postdec1	equ	0xFE5
  3863                           fsr1h	equ	0xFE2
  3864                           fsr1l	equ	0xFE1
  3865                           indf2	equ	0xFDF
  3866                           postinc2	equ	0xFDE
  3867                           postdec2	equ	0xFDD
  3868                           fsr2h	equ	0xFDA
  3869                           fsr2l	equ	0xFD9
  3870                           status	equ	0xFD8
  3871                           
  3872 ;; *************** function ___ftpack *****************
  3873 ;; Defined at:
  3874 ;;		line 62 in file "/Applications/microchip/xc8/v1.36/sources/common/float.c"
  3875 ;; Parameters:    Size  Location     Type
  3876 ;;  arg             3    0[BANK0 ] unsigned um
  3877 ;;  exp             1    3[BANK0 ] unsigned char 
  3878 ;;  sign            1    4[BANK0 ] unsigned char 
  3879 ;; Auto vars:     Size  Location     Type
  3880 ;;		None
  3881 ;; Return value:  Size  Location     Type
  3882 ;;                  3    0[BANK0 ] float 
  3883 ;; Registers used:
  3884 ;;		wreg, status,2, status,0
  3885 ;; Tracked objects:
  3886 ;;		On entry : 0/0
  3887 ;;		On exit  : 0/0
  3888 ;;		Unchanged: 0/0
  3889 ;; Data sizes:     COMRAM   BANK0   BANK1   BANK2   BANK3   BANK4   BANK5   BANK6   BANK7   BANK8   BANK9  BANK10  BANK1
      +1  BANK12
  3890 ;;      Params:         0       5       0       0       0       0       0       0       0       0       0       0       
      +0       0
  3891 ;;      Locals:         0       0       0       0       0       0       0       0       0       0       0       0       
      +0       0
  3892 ;;      Temps:          0       3       0       0       0       0       0       0       0       0       0       0       
      +0       0
  3893 ;;      Totals:         0       8       0       0       0       0       0       0       0       0       0       0       
      +0       0
  3894 ;;Total ram usage:        8 bytes
  3895 ;; Hardware stack levels used:    1
  3896 ;; Hardware stack levels required when called:    7
  3897 ;; This function calls:
  3898 ;;		Nothing
  3899 ;; This function is called by:
  3900 ;;		___ftmul
  3901 ;;		___lbtoft
  3902 ;;		___lwtoft
  3903 ;; This function uses a non-reentrant model
  3904 ;;
  3905                           
  3906                           	psect	text16
  3907  001BD2                     __ptext16:
  3908                           	opt stack 0
  3909  001BD2                     ___ftpack:
  3910                           	opt stack 21
  3911                           
  3912                           ;incstack = 0
  3913  001BD2  0100               	movlb	0	; () banked
  3914  001BD4  51EF               	movf	___ftpack@exp& (0+255),w,b
  3915  001BD6  0100               	movlb	0	; () banked
  3916  001BD8  B4D8               	btfsc	status,2,c
  3917  001BDA  D008               	goto	l4900
  3918                           
  3919                           ; BSR set to: 0
  3920  001BDC  0100               	movlb	0	; () banked
  3921  001BDE  51EC               	movf	___ftpack@arg& (0+255),w,b
  3922  001BE0  0100               	movlb	0	; () banked
  3923  001BE2  11ED               	iorwf	(___ftpack@arg+1)& (0+255),w,b
  3924  001BE4  0100               	movlb	0	; () banked
  3925  001BE6  11EE               	iorwf	(___ftpack@arg+2)& (0+255),w,b
  3926  001BE8  A4D8               	btfss	status,2,c
  3927  001BEA  D011               	goto	l4906
  3928  001BEC                     l4900:
  3929                           
  3930                           ; BSR set to: 0
  3931  001BEC  0E00               	movlw	0
  3932  001BEE  0100               	movlb	0	; () banked
  3933  001BF0  6FEC               	movwf	?___ftpack& (0+255),b
  3934  001BF2  0E00               	movlw	0
  3935  001BF4  0100               	movlb	0	; () banked
  3936  001BF6  6FED               	movwf	(?___ftpack+1)& (0+255),b
  3937  001BF8  0E00               	movlw	0
  3938  001BFA  0100               	movlb	0	; () banked
  3939  001BFC  6FEE               	movwf	(?___ftpack+2)& (0+255),b
  3940                           
  3941                           ; BSR set to: 0
  3942  001BFE  0012               	return	
  3943  001C00                     l4904:
  3944                           
  3945                           ; BSR set to: 0
  3946  001C00  0100               	movlb	0	; () banked
  3947  001C02  2BEF               	incf	___ftpack@exp& (0+255),f,b
  3948  001C04  0100               	movlb	0	; () banked
  3949  001C06  90D8               	bcf	status,0,c
  3950  001C08  33EE               	rrcf	(___ftpack@arg+2)& (0+255),f,b
  3951  001C0A  33ED               	rrcf	(___ftpack@arg+1)& (0+255),f,b
  3952  001C0C  33EC               	rrcf	___ftpack@arg& (0+255),f,b
  3953  001C0E                     l4906:
  3954                           
  3955                           ; BSR set to: 0
  3956  001C0E  0E00               	movlw	0
  3957  001C10  0100               	movlb	0	; () banked
  3958  001C12  15EC               	andwf	___ftpack@arg& (0+255),w,b
  3959  001C14  0100               	movlb	0	; () banked
  3960  001C16  6FF1               	movwf	??___ftpack& (0+255),b
  3961  001C18  0E00               	movlw	0
  3962  001C1A  0100               	movlb	0	; () banked
  3963  001C1C  15ED               	andwf	(___ftpack@arg+1)& (0+255),w,b
  3964  001C1E  0100               	movlb	0	; () banked
  3965  001C20  6FF2               	movwf	(??___ftpack+1)& (0+255),b
  3966  001C22  0EFE               	movlw	254
  3967  001C24  0100               	movlb	0	; () banked
  3968  001C26  15EE               	andwf	(___ftpack@arg+2)& (0+255),w,b
  3969  001C28  0100               	movlb	0	; () banked
  3970  001C2A  6FF3               	movwf	(??___ftpack+2)& (0+255),b
  3971  001C2C  0100               	movlb	0	; () banked
  3972  001C2E  51F1               	movf	??___ftpack& (0+255),w,b
  3973  001C30  0100               	movlb	0	; () banked
  3974  001C32  11F2               	iorwf	(??___ftpack+1)& (0+255),w,b
  3975  001C34  0100               	movlb	0	; () banked
  3976  001C36  11F3               	iorwf	(??___ftpack+2)& (0+255),w,b
  3977  001C38  B4D8               	btfsc	status,2,c
  3978  001C3A  D011               	goto	l4912
  3979  001C3C  D7E1               	goto	l4904
  3980  001C3E                     l4908:
  3981                           
  3982                           ; BSR set to: 0
  3983  001C3E  0100               	movlb	0	; () banked
  3984  001C40  2BEF               	incf	___ftpack@exp& (0+255),f,b
  3985                           
  3986                           ; BSR set to: 0
  3987  001C42  0E01               	movlw	1
  3988  001C44  0100               	movlb	0	; () banked
  3989  001C46  27EC               	addwf	___ftpack@arg& (0+255),f,b
  3990  001C48  0E00               	movlw	0
  3991  001C4A  0100               	movlb	0	; () banked
  3992  001C4C  23ED               	addwfc	(___ftpack@arg+1)& (0+255),f,b
  3993  001C4E  0E00               	movlw	0
  3994  001C50  0100               	movlb	0	; () banked
  3995  001C52  23EE               	addwfc	(___ftpack@arg+2)& (0+255),f,b
  3996  001C54  0100               	movlb	0	; () banked
  3997  001C56  90D8               	bcf	status,0,c
  3998  001C58  33EE               	rrcf	(___ftpack@arg+2)& (0+255),f,b
  3999  001C5A  33ED               	rrcf	(___ftpack@arg+1)& (0+255),f,b
  4000  001C5C  33EC               	rrcf	___ftpack@arg& (0+255),f,b
  4001  001C5E                     l4912:
  4002                           
  4003                           ; BSR set to: 0
  4004  001C5E  0E00               	movlw	0
  4005  001C60  0100               	movlb	0	; () banked
  4006  001C62  15EC               	andwf	___ftpack@arg& (0+255),w,b
  4007  001C64  0100               	movlb	0	; () banked
  4008  001C66  6FF1               	movwf	??___ftpack& (0+255),b
  4009  001C68  0E00               	movlw	0
  4010  001C6A  0100               	movlb	0	; () banked
  4011  001C6C  15ED               	andwf	(___ftpack@arg+1)& (0+255),w,b
  4012  001C6E  0100               	movlb	0	; () banked
  4013  001C70  6FF2               	movwf	(??___ftpack+1)& (0+255),b
  4014  001C72  0EFF               	movlw	255
  4015  001C74  0100               	movlb	0	; () banked
  4016  001C76  15EE               	andwf	(___ftpack@arg+2)& (0+255),w,b
  4017  001C78  0100               	movlb	0	; () banked
  4018  001C7A  6FF3               	movwf	(??___ftpack+2)& (0+255),b
  4019  001C7C  0100               	movlb	0	; () banked
  4020  001C7E  51F1               	movf	??___ftpack& (0+255),w,b
  4021  001C80  0100               	movlb	0	; () banked
  4022  001C82  11F2               	iorwf	(??___ftpack+1)& (0+255),w,b
  4023  001C84  0100               	movlb	0	; () banked
  4024  001C86  11F3               	iorwf	(??___ftpack+2)& (0+255),w,b
  4025  001C88  B4D8               	btfsc	status,2,c
  4026  001C8A  D008               	goto	l4916
  4027  001C8C  D7D8               	goto	l4908
  4028  001C8E                     l4914:
  4029                           
  4030                           ; BSR set to: 0
  4031  001C8E  0100               	movlb	0	; () banked
  4032  001C90  07EF               	decf	___ftpack@exp& (0+255),f,b
  4033  001C92  0100               	movlb	0	; () banked
  4034  001C94  90D8               	bcf	status,0,c
  4035  001C96  37EC               	rlcf	___ftpack@arg& (0+255),f,b
  4036  001C98  37ED               	rlcf	(___ftpack@arg+1)& (0+255),f,b
  4037  001C9A  37EE               	rlcf	(___ftpack@arg+2)& (0+255),f,b
  4038  001C9C                     l4916:
  4039                           
  4040                           ; BSR set to: 0
  4041  001C9C  0100               	movlb	0	; () banked
  4042  001C9E  BFED               	btfsc	(___ftpack@arg+1)& (0+255),7,b
  4043  001CA0  D004               	goto	l939
  4044                           
  4045                           ; BSR set to: 0
  4046  001CA2  0E02               	movlw	2
  4047  001CA4  0100               	movlb	0	; () banked
  4048  001CA6  61EF               	cpfslt	___ftpack@exp& (0+255),b
  4049  001CA8  D7F2               	goto	l4914
  4050  001CAA                     l939:
  4051                           
  4052                           ; BSR set to: 0
  4053  001CAA  0100               	movlb	0	; () banked
  4054  001CAC  B1EF               	btfsc	___ftpack@exp& (0+255),0,b
  4055  001CAE  D002               	goto	l4922
  4056                           
  4057                           ; BSR set to: 0
  4058  001CB0  0100               	movlb	0	; () banked
  4059  001CB2  9FED               	bcf	(___ftpack@arg+1)& (0+255),7,b
  4060  001CB4                     l4922:
  4061                           
  4062                           ; BSR set to: 0
  4063  001CB4  0100               	movlb	0	; () banked
  4064  001CB6  90D8               	bcf	status,0,c
  4065  001CB8  33EF               	rrcf	___ftpack@exp& (0+255),f,b
  4066  001CBA  0100               	movlb	0	; () banked
  4067  001CBC  51EF               	movf	___ftpack@exp& (0+255),w,b
  4068  001CBE  0100               	movlb	0	; () banked
  4069  001CC0  13EE               	iorwf	(___ftpack@arg+2)& (0+255),f,b
  4070                           
  4071                           ; BSR set to: 0
  4072  001CC2  0100               	movlb	0	; () banked
  4073  001CC4  51F0               	movf	___ftpack@sign& (0+255),w,b
  4074  001CC6  0100               	movlb	0	; () banked
  4075  001CC8  B4D8               	btfsc	status,2,c
  4076  001CCA  D002               	goto	l4928
  4077                           
  4078                           ; BSR set to: 0
  4079  001CCC  0100               	movlb	0	; () banked
  4080  001CCE  8FEE               	bsf	(___ftpack@arg+2)& (0+255),7,b
  4081  001CD0                     l4928:
  4082                           
  4083                           ; BSR set to: 0
  4084  001CD0  C0EC  F0EC         	movff	___ftpack@arg,?___ftpack
  4085  001CD4  C0ED  F0ED         	movff	___ftpack@arg+1,?___ftpack+1
  4086  001CD8  C0EE  F0EE         	movff	___ftpack@arg+2,?___ftpack+2
  4087  001CDC  0012               	return	
  4088  001CDE                     __end_of___ftpack:
  4089                           	opt stack 0
  4090                           tblptru	equ	0xFF8
  4091                           tblptrh	equ	0xFF7
  4092                           tblptrl	equ	0xFF6
  4093                           tablat	equ	0xFF5
  4094                           prodh	equ	0xFF4
  4095                           prodl	equ	0xFF3
  4096                           intcon	equ	0xFF2
  4097                           intcon2	equ	0xFF1
  4098                           postinc0	equ	0xFEE
  4099                           wreg	equ	0xFE8
  4100                           indf1	equ	0xFE7
  4101                           postdec1	equ	0xFE5
  4102                           fsr1h	equ	0xFE2
  4103                           fsr1l	equ	0xFE1
  4104                           indf2	equ	0xFDF
  4105                           postinc2	equ	0xFDE
  4106                           postdec2	equ	0xFDD
  4107                           fsr2h	equ	0xFDA
  4108                           fsr2l	equ	0xFD9
  4109                           status	equ	0xFD8
  4110                           
  4111 ;; *************** function ___ftge *****************
  4112 ;; Defined at:
  4113 ;;		line 4 in file "/Applications/microchip/xc8/v1.36/sources/common/ftge.c"
  4114 ;; Parameters:    Size  Location     Type
  4115 ;;  ff1             3   12[BANK1 ] float 
  4116 ;;  ff2             3   15[BANK1 ] float 
  4117 ;; Auto vars:     Size  Location     Type
  4118 ;;		None
  4119 ;; Return value:  Size  Location     Type
  4120 ;;		None               void
  4121 ;; Registers used:
  4122 ;;		wreg, status,2, status,0
  4123 ;; Tracked objects:
  4124 ;;		On entry : 0/0
  4125 ;;		On exit  : 0/0
  4126 ;;		Unchanged: 0/0
  4127 ;; Data sizes:     COMRAM   BANK0   BANK1   BANK2   BANK3   BANK4   BANK5   BANK6   BANK7   BANK8   BANK9  BANK10  BANK1
      +1  BANK12
  4128 ;;      Params:         0       0       6       0       0       0       0       0       0       0       0       0       
      +0       0
  4129 ;;      Locals:         0       0       0       0       0       0       0       0       0       0       0       0       
      +0       0
  4130 ;;      Temps:          0       0       3       0       0       0       0       0       0       0       0       0       
      +0       0
  4131 ;;      Totals:         0       0       9       0       0       0       0       0       0       0       0       0       
      +0       0
  4132 ;;Total ram usage:        9 bytes
  4133 ;; Hardware stack levels used:    1
  4134 ;; Hardware stack levels required when called:    7
  4135 ;; This function calls:
  4136 ;;		Nothing
  4137 ;; This function is called by:
  4138 ;;		_workingAutomatic
  4139 ;; This function uses a non-reentrant model
  4140 ;;
  4141                           
  4142                           	psect	text17
  4143  00221A                     __ptext17:
  4144                           	opt stack 0
  4145  00221A                     ___ftge:
  4146                           	opt stack 22
  4147                           
  4148                           ; BSR set to: 0
  4149                           ;incstack = 0
  4150  00221A  0101               	movlb	1	; () banked
  4151  00221C  AF4B               	btfss	(___ftge@ff1+2)& (0+255),7,b
  4152  00221E  D01D               	goto	l5212
  4153                           
  4154                           ; BSR set to: 1
  4155  002220  C149  F14F         	movff	___ftge@ff1,??___ftge
  4156  002224  C14A  F150         	movff	___ftge@ff1+1,??___ftge+1
  4157  002228  C14B  F151         	movff	___ftge@ff1+2,??___ftge+2
  4158  00222C  0101               	movlb	1	; () banked
  4159  00222E  1F4F               	comf	??___ftge& (0+255),f,b
  4160  002230  1F50               	comf	(??___ftge+1)& (0+255),f,b
  4161  002232  1F51               	comf	(??___ftge+2)& (0+255),f,b
  4162  002234  2B4F               	incf	??___ftge& (0+255),f,b
  4163  002236  0E00               	movlw	0
  4164  002238  2350               	addwfc	(??___ftge+1)& (0+255),f,b
  4165  00223A  2351               	addwfc	(??___ftge+2)& (0+255),f,b
  4166  00223C  0E00               	movlw	0
  4167  00223E  0101               	movlb	1	; () banked
  4168  002240  254F               	addwf	??___ftge& (0+255),w,b
  4169  002242  0101               	movlb	1	; () banked
  4170  002244  6F49               	movwf	___ftge@ff1& (0+255),b
  4171  002246  0E00               	movlw	0
  4172  002248  0101               	movlb	1	; () banked
  4173  00224A  2150               	addwfc	(??___ftge+1)& (0+255),w,b
  4174  00224C  0101               	movlb	1	; () banked
  4175  00224E  6F4A               	movwf	(___ftge@ff1+1)& (0+255),b
  4176  002250  0E80               	movlw	128
  4177  002252  0101               	movlb	1	; () banked
  4178  002254  2151               	addwfc	(??___ftge+2)& (0+255),w,b
  4179  002256  0101               	movlb	1	; () banked
  4180  002258  6F4B               	movwf	(___ftge@ff1+2)& (0+255),b
  4181  00225A                     l5212:
  4182                           
  4183                           ; BSR set to: 1
  4184  00225A  0101               	movlb	1	; () banked
  4185  00225C  AF4E               	btfss	(___ftge@ff2+2)& (0+255),7,b
  4186  00225E  D01D               	goto	l5216
  4187                           
  4188                           ; BSR set to: 1
  4189  002260  C14C  F14F         	movff	___ftge@ff2,??___ftge
  4190  002264  C14D  F150         	movff	___ftge@ff2+1,??___ftge+1
  4191  002268  C14E  F151         	movff	___ftge@ff2+2,??___ftge+2
  4192  00226C  0101               	movlb	1	; () banked
  4193  00226E  1F4F               	comf	??___ftge& (0+255),f,b
  4194  002270  1F50               	comf	(??___ftge+1)& (0+255),f,b
  4195  002272  1F51               	comf	(??___ftge+2)& (0+255),f,b
  4196  002274  2B4F               	incf	??___ftge& (0+255),f,b
  4197  002276  0E00               	movlw	0
  4198  002278  2350               	addwfc	(??___ftge+1)& (0+255),f,b
  4199  00227A  2351               	addwfc	(??___ftge+2)& (0+255),f,b
  4200  00227C  0E00               	movlw	0
  4201  00227E  0101               	movlb	1	; () banked
  4202  002280  254F               	addwf	??___ftge& (0+255),w,b
  4203  002282  0101               	movlb	1	; () banked
  4204  002284  6F4C               	movwf	___ftge@ff2& (0+255),b
  4205  002286  0E00               	movlw	0
  4206  002288  0101               	movlb	1	; () banked
  4207  00228A  2150               	addwfc	(??___ftge+1)& (0+255),w,b
  4208  00228C  0101               	movlb	1	; () banked
  4209  00228E  6F4D               	movwf	(___ftge@ff2+1)& (0+255),b
  4210  002290  0E80               	movlw	128
  4211  002292  0101               	movlb	1	; () banked
  4212  002294  2151               	addwfc	(??___ftge+2)& (0+255),w,b
  4213  002296  0101               	movlb	1	; () banked
  4214  002298  6F4E               	movwf	(___ftge@ff2+2)& (0+255),b
  4215  00229A                     l5216:
  4216                           
  4217                           ; BSR set to: 1
  4218  00229A  0E00               	movlw	0
  4219  00229C  0101               	movlb	1	; () banked
  4220  00229E  1B49               	xorwf	___ftge@ff1& (0+255),f,b
  4221  0022A0  0E00               	movlw	0
  4222  0022A2  0101               	movlb	1	; () banked
  4223  0022A4  1B4A               	xorwf	(___ftge@ff1+1)& (0+255),f,b
  4224  0022A6  0E80               	movlw	128
  4225  0022A8  0101               	movlb	1	; () banked
  4226  0022AA  1B4B               	xorwf	(___ftge@ff1+2)& (0+255),f,b
  4227                           
  4228                           ; BSR set to: 1
  4229  0022AC  0E00               	movlw	0
  4230  0022AE  0101               	movlb	1	; () banked
  4231  0022B0  1B4C               	xorwf	___ftge@ff2& (0+255),f,b
  4232  0022B2  0E00               	movlw	0
  4233  0022B4  0101               	movlb	1	; () banked
  4234  0022B6  1B4D               	xorwf	(___ftge@ff2+1)& (0+255),f,b
  4235  0022B8  0E80               	movlw	128
  4236  0022BA  0101               	movlb	1	; () banked
  4237  0022BC  1B4E               	xorwf	(___ftge@ff2+2)& (0+255),f,b
  4238  0022BE  0101               	movlb	1	; () banked
  4239  0022C0  514C               	movf	___ftge@ff2& (0+255),w,b
  4240  0022C2  0101               	movlb	1	; () banked
  4241  0022C4  5D49               	subwf	___ftge@ff1& (0+255),w,b
  4242  0022C6  0101               	movlb	1	; () banked
  4243  0022C8  514D               	movf	(___ftge@ff2+1)& (0+255),w,b
  4244  0022CA  0101               	movlb	1	; () banked
  4245  0022CC  594A               	subwfb	(___ftge@ff1+1)& (0+255),w,b
  4246  0022CE  0101               	movlb	1	; () banked
  4247  0022D0  514E               	movf	(___ftge@ff2+2)& (0+255),w,b
  4248  0022D2  0101               	movlb	1	; () banked
  4249  0022D4  594B               	subwfb	(___ftge@ff1+2)& (0+255),w,b
  4250  0022D6  B0D8               	btfsc	status,0,c
  4251  0022D8  D002               	goto	l5222
  4252                           
  4253                           ; BSR set to: 1
  4254  0022DA  90D8               	bcf	status,0,c
  4255  0022DC  0012               	return	
  4256  0022DE                     l5222:
  4257                           
  4258                           ; BSR set to: 1
  4259  0022DE  80D8               	bsf	status,0,c
  4260                           
  4261                           ; BSR set to: 1
  4262  0022E0  0012               	return	
  4263  0022E2                     __end_of___ftge:
  4264                           	opt stack 0
  4265                           tblptru	equ	0xFF8
  4266                           tblptrh	equ	0xFF7
  4267                           tblptrl	equ	0xFF6
  4268                           tablat	equ	0xFF5
  4269                           prodh	equ	0xFF4
  4270                           prodl	equ	0xFF3
  4271                           intcon	equ	0xFF2
  4272                           intcon2	equ	0xFF1
  4273                           postinc0	equ	0xFEE
  4274                           wreg	equ	0xFE8
  4275                           indf1	equ	0xFE7
  4276                           postdec1	equ	0xFE5
  4277                           fsr1h	equ	0xFE2
  4278                           fsr1l	equ	0xFE1
  4279                           indf2	equ	0xFDF
  4280                           postinc2	equ	0xFDE
  4281                           postdec2	equ	0xFDD
  4282                           fsr2h	equ	0xFDA
  4283                           fsr2l	equ	0xFD9
  4284                           status	equ	0xFD8
  4285                           
  4286 ;; *************** function _timerConfiguration *****************
  4287 ;; Defined at:
  4288 ;;		line 569 in file "SysRiego.c"
  4289 ;; Parameters:    Size  Location     Type
  4290 ;;		None
  4291 ;; Auto vars:     Size  Location     Type
  4292 ;;  zoneTime        2    9[BANK1 ] PTR unsigned char 
  4293 ;;		 -> time3Zn3(5), time2Zn3(5), time1Zn3(5), time3Zn2(5), 
  4294 ;;		 -> time2Zn2(5), time1Zn2(5), time3Zn1(5), time2Zn1(5), 
  4295 ;;		 -> time1Zn1(5), 
  4296 ;;  counter         1    5[BANK1 ] unsigned char 
  4297 ;;  i               1   11[BANK1 ] unsigned char 
  4298 ;;  newHour         5    0[BANK1 ] unsigned char [5]
  4299 ;;  counter         1    7[BANK1 ] unsigned char 
  4300 ;;  numberIrriga    1    8[BANK1 ] unsigned char 
  4301 ;;  counter         1    6[BANK1 ] unsigned char 
  4302 ;;  input           1   12[BANK1 ] unsigned char 
  4303 ;; Return value:  Size  Location     Type
  4304 ;;                  1    wreg      void 
  4305 ;; Registers used:
  4306 ;;		wreg, fsr0l, fsr0h, fsr1l, fsr1h, fsr2l, fsr2h, status,2, status,0, tblptrl, tblptrh, tblptru, prodl, prodh, cstack
  4307 ;; Tracked objects:
  4308 ;;		On entry : 0/0
  4309 ;;		On exit  : 0/0
  4310 ;;		Unchanged: 0/0
  4311 ;; Data sizes:     COMRAM   BANK0   BANK1   BANK2   BANK3   BANK4   BANK5   BANK6   BANK7   BANK8   BANK9  BANK10  BANK1
      +1  BANK12
  4312 ;;      Params:         0       0       0       0       0       0       0       0       0       0       0       0       
      +0       0
  4313 ;;      Locals:         0       0      13       0       0       0       0       0       0       0       0       0       
      +0       0
  4314 ;;      Temps:          0       2       0       0       0       0       0       0       0       0       0       0       
      +0       0
  4315 ;;      Totals:         0       2      13       0       0       0       0       0       0       0       0       0       
      +0       0
  4316 ;;Total ram usage:       15 bytes
  4317 ;; Hardware stack levels used:    1
  4318 ;; Hardware stack levels required when called:   12
  4319 ;; This function calls:
  4320 ;;		___awmod
  4321 ;;		_clearDisplay
  4322 ;;		_clearUnConfigTimes
  4323 ;;		_disableIntRBIE
  4324 ;;		_displayCharOnLCD
  4325 ;;		_displayLineOnLCD
  4326 ;;		_enableIntRBIE
  4327 ;;		_getInput
  4328 ;;		_secondLine
  4329 ;; This function is called by:
  4330 ;;		_main
  4331 ;; This function uses a non-reentrant model
  4332 ;;
  4333                           
  4334                           	psect	text18
  4335  000D3A                     __ptext18:
  4336                           	opt stack 0
  4337  000D3A                     _timerConfiguration:
  4338                           	opt stack 18
  4339                           
  4340                           ;SysRiego.c: 571: disableIntRBIE();
  4341                           
  4342                           ; BSR set to: 1
  4343                           ;incstack = 0
  4344  000D3A  EC7B  F015         	call	_disableIntRBIE	;wreg free
  4345                           
  4346                           ;SysRiego.c: 573: unsigned char input = ' ';
  4347  000D3E  0E20               	movlw	32
  4348  000D40  0101               	movlb	1	; () banked
  4349  000D42  6F49               	movwf	timerConfiguration@input& (0+255),b
  4350                           
  4351                           ; BSR set to: 1
  4352                           ;SysRiego.c: 575: clearDisplay();
  4353  000D44  EC64  F015         	call	_clearDisplay	;wreg free
  4354                           
  4355                           ;SysRiego.c: 577: if (hourConfiguration == 0) {
  4356  000D48  0100               	movlb	0	; () banked
  4357  000D4A  51FE               	movf	_hourConfiguration& (0+255),w,b
  4358  000D4C  A4D8               	btfss	status,2,c
  4359  000D4E  D0F6               	goto	l5496
  4360                           
  4361                           ; BSR set to: 0
  4362                           ;SysRiego.c: 580: displayLineOnLCD("Times per day:", 15);
  4363  000D50  0E11               	movlw	low STR_1
  4364  000D52  0100               	movlb	0	; () banked
  4365  000D54  6FEE               	movwf	displayLineOnLCD@array& (0+255),b
  4366  000D56  0E0D               	movlw	high STR_1
  4367  000D58  0100               	movlb	0	; () banked
  4368  000D5A  6FEF               	movwf	(displayLineOnLCD@array+1)& (0+255),b
  4369  000D5C  0E0F               	movlw	15
  4370  000D5E  0100               	movlb	0	; () banked
  4371  000D60  6FF0               	movwf	displayLineOnLCD@sizeOfArray& (0+255),b
  4372  000D62  ECC2  F011         	call	_displayLineOnLCD	;wreg free
  4373                           
  4374                           ;SysRiego.c: 581: secondLine();
  4375  000D66  EC5C  F015         	call	_secondLine	;wreg free
  4376                           
  4377                           ;SysRiego.c: 582: displayCharOnLCD('0');
  4378  000D6A  0E30               	movlw	48
  4379  000D6C  EC1D  F015         	call	_displayCharOnLCD
  4380                           
  4381                           ;SysRiego.c: 584: unsigned char numberIrrigations;
  4382                           ;SysRiego.c: 586: while (input != '#') {
  4383  000D70  D014               	goto	l351
  4384  000D72                     l5426:
  4385                           
  4386                           ;SysRiego.c: 588: input = getInput();
  4387  000D72  EC42  F014         	call	_getInput	;wreg free
  4388  000D76  0101               	movlb	1	; () banked
  4389  000D78  6F49               	movwf	timerConfiguration@input& (0+255),b
  4390                           
  4391                           ;SysRiego.c: 590: secondLine();
  4392  000D7A  EC5C  F015         	call	_secondLine	;wreg free
  4393                           
  4394                           ;SysRiego.c: 591: displayCharOnLCD(input);
  4395  000D7E  0101               	movlb	1	; () banked
  4396  000D80  5149               	movf	timerConfiguration@input& (0+255),w,b
  4397  000D82  EC1D  F015         	call	_displayCharOnLCD
  4398                           
  4399                           ;SysRiego.c: 593: if (input != '#') {
  4400  000D86  0E23               	movlw	35
  4401  000D88  0101               	movlb	1	; () banked
  4402  000D8A  1949               	xorwf	timerConfiguration@input& (0+255),w,b
  4403  000D8C  B4D8               	btfsc	status,2,c
  4404  000D8E  D005               	goto	l351
  4405                           
  4406                           ; BSR set to: 1
  4407                           ;SysRiego.c: 594: numberIrrigations = input - 48;
  4408  000D90  0101               	movlb	1	; () banked
  4409  000D92  5149               	movf	timerConfiguration@input& (0+255),w,b
  4410  000D94  0FD0               	addlw	208
  4411  000D96  0101               	movlb	1	; () banked
  4412  000D98  6F45               	movwf	timerConfiguration@numberIrrigations& (0+255),b
  4413  000D9A                     l351:
  4414  000D9A  0E23               	movlw	35
  4415  000D9C  0101               	movlb	1	; () banked
  4416  000D9E  1949               	xorwf	timerConfiguration@input& (0+255),w,b
  4417  000DA0  A4D8               	btfss	status,2,c
  4418  000DA2  D7E7               	goto	l5426
  4419                           
  4420                           ; BSR set to: 1
  4421                           ;SysRiego.c: 595: }
  4422                           ;SysRiego.c: 597: }
  4423                           ;SysRiego.c: 602: for(unsigned char i = 0; i < numberIrrigations; i++) {
  4424                           
  4425                           ; BSR set to: 1
  4426  000DA4  0E00               	movlw	0
  4427  000DA6  0101               	movlb	1	; () banked
  4428  000DA8  6F48               	movwf	timerConfiguration@i& (0+255),b
  4429  000DAA  D06C               	goto	l5466
  4430  000DAC                     l5434:
  4431                           
  4432                           ; BSR set to: 1
  4433                           ;SysRiego.c: 604: unsigned char *zoneTime = zoneTimes[offSetZoneTimes + i];
  4434  000DAC  0101               	movlb	1	; () banked
  4435  000DAE  5148               	movf	timerConfiguration@i& (0+255),w,b
  4436  000DB0  C0FF  F0F9         	movff	_offSetZoneTimes,??_timerConfiguration
  4437  000DB4  0100               	movlb	0	; () banked
  4438  000DB6  6BFA               	clrf	(??_timerConfiguration+1)& (0+255),b
  4439  000DB8  0100               	movlb	0	; () banked
  4440  000DBA  27F9               	addwf	??_timerConfiguration& (0+255),f,b
  4441  000DBC  0E00               	movlw	0
  4442  000DBE  23FA               	addwfc	(??_timerConfiguration+1)& (0+255),f,b
  4443  000DC0  90D8               	bcf	status,0,c
  4444  000DC2  0100               	movlb	0	; () banked
  4445  000DC4  37F9               	rlcf	??_timerConfiguration& (0+255),f,b
  4446  000DC6  37FA               	rlcf	(??_timerConfiguration+1)& (0+255),f,b
  4447  000DC8  0E60               	movlw	low _zoneTimes
  4448  000DCA  0100               	movlb	0	; () banked
  4449  000DCC  25F9               	addwf	??_timerConfiguration& (0+255),w,b
  4450  000DCE  6ED9               	movwf	fsr2l,c
  4451  000DD0  0E00               	movlw	high _zoneTimes
  4452  000DD2  0100               	movlb	0	; () banked
  4453  000DD4  21FA               	addwfc	(??_timerConfiguration+1)& (0+255),w,b
  4454  000DD6  6EDA               	movwf	fsr2h,c
  4455  000DD8  CFDE F146          	movff	postinc2,timerConfiguration@zoneTime
  4456  000DDC  CFDD F147          	movff	postdec2,timerConfiguration@zoneTime+1
  4457                           
  4458                           ; BSR set to: 0
  4459                           ;SysRiego.c: 606: unsigned char counter = 0;
  4460  000DE0  0E00               	movlw	0
  4461  000DE2  0101               	movlb	1	; () banked
  4462  000DE4  6F42               	movwf	timerConfiguration@counter& (0+255),b
  4463                           
  4464                           ; BSR set to: 1
  4465                           ;SysRiego.c: 608: input = ' ';
  4466  000DE6  0E20               	movlw	32
  4467  000DE8  0101               	movlb	1	; () banked
  4468  000DEA  6F49               	movwf	timerConfiguration@input& (0+255),b
  4469                           
  4470                           ; BSR set to: 1
  4471                           ;SysRiego.c: 610: clearDisplay();
  4472  000DEC  EC64  F015         	call	_clearDisplay	;wreg free
  4473                           
  4474                           ;SysRiego.c: 612: displayLineOnLCD("Time ", 6);
  4475  000DF0  0E32               	movlw	low STR_2
  4476  000DF2  0100               	movlb	0	; () banked
  4477  000DF4  6FEE               	movwf	displayLineOnLCD@array& (0+255),b
  4478  000DF6  0E0D               	movlw	high STR_2
  4479  000DF8  0100               	movlb	0	; () banked
  4480  000DFA  6FEF               	movwf	(displayLineOnLCD@array+1)& (0+255),b
  4481  000DFC  0E06               	movlw	6
  4482  000DFE  0100               	movlb	0	; () banked
  4483  000E00  6FF0               	movwf	displayLineOnLCD@sizeOfArray& (0+255),b
  4484  000E02  ECC2  F011         	call	_displayLineOnLCD	;wreg free
  4485                           
  4486                           ;SysRiego.c: 613: displayCharOnLCD(i + 49);
  4487  000E06  0101               	movlb	1	; () banked
  4488  000E08  5148               	movf	timerConfiguration@i& (0+255),w,b
  4489  000E0A  0F31               	addlw	49
  4490  000E0C  EC1D  F015         	call	_displayCharOnLCD
  4491                           
  4492                           ;SysRiego.c: 614: secondLine();
  4493  000E10  EC5C  F015         	call	_secondLine	;wreg free
  4494                           
  4495                           ;SysRiego.c: 615: displayLineOnLCD(zoneTime, 5);
  4496  000E14  C146  F0EE         	movff	timerConfiguration@zoneTime,displayLineOnLCD@array
  4497  000E18  C147  F0EF         	movff	timerConfiguration@zoneTime+1,displayLineOnLCD@array+1
  4498  000E1C  0E05               	movlw	5
  4499  000E1E  0100               	movlb	0	; () banked
  4500  000E20  6FF0               	movwf	displayLineOnLCD@sizeOfArray& (0+255),b
  4501  000E22  ECC2  F011         	call	_displayLineOnLCD	;wreg free
  4502                           
  4503                           ;SysRiego.c: 617: while (input != '#') {
  4504  000E26  D027               	goto	l5462
  4505  000E28                     l5450:
  4506                           
  4507                           ;SysRiego.c: 619: input = getInput();
  4508  000E28  EC42  F014         	call	_getInput	;wreg free
  4509  000E2C  0101               	movlb	1	; () banked
  4510  000E2E  6F49               	movwf	timerConfiguration@input& (0+255),b
  4511                           
  4512                           ; BSR set to: 1
  4513                           ;SysRiego.c: 621: if (input != '#') {
  4514  000E30  0E23               	movlw	35
  4515  000E32  0101               	movlb	1	; () banked
  4516  000E34  1949               	xorwf	timerConfiguration@input& (0+255),w,b
  4517  000E36  B4D8               	btfsc	status,2,c
  4518  000E38  D01E               	goto	l5462
  4519                           
  4520                           ; BSR set to: 1
  4521                           ;SysRiego.c: 622: zoneTime[counter % 4] = input;
  4522  000E3A  C142  F0F9         	movff	timerConfiguration@counter,??_timerConfiguration
  4523  000E3E  0E03               	movlw	3
  4524  000E40  0100               	movlb	0	; () banked
  4525  000E42  17F9               	andwf	??_timerConfiguration& (0+255),f,b
  4526  000E44  0100               	movlb	0	; () banked
  4527  000E46  51F9               	movf	??_timerConfiguration& (0+255),w,b
  4528  000E48  0101               	movlb	1	; () banked
  4529  000E4A  2546               	addwf	timerConfiguration@zoneTime& (0+255),w,b
  4530  000E4C  6ED9               	movwf	fsr2l,c
  4531  000E4E  0100               	movlb	0	; () banked
  4532  000E50  0E00               	movlw	0
  4533  000E52  0101               	movlb	1	; () banked
  4534  000E54  2147               	addwfc	(timerConfiguration@zoneTime+1)& (0+255),w,b
  4535  000E56  6EDA               	movwf	fsr2h,c
  4536  000E58  C149  FFDF         	movff	timerConfiguration@input,indf2
  4537                           
  4538                           ; BSR set to: 1
  4539                           ;SysRiego.c: 623: secondLine();
  4540  000E5C  EC5C  F015         	call	_secondLine	;wreg free
  4541                           
  4542                           ;SysRiego.c: 624: displayLineOnLCD(zoneTime, 5);
  4543  000E60  C146  F0EE         	movff	timerConfiguration@zoneTime,displayLineOnLCD@array
  4544  000E64  C147  F0EF         	movff	timerConfiguration@zoneTime+1,displayLineOnLCD@array+1
  4545  000E68  0E05               	movlw	5
  4546  000E6A  0100               	movlb	0	; () banked
  4547  000E6C  6FF0               	movwf	displayLineOnLCD@sizeOfArray& (0+255),b
  4548  000E6E  ECC2  F011         	call	_displayLineOnLCD	;wreg free
  4549                           
  4550                           ;SysRiego.c: 625: counter++;
  4551  000E72  0101               	movlb	1	; () banked
  4552  000E74  2B42               	incf	timerConfiguration@counter& (0+255),f,b
  4553  000E76                     l5462:
  4554  000E76  0E23               	movlw	35
  4555  000E78  0101               	movlb	1	; () banked
  4556  000E7A  1949               	xorwf	timerConfiguration@input& (0+255),w,b
  4557  000E7C  A4D8               	btfss	status,2,c
  4558  000E7E  D7D4               	goto	l5450
  4559                           
  4560                           ; BSR set to: 1
  4561                           
  4562                           ; BSR set to: 1
  4563  000E80  0101               	movlb	1	; () banked
  4564  000E82  2B48               	incf	timerConfiguration@i& (0+255),f,b
  4565  000E84                     l5466:
  4566                           
  4567                           ; BSR set to: 1
  4568  000E84  0101               	movlb	1	; () banked
  4569  000E86  5145               	movf	timerConfiguration@numberIrrigations& (0+255),w,b
  4570  000E88  0101               	movlb	1	; () banked
  4571  000E8A  5D48               	subwf	timerConfiguration@i& (0+255),w,b
  4572  000E8C  A0D8               	btfss	status,0,c
  4573  000E8E  D78E               	goto	l5434
  4574                           
  4575                           ; BSR set to: 1
  4576                           ;SysRiego.c: 626: }
  4577                           ;SysRiego.c: 628: }
  4578                           ;SysRiego.c: 630: }
  4579                           ;SysRiego.c: 632: clearUnConfigTimes(numberIrrigations);
  4580                           
  4581                           ; BSR set to: 1
  4582  000E90  0101               	movlb	1	; () banked
  4583  000E92  5145               	movf	timerConfiguration@numberIrrigations& (0+255),w,b
  4584  000E94  EC98  F012         	call	_clearUnConfigTimes
  4585                           
  4586                           ;SysRiego.c: 634: clearDisplay();
  4587  000E98  EC64  F015         	call	_clearDisplay	;wreg free
  4588                           
  4589                           ;SysRiego.c: 636: displayLineOnLCD("Period of time:", 16);
  4590  000E9C  0E01               	movlw	low STR_3
  4591  000E9E  0100               	movlb	0	; () banked
  4592  000EA0  6FEE               	movwf	displayLineOnLCD@array& (0+255),b
  4593  000EA2  0E0D               	movlw	high STR_3
  4594  000EA4  0100               	movlb	0	; () banked
  4595  000EA6  6FEF               	movwf	(displayLineOnLCD@array+1)& (0+255),b
  4596  000EA8  0E10               	movlw	16
  4597  000EAA  0100               	movlb	0	; () banked
  4598  000EAC  6FF0               	movwf	displayLineOnLCD@sizeOfArray& (0+255),b
  4599  000EAE  ECC2  F011         	call	_displayLineOnLCD	;wreg free
  4600                           
  4601                           ;SysRiego.c: 637: secondLine();
  4602  000EB2  EC5C  F015         	call	_secondLine	;wreg free
  4603                           
  4604                           ;SysRiego.c: 638: displayLineOnLCD(irrigateTime, 3);
  4605  000EB6  C0FC  F0EE         	movff	_irrigateTime,displayLineOnLCD@array
  4606  000EBA  C0FD  F0EF         	movff	_irrigateTime+1,displayLineOnLCD@array+1
  4607  000EBE  0E03               	movlw	3
  4608  000EC0  0100               	movlb	0	; () banked
  4609  000EC2  6FF0               	movwf	displayLineOnLCD@sizeOfArray& (0+255),b
  4610  000EC4  ECC2  F011         	call	_displayLineOnLCD	;wreg free
  4611                           
  4612                           ;SysRiego.c: 640: input = ' ';
  4613  000EC8  0E20               	movlw	32
  4614  000ECA  0101               	movlb	1	; () banked
  4615  000ECC  6F49               	movwf	timerConfiguration@input& (0+255),b
  4616                           
  4617                           ; BSR set to: 1
  4618                           ;SysRiego.c: 642: unsigned char counter = 0;
  4619  000ECE  0E00               	movlw	0
  4620  000ED0  0101               	movlb	1	; () banked
  4621  000ED2  6F43               	movwf	timerConfiguration@counter_1212& (0+255),b
  4622                           
  4623                           ;SysRiego.c: 644: while (input != '#') {
  4624  000ED4  D02D               	goto	l5494
  4625  000ED6                     l5482:
  4626                           
  4627                           ; BSR set to: 1
  4628                           ;SysRiego.c: 646: input = getInput();
  4629  000ED6  EC42  F014         	call	_getInput	;wreg free
  4630  000EDA  0101               	movlb	1	; () banked
  4631  000EDC  6F49               	movwf	timerConfiguration@input& (0+255),b
  4632                           
  4633                           ; BSR set to: 1
  4634                           ;SysRiego.c: 648: if (input != '#') {
  4635  000EDE  0E23               	movlw	35
  4636  000EE0  0101               	movlb	1	; () banked
  4637  000EE2  1949               	xorwf	timerConfiguration@input& (0+255),w,b
  4638  000EE4  B4D8               	btfsc	status,2,c
  4639  000EE6  D024               	goto	l5494
  4640                           
  4641                           ; BSR set to: 1
  4642                           ;SysRiego.c: 649: irrigateTime[counter % 3] = input;
  4643  000EE8  C143  F0EC         	movff	timerConfiguration@counter_1212,___awmod@dividend
  4644  000EEC  0100               	movlb	0	; () banked
  4645  000EEE  6BED               	clrf	(___awmod@dividend+1)& (0+255),b
  4646  000EF0  0E00               	movlw	0
  4647  000EF2  0100               	movlb	0	; () banked
  4648  000EF4  6FEF               	movwf	(___awmod@divisor+1)& (0+255),b
  4649  000EF6  0E03               	movlw	3
  4650  000EF8  6FEE               	movwf	___awmod@divisor& (0+255),b
  4651  000EFA  EC71  F011         	call	___awmod	;wreg free
  4652  000EFE  0100               	movlb	0	; () banked
  4653  000F00  51EC               	movf	?___awmod& (0+255),w,b
  4654  000F02  0100               	movlb	0	; () banked
  4655  000F04  25FC               	addwf	_irrigateTime& (0+255),w,b
  4656  000F06  6ED9               	movwf	fsr2l,c
  4657  000F08  0100               	movlb	0	; () banked
  4658  000F0A  51ED               	movf	(?___awmod+1)& (0+255),w,b
  4659  000F0C  0100               	movlb	0	; () banked
  4660  000F0E  21FD               	addwfc	(_irrigateTime+1)& (0+255),w,b
  4661  000F10  6EDA               	movwf	fsr2h,c
  4662  000F12  C149  FFDF         	movff	timerConfiguration@input,indf2
  4663                           
  4664                           ; BSR set to: 0
  4665                           ;SysRiego.c: 650: secondLine();
  4666  000F16  EC5C  F015         	call	_secondLine	;wreg free
  4667                           
  4668                           ;SysRiego.c: 651: displayLineOnLCD(irrigateTime, 3);
  4669  000F1A  C0FC  F0EE         	movff	_irrigateTime,displayLineOnLCD@array
  4670  000F1E  C0FD  F0EF         	movff	_irrigateTime+1,displayLineOnLCD@array+1
  4671  000F22  0E03               	movlw	3
  4672  000F24  0100               	movlb	0	; () banked
  4673  000F26  6FF0               	movwf	displayLineOnLCD@sizeOfArray& (0+255),b
  4674  000F28  ECC2  F011         	call	_displayLineOnLCD	;wreg free
  4675                           
  4676                           ;SysRiego.c: 652: counter++;
  4677  000F2C  0101               	movlb	1	; () banked
  4678  000F2E  2B43               	incf	timerConfiguration@counter_1212& (0+255),f,b
  4679  000F30                     l5494:
  4680                           
  4681                           ; BSR set to: 1
  4682  000F30  0E23               	movlw	35
  4683  000F32  0101               	movlb	1	; () banked
  4684  000F34  1949               	xorwf	timerConfiguration@input& (0+255),w,b
  4685  000F36  B4D8               	btfsc	status,2,c
  4686  000F38  D06E               	goto	l5530
  4687  000F3A  D7CD               	goto	l5482
  4688  000F3C                     l5496:
  4689                           
  4690                           ;SysRiego.c: 659: else {
  4691                           ;SysRiego.c: 661: unsigned char counter = 0;
  4692  000F3C  0E00               	movlw	0
  4693  000F3E  0101               	movlb	1	; () banked
  4694  000F40  6F44               	movwf	timerConfiguration@counter_1213& (0+255),b
  4695                           
  4696                           ; BSR set to: 1
  4697                           ;SysRiego.c: 663: unsigned char newHour[] = "0000";
  4698  000F42  EE20  F07E         	lfsr	2,timerConfiguration@F16264
  4699  000F46  EE11  F03D         	lfsr	1,timerConfiguration@newHour
  4700  000F4A  0E04               	movlw	4
  4701  000F4C                     u5441:
  4702  000F4C  CFDB FFE3          	movff	plusw2,plusw1
  4703  000F50  06E8               	decf	wreg,f,c
  4704  000F52  E2FC               	bc	u5441
  4705                           
  4706                           ; BSR set to: 1
  4707                           ;SysRiego.c: 665: displayLineOnLCD("Config Hour", 12);
  4708  000F54  0E20               	movlw	low STR_4
  4709  000F56  0100               	movlb	0	; () banked
  4710  000F58  6FEE               	movwf	displayLineOnLCD@array& (0+255),b
  4711  000F5A  0E0D               	movlw	high STR_4
  4712  000F5C  0100               	movlb	0	; () banked
  4713  000F5E  6FEF               	movwf	(displayLineOnLCD@array+1)& (0+255),b
  4714  000F60  0E0C               	movlw	12
  4715  000F62  0100               	movlb	0	; () banked
  4716  000F64  6FF0               	movwf	displayLineOnLCD@sizeOfArray& (0+255),b
  4717  000F66  ECC2  F011         	call	_displayLineOnLCD	;wreg free
  4718                           
  4719                           ;SysRiego.c: 666: secondLine();
  4720  000F6A  EC5C  F015         	call	_secondLine	;wreg free
  4721                           
  4722                           ;SysRiego.c: 667: displayCharOnLCD(counterHOUR[0]);
  4723  000F6E  0100               	movlb	0	; () banked
  4724  000F70  51DD               	movf	_counterHOUR& (0+255),w,b
  4725  000F72  EC1D  F015         	call	_displayCharOnLCD
  4726                           
  4727                           ;SysRiego.c: 668: displayCharOnLCD(counterHOUR[1]);
  4728  000F76  0100               	movlb	0	; () banked
  4729  000F78  51DE               	movf	(_counterHOUR+1)& (0+255),w,b
  4730  000F7A  EC1D  F015         	call	_displayCharOnLCD
  4731                           
  4732                           ;SysRiego.c: 669: displayCharOnLCD(':');
  4733  000F7E  0E3A               	movlw	58
  4734  000F80  EC1D  F015         	call	_displayCharOnLCD
  4735                           
  4736                           ;SysRiego.c: 670: displayCharOnLCD(counterMIN[0]);
  4737  000F84  0100               	movlb	0	; () banked
  4738  000F86  51E0               	movf	_counterMIN& (0+255),w,b
  4739  000F88  EC1D  F015         	call	_displayCharOnLCD
  4740                           
  4741                           ;SysRiego.c: 671: displayCharOnLCD(counterMIN[1]);
  4742  000F8C  0100               	movlb	0	; () banked
  4743  000F8E  51E1               	movf	(_counterMIN+1)& (0+255),w,b
  4744  000F90  EC1D  F015         	call	_displayCharOnLCD
  4745                           
  4746                           ;SysRiego.c: 674: while (input != '#') {
  4747  000F94  D033               	goto	l5528
  4748  000F96                     l5514:
  4749                           
  4750                           ;SysRiego.c: 676: input = getInput();
  4751  000F96  EC42  F014         	call	_getInput	;wreg free
  4752  000F9A  0101               	movlb	1	; () banked
  4753  000F9C  6F49               	movwf	timerConfiguration@input& (0+255),b
  4754                           
  4755                           ; BSR set to: 1
  4756                           ;SysRiego.c: 678: displayLineOnLCD("     ", 6);
  4757  000F9E  0E2C               	movlw	low STR_5
  4758  000FA0  0100               	movlb	0	; () banked
  4759  000FA2  6FEE               	movwf	displayLineOnLCD@array& (0+255),b
  4760  000FA4  0E0D               	movlw	high STR_5
  4761  000FA6  0100               	movlb	0	; () banked
  4762  000FA8  6FEF               	movwf	(displayLineOnLCD@array+1)& (0+255),b
  4763  000FAA  0E06               	movlw	6
  4764  000FAC  0100               	movlb	0	; () banked
  4765  000FAE  6FF0               	movwf	displayLineOnLCD@sizeOfArray& (0+255),b
  4766  000FB0  ECC2  F011         	call	_displayLineOnLCD	;wreg free
  4767                           
  4768                           ;SysRiego.c: 680: if (input != '#') {
  4769  000FB4  0E23               	movlw	35
  4770  000FB6  0101               	movlb	1	; () banked
  4771  000FB8  1949               	xorwf	timerConfiguration@input& (0+255),w,b
  4772  000FBA  B4D8               	btfsc	status,2,c
  4773  000FBC  D01F               	goto	l5528
  4774                           
  4775                           ; BSR set to: 1
  4776                           ;SysRiego.c: 681: newHour[counter % 4] = input;
  4777  000FBE  0101               	movlb	1	; () banked
  4778  000FC0  5144               	movf	timerConfiguration@counter_1213& (0+255),w,b
  4779  000FC2  0B03               	andlw	3
  4780  000FC4  0100               	movlb	0	; () banked
  4781  000FC6  6FF9               	movwf	??_timerConfiguration& (0+255),b
  4782  000FC8  6BFA               	clrf	(??_timerConfiguration+1)& (0+255),b
  4783  000FCA  0E3D               	movlw	low timerConfiguration@newHour
  4784  000FCC  0100               	movlb	0	; () banked
  4785  000FCE  25F9               	addwf	??_timerConfiguration& (0+255),w,b
  4786  000FD0  6ED9               	movwf	fsr2l,c
  4787  000FD2  0E01               	movlw	high timerConfiguration@newHour
  4788  000FD4  0100               	movlb	0	; () banked
  4789  000FD6  21FA               	addwfc	(??_timerConfiguration+1)& (0+255),w,b
  4790  000FD8  6EDA               	movwf	fsr2h,c
  4791  000FDA  C149  FFDF         	movff	timerConfiguration@input,indf2
  4792                           
  4793                           ; BSR set to: 0
  4794                           ;SysRiego.c: 682: secondLine();
  4795  000FDE  EC5C  F015         	call	_secondLine	;wreg free
  4796                           
  4797                           ;SysRiego.c: 683: displayLineOnLCD(newHour, 5);
  4798  000FE2  0E3D               	movlw	low timerConfiguration@newHour
  4799  000FE4  0100               	movlb	0	; () banked
  4800  000FE6  6FEE               	movwf	displayLineOnLCD@array& (0+255),b
  4801  000FE8  0E01               	movlw	high timerConfiguration@newHour
  4802  000FEA  0100               	movlb	0	; () banked
  4803  000FEC  6FEF               	movwf	(displayLineOnLCD@array+1)& (0+255),b
  4804  000FEE  0E05               	movlw	5
  4805  000FF0  0100               	movlb	0	; () banked
  4806  000FF2  6FF0               	movwf	displayLineOnLCD@sizeOfArray& (0+255),b
  4807  000FF4  ECC2  F011         	call	_displayLineOnLCD	;wreg free
  4808                           
  4809                           ;SysRiego.c: 684: counter++;
  4810  000FF8  0101               	movlb	1	; () banked
  4811  000FFA  2B44               	incf	timerConfiguration@counter_1213& (0+255),f,b
  4812  000FFC                     l5528:
  4813  000FFC  0E23               	movlw	35
  4814  000FFE  0101               	movlb	1	; () banked
  4815  001000  1949               	xorwf	timerConfiguration@input& (0+255),w,b
  4816  001002  A4D8               	btfss	status,2,c
  4817  001004  D7C8               	goto	l5514
  4818                           
  4819                           ; BSR set to: 1
  4820                           ;SysRiego.c: 685: }
  4821                           ;SysRiego.c: 687: }
  4822                           ;SysRiego.c: 689: counterHOUR[0] = newHour[0];
  4823  001006  C13D  F0DD         	movff	timerConfiguration@newHour,_counterHOUR
  4824                           
  4825                           ;SysRiego.c: 690: counterHOUR[1] = newHour[1];
  4826  00100A  C13E  F0DE         	movff	timerConfiguration@newHour+1,_counterHOUR+1
  4827                           
  4828                           ;SysRiego.c: 691: counterMIN[0] = newHour[2];
  4829  00100E  C13F  F0E0         	movff	timerConfiguration@newHour+2,_counterMIN
  4830                           
  4831                           ;SysRiego.c: 692: counterMIN[1] = newHour[3];
  4832  001012  C140  F0E1         	movff	timerConfiguration@newHour+3,_counterMIN+1
  4833  001016                     l5530:
  4834                           
  4835                           ; BSR set to: 1
  4836                           ;SysRiego.c: 693: }
  4837                           ;SysRiego.c: 696: enableIntRBIE();
  4838  001016  EC76  F015         	call	_enableIntRBIE	;wreg free
  4839                           
  4840                           ;SysRiego.c: 698: hourConfiguration = 0;
  4841  00101A  0E00               	movlw	0
  4842  00101C  0100               	movlb	0	; () banked
  4843  00101E  6FFE               	movwf	_hourConfiguration& (0+255),b
  4844                           
  4845                           ; BSR set to: 0
  4846                           ;SysRiego.c: 699: statusConfiguration = 0;
  4847  001020  0E00               	movlw	0
  4848  001022  6E43               	movwf	_statusConfiguration,c
  4849                           
  4850                           ; BSR set to: 0
  4851  001024  0012               	return		;funcret
  4852  001026                     __end_of_timerConfiguration:
  4853                           	opt stack 0
  4854                           tblptru	equ	0xFF8
  4855                           tblptrh	equ	0xFF7
  4856                           tblptrl	equ	0xFF6
  4857                           tablat	equ	0xFF5
  4858                           prodh	equ	0xFF4
  4859                           prodl	equ	0xFF3
  4860                           intcon	equ	0xFF2
  4861                           intcon2	equ	0xFF1
  4862                           postinc0	equ	0xFEE
  4863                           wreg	equ	0xFE8
  4864                           indf1	equ	0xFE7
  4865                           postdec1	equ	0xFE5
  4866                           plusw1	equ	0xFE3
  4867                           fsr1h	equ	0xFE2
  4868                           fsr1l	equ	0xFE1
  4869                           indf2	equ	0xFDF
  4870                           postinc2	equ	0xFDE
  4871                           postdec2	equ	0xFDD
  4872                           plusw2	equ	0xFDB
  4873                           fsr2h	equ	0xFDA
  4874                           fsr2l	equ	0xFD9
  4875                           status	equ	0xFD8
  4876                           
  4877 ;; *************** function _secondLine *****************
  4878 ;; Defined at:
  4879 ;;		line 497 in file "SysRiego.c"
  4880 ;; Parameters:    Size  Location     Type
  4881 ;;		None
  4882 ;; Auto vars:     Size  Location     Type
  4883 ;;		None
  4884 ;; Return value:  Size  Location     Type
  4885 ;;                  1    wreg      void 
  4886 ;; Registers used:
  4887 ;;		wreg, status,2, status,0, cstack
  4888 ;; Tracked objects:
  4889 ;;		On entry : 0/0
  4890 ;;		On exit  : 0/0
  4891 ;;		Unchanged: 0/0
  4892 ;; Data sizes:     COMRAM   BANK0   BANK1   BANK2   BANK3   BANK4   BANK5   BANK6   BANK7   BANK8   BANK9  BANK10  BANK1
      +1  BANK12
  4893 ;;      Params:         0       0       0       0       0       0       0       0       0       0       0       0       
      +0       0
  4894 ;;      Locals:         0       0       0       0       0       0       0       0       0       0       0       0       
      +0       0
  4895 ;;      Temps:          0       0       0       0       0       0       0       0       0       0       0       0       
      +0       0
  4896 ;;      Totals:         0       0       0       0       0       0       0       0       0       0       0       0       
      +0       0
  4897 ;;Total ram usage:        0 bytes
  4898 ;; Hardware stack levels used:    1
  4899 ;; Hardware stack levels required when called:    9
  4900 ;; This function calls:
  4901 ;;		_command
  4902 ;;		_isReady
  4903 ;;		_shortDelay
  4904 ;; This function is called by:
  4905 ;;		_timerConfiguration
  4906 ;; This function uses a non-reentrant model
  4907 ;;
  4908                           
  4909                           	psect	text19
  4910  002AB8                     __ptext19:
  4911                           	opt stack 0
  4912  002AB8                     _secondLine:
  4913                           	opt stack 20
  4914                           
  4915                           ;SysRiego.c: 498: command(0xC0);
  4916                           
  4917                           ; BSR set to: 0
  4918                           ;incstack = 0
  4919  002AB8  0EC0               	movlw	192
  4920  002ABA  EC28  F015         	call	_command
  4921                           
  4922                           ;SysRiego.c: 499: shortDelay();
  4923  002ABE  EC52  F015         	call	_shortDelay	;wreg free
  4924                           
  4925                           ;SysRiego.c: 500: isReady();
  4926  002AC2  ECC1  F014         	call	_isReady	;wreg free
  4927  002AC6  0012               	return		;funcret
  4928  002AC8                     __end_of_secondLine:
  4929                           	opt stack 0
  4930                           tblptru	equ	0xFF8
  4931                           tblptrh	equ	0xFF7
  4932                           tblptrl	equ	0xFF6
  4933                           tablat	equ	0xFF5
  4934                           prodh	equ	0xFF4
  4935                           prodl	equ	0xFF3
  4936                           intcon	equ	0xFF2
  4937                           intcon2	equ	0xFF1
  4938                           postinc0	equ	0xFEE
  4939                           wreg	equ	0xFE8
  4940                           indf1	equ	0xFE7
  4941                           postdec1	equ	0xFE5
  4942                           plusw1	equ	0xFE3
  4943                           fsr1h	equ	0xFE2
  4944                           fsr1l	equ	0xFE1
  4945                           indf2	equ	0xFDF
  4946                           postinc2	equ	0xFDE
  4947                           postdec2	equ	0xFDD
  4948                           plusw2	equ	0xFDB
  4949                           fsr2h	equ	0xFDA
  4950                           fsr2l	equ	0xFD9
  4951                           status	equ	0xFD8
  4952                           
  4953 ;; *************** function _clearUnConfigTimes *****************
  4954 ;; Defined at:
  4955 ;;		line 1698 in file "SysRiego.c"
  4956 ;; Parameters:    Size  Location     Type
  4957 ;;  numberIrriga    1    wreg     unsigned char 
  4958 ;; Auto vars:     Size  Location     Type
  4959 ;;  numberIrriga    1    4[BANK0 ] unsigned char 
  4960 ;;  i               1    5[BANK0 ] unsigned char 
  4961 ;;  zone            2    2[BANK0 ] PTR unsigned char 
  4962 ;;		 -> time3Zn3(5), time2Zn3(5), time1Zn3(5), time3Zn2(5), 
  4963 ;;		 -> time2Zn2(5), time1Zn2(5), time3Zn1(5), time2Zn1(5), 
  4964 ;;		 -> time1Zn1(5), 
  4965 ;; Return value:  Size  Location     Type
  4966 ;;                  1    wreg      void 
  4967 ;; Registers used:
  4968 ;;		wreg, fsr2l, fsr2h, status,2, status,0, prodl, prodh
  4969 ;; Tracked objects:
  4970 ;;		On entry : 0/0
  4971 ;;		On exit  : 0/0
  4972 ;;		Unchanged: 0/0
  4973 ;; Data sizes:     COMRAM   BANK0   BANK1   BANK2   BANK3   BANK4   BANK5   BANK6   BANK7   BANK8   BANK9  BANK10  BANK1
      +1  BANK12
  4974 ;;      Params:         0       0       0       0       0       0       0       0       0       0       0       0       
      +0       0
  4975 ;;      Locals:         0       4       0       0       0       0       0       0       0       0       0       0       
      +0       0
  4976 ;;      Temps:          0       2       0       0       0       0       0       0       0       0       0       0       
      +0       0
  4977 ;;      Totals:         0       6       0       0       0       0       0       0       0       0       0       0       
      +0       0
  4978 ;;Total ram usage:        6 bytes
  4979 ;; Hardware stack levels used:    1
  4980 ;; Hardware stack levels required when called:    7
  4981 ;; This function calls:
  4982 ;;		Nothing
  4983 ;; This function is called by:
  4984 ;;		_timerConfiguration
  4985 ;; This function uses a non-reentrant model
  4986 ;;
  4987                           
  4988                           	psect	text20
  4989  002530                     __ptext20:
  4990                           	opt stack 0
  4991  002530                     _clearUnConfigTimes:
  4992                           	opt stack 22
  4993                           
  4994                           ;incstack = 0
  4995                           ;clearUnConfigTimes@numberIrrigations stored from wreg
  4996  002530  0100               	movlb	0	; () banked
  4997  002532  6FF0               	movwf	clearUnConfigTimes@numberIrrigations& (0+255),b
  4998                           
  4999                           ;SysRiego.c: 1702: while(numberIrrigations < 3) {
  5000  002534  D034               	goto	l5048
  5001  002536                     l5032:
  5002                           
  5003                           ;SysRiego.c: 1704: unsigned char *zone = zoneTimes[offSetZoneTimes + numberIrrigations];
  5004  002536  0100               	movlb	0	; () banked
  5005  002538  51F0               	movf	clearUnConfigTimes@numberIrrigations& (0+255),w,b
  5006  00253A  C0FF  F0EC         	movff	_offSetZoneTimes,??_clearUnConfigTimes
  5007  00253E  0100               	movlb	0	; () banked
  5008  002540  6BED               	clrf	(??_clearUnConfigTimes+1)& (0+255),b
  5009  002542  0100               	movlb	0	; () banked
  5010  002544  27EC               	addwf	??_clearUnConfigTimes& (0+255),f,b
  5011  002546  0E00               	movlw	0
  5012  002548  23ED               	addwfc	(??_clearUnConfigTimes+1)& (0+255),f,b
  5013  00254A  90D8               	bcf	status,0,c
  5014  00254C  0100               	movlb	0	; () banked
  5015  00254E  37EC               	rlcf	??_clearUnConfigTimes& (0+255),f,b
  5016  002550  37ED               	rlcf	(??_clearUnConfigTimes+1)& (0+255),f,b
  5017  002552  0E60               	movlw	low _zoneTimes
  5018  002554  0100               	movlb	0	; () banked
  5019  002556  25EC               	addwf	??_clearUnConfigTimes& (0+255),w,b
  5020  002558  6ED9               	movwf	fsr2l,c
  5021  00255A  0E00               	movlw	high _zoneTimes
  5022  00255C  0100               	movlb	0	; () banked
  5023  00255E  21ED               	addwfc	(??_clearUnConfigTimes+1)& (0+255),w,b
  5024  002560  6EDA               	movwf	fsr2h,c
  5025  002562  CFDE F0EE          	movff	postinc2,clearUnConfigTimes@zone
  5026  002566  CFDD F0EF          	movff	postdec2,clearUnConfigTimes@zone+1
  5027                           
  5028                           ; BSR set to: 0
  5029                           ;SysRiego.c: 1706: for(unsigned char i = 0; i < 4; i++) {
  5030  00256A  0E00               	movlw	0
  5031  00256C  0100               	movlb	0	; () banked
  5032  00256E  6FF1               	movwf	clearUnConfigTimes@i& (0+255),b
  5033  002570                     l5036:
  5034                           
  5035                           ; BSR set to: 0
  5036  002570  0E03               	movlw	3
  5037  002572  0100               	movlb	0	; () banked
  5038  002574  65F1               	cpfsgt	clearUnConfigTimes@i& (0+255),b
  5039  002576  D001               	goto	l5040
  5040  002578  D010               	goto	l5046
  5041  00257A                     l5040:
  5042                           
  5043                           ; BSR set to: 0
  5044                           ;SysRiego.c: 1708: zone[i] = '$';
  5045  00257A  0100               	movlb	0	; () banked
  5046  00257C  51F1               	movf	clearUnConfigTimes@i& (0+255),w,b
  5047  00257E  0D01               	mullw	1
  5048  002580  50F3               	movf	prodl,w,c
  5049  002582  0100               	movlb	0	; () banked
  5050  002584  25EE               	addwf	clearUnConfigTimes@zone& (0+255),w,b
  5051  002586  6ED9               	movwf	fsr2l,c
  5052  002588  50F4               	movf	prodh,w,c
  5053  00258A  0100               	movlb	0	; () banked
  5054  00258C  21EF               	addwfc	(clearUnConfigTimes@zone+1)& (0+255),w,b
  5055  00258E  6EDA               	movwf	fsr2h,c
  5056  002590  0E24               	movlw	36
  5057  002592  6EDF               	movwf	indf2,c
  5058                           
  5059                           ; BSR set to: 0
  5060  002594  0100               	movlb	0	; () banked
  5061  002596  2BF1               	incf	clearUnConfigTimes@i& (0+255),f,b
  5062  002598  D7EB               	goto	l5036
  5063  00259A                     l5046:
  5064                           
  5065                           ; BSR set to: 0
  5066                           ;SysRiego.c: 1710: }
  5067                           ;SysRiego.c: 1712: numberIrrigations++;
  5068  00259A  0100               	movlb	0	; () banked
  5069  00259C  2BF0               	incf	clearUnConfigTimes@numberIrrigations& (0+255),f,b
  5070  00259E                     l5048:
  5071  00259E  0E02               	movlw	2
  5072  0025A0  0100               	movlb	0	; () banked
  5073  0025A2  65F0               	cpfsgt	clearUnConfigTimes@numberIrrigations& (0+255),b
  5074  0025A4  D7C8               	goto	l5032
  5075  0025A6  0012               	return	
  5076  0025A8                     __end_of_clearUnConfigTimes:
  5077                           	opt stack 0
  5078                           tblptru	equ	0xFF8
  5079                           tblptrh	equ	0xFF7
  5080                           tblptrl	equ	0xFF6
  5081                           tablat	equ	0xFF5
  5082                           prodh	equ	0xFF4
  5083                           prodl	equ	0xFF3
  5084                           intcon	equ	0xFF2
  5085                           intcon2	equ	0xFF1
  5086                           postinc0	equ	0xFEE
  5087                           wreg	equ	0xFE8
  5088                           indf1	equ	0xFE7
  5089                           postdec1	equ	0xFE5
  5090                           plusw1	equ	0xFE3
  5091                           fsr1h	equ	0xFE2
  5092                           fsr1l	equ	0xFE1
  5093                           indf2	equ	0xFDF
  5094                           postinc2	equ	0xFDE
  5095                           postdec2	equ	0xFDD
  5096                           plusw2	equ	0xFDB
  5097                           fsr2h	equ	0xFDA
  5098                           fsr2l	equ	0xFD9
  5099                           status	equ	0xFD8
  5100                           
  5101 ;; *************** function ___awmod *****************
  5102 ;; Defined at:
  5103 ;;		line 8 in file "/Applications/microchip/xc8/v1.36/sources/common/awmod.c"
  5104 ;; Parameters:    Size  Location     Type
  5105 ;;  dividend        2    0[BANK0 ] int 
  5106 ;;  divisor         2    2[BANK0 ] int 
  5107 ;; Auto vars:     Size  Location     Type
  5108 ;;  sign            1    5[BANK0 ] unsigned char 
  5109 ;;  counter         1    4[BANK0 ] unsigned char 
  5110 ;; Return value:  Size  Location     Type
  5111 ;;                  2    0[BANK0 ] int 
  5112 ;; Registers used:
  5113 ;;		wreg, status,2, status,0
  5114 ;; Tracked objects:
  5115 ;;		On entry : 0/0
  5116 ;;		On exit  : 0/0
  5117 ;;		Unchanged: 0/0
  5118 ;; Data sizes:     COMRAM   BANK0   BANK1   BANK2   BANK3   BANK4   BANK5   BANK6   BANK7   BANK8   BANK9  BANK10  BANK1
      +1  BANK12
  5119 ;;      Params:         0       4       0       0       0       0       0       0       0       0       0       0       
      +0       0
  5120 ;;      Locals:         0       2       0       0       0       0       0       0       0       0       0       0       
      +0       0
  5121 ;;      Temps:          0       0       0       0       0       0       0       0       0       0       0       0       
      +0       0
  5122 ;;      Totals:         0       6       0       0       0       0       0       0       0       0       0       0       
      +0       0
  5123 ;;Total ram usage:        6 bytes
  5124 ;; Hardware stack levels used:    1
  5125 ;; Hardware stack levels required when called:    7
  5126 ;; This function calls:
  5127 ;;		Nothing
  5128 ;; This function is called by:
  5129 ;;		_timerConfiguration
  5130 ;;		_updateEndTime
  5131 ;; This function uses a non-reentrant model
  5132 ;;
  5133                           
  5134                           	psect	text21
  5135  0022E2                     __ptext21:
  5136                           	opt stack 0
  5137  0022E2                     ___awmod:
  5138                           	opt stack 21
  5139                           
  5140                           ; BSR set to: 0
  5141                           ;incstack = 0
  5142  0022E2  0E00               	movlw	0
  5143  0022E4  0100               	movlb	0	; () banked
  5144  0022E6  6FF1               	movwf	___awmod@sign& (0+255),b
  5145                           
  5146                           ; BSR set to: 0
  5147  0022E8  0100               	movlb	0	; () banked
  5148  0022EA  AFED               	btfss	(___awmod@dividend+1)& (0+255),7,b
  5149  0022EC  D008               	goto	l4940
  5150                           
  5151                           ; BSR set to: 0
  5152  0022EE  0100               	movlb	0	; () banked
  5153  0022F0  6DEC               	negf	___awmod@dividend& (0+255),b
  5154  0022F2  1FED               	comf	(___awmod@dividend+1)& (0+255),f,b
  5155  0022F4  B0D8               	btfsc	status,0,c
  5156  0022F6  2BED               	incf	(___awmod@dividend+1)& (0+255),f,b
  5157                           
  5158                           ; BSR set to: 0
  5159  0022F8  0E01               	movlw	1
  5160  0022FA  0100               	movlb	0	; () banked
  5161  0022FC  6FF1               	movwf	___awmod@sign& (0+255),b
  5162  0022FE                     l4940:
  5163                           
  5164                           ; BSR set to: 0
  5165  0022FE  0100               	movlb	0	; () banked
  5166  002300  AFEF               	btfss	(___awmod@divisor+1)& (0+255),7,b
  5167  002302  D005               	goto	l4944
  5168                           
  5169                           ; BSR set to: 0
  5170  002304  0100               	movlb	0	; () banked
  5171  002306  6DEE               	negf	___awmod@divisor& (0+255),b
  5172  002308  1FEF               	comf	(___awmod@divisor+1)& (0+255),f,b
  5173  00230A  B0D8               	btfsc	status,0,c
  5174  00230C  2BEF               	incf	(___awmod@divisor+1)& (0+255),f,b
  5175  00230E                     l4944:
  5176                           
  5177                           ; BSR set to: 0
  5178  00230E  0100               	movlb	0	; () banked
  5179  002310  51EE               	movf	___awmod@divisor& (0+255),w,b
  5180  002312  0100               	movlb	0	; () banked
  5181  002314  11EF               	iorwf	(___awmod@divisor+1)& (0+255),w,b
  5182  002316  B4D8               	btfsc	status,2,c
  5183  002318  D026               	goto	l4960
  5184                           
  5185                           ; BSR set to: 0
  5186  00231A  0E01               	movlw	1
  5187  00231C  0100               	movlb	0	; () banked
  5188  00231E  6FF0               	movwf	___awmod@counter& (0+255),b
  5189  002320  D006               	goto	l4950
  5190  002322                     l4948:
  5191                           
  5192                           ; BSR set to: 0
  5193  002322  0100               	movlb	0	; () banked
  5194  002324  90D8               	bcf	status,0,c
  5195  002326  37EE               	rlcf	___awmod@divisor& (0+255),f,b
  5196  002328  37EF               	rlcf	(___awmod@divisor+1)& (0+255),f,b
  5197  00232A  0100               	movlb	0	; () banked
  5198  00232C  2BF0               	incf	___awmod@counter& (0+255),f,b
  5199  00232E                     l4950:
  5200                           
  5201                           ; BSR set to: 0
  5202  00232E  0100               	movlb	0	; () banked
  5203  002330  AFEF               	btfss	(___awmod@divisor+1)& (0+255),7,b
  5204  002332  D7F7               	goto	l4948
  5205  002334                     l4952:
  5206                           
  5207                           ; BSR set to: 0
  5208  002334  0100               	movlb	0	; () banked
  5209  002336  51EE               	movf	___awmod@divisor& (0+255),w,b
  5210  002338  0100               	movlb	0	; () banked
  5211  00233A  5DEC               	subwf	___awmod@dividend& (0+255),w,b
  5212  00233C  0100               	movlb	0	; () banked
  5213  00233E  51EF               	movf	(___awmod@divisor+1)& (0+255),w,b
  5214  002340  0100               	movlb	0	; () banked
  5215  002342  59ED               	subwfb	(___awmod@dividend+1)& (0+255),w,b
  5216  002344  A0D8               	btfss	status,0,c
  5217  002346  D008               	goto	l4956
  5218                           
  5219                           ; BSR set to: 0
  5220  002348  0100               	movlb	0	; () banked
  5221  00234A  51EE               	movf	___awmod@divisor& (0+255),w,b
  5222  00234C  0100               	movlb	0	; () banked
  5223  00234E  5FEC               	subwf	___awmod@dividend& (0+255),f,b
  5224  002350  0100               	movlb	0	; () banked
  5225  002352  51EF               	movf	(___awmod@divisor+1)& (0+255),w,b
  5226  002354  0100               	movlb	0	; () banked
  5227  002356  5BED               	subwfb	(___awmod@dividend+1)& (0+255),f,b
  5228  002358                     l4956:
  5229                           
  5230                           ; BSR set to: 0
  5231  002358  0100               	movlb	0	; () banked
  5232  00235A  90D8               	bcf	status,0,c
  5233  00235C  33EF               	rrcf	(___awmod@divisor+1)& (0+255),f,b
  5234  00235E  33EE               	rrcf	___awmod@divisor& (0+255),f,b
  5235                           
  5236                           ; BSR set to: 0
  5237  002360  0100               	movlb	0	; () banked
  5238  002362  2FF0               	decfsz	___awmod@counter& (0+255),f,b
  5239  002364  D7E7               	goto	l4952
  5240  002366                     l4960:
  5241                           
  5242                           ; BSR set to: 0
  5243  002366  0100               	movlb	0	; () banked
  5244  002368  51F1               	movf	___awmod@sign& (0+255),w,b
  5245  00236A  0100               	movlb	0	; () banked
  5246  00236C  B4D8               	btfsc	status,2,c
  5247  00236E  D005               	goto	l4964
  5248                           
  5249                           ; BSR set to: 0
  5250  002370  0100               	movlb	0	; () banked
  5251  002372  6DEC               	negf	___awmod@dividend& (0+255),b
  5252  002374  1FED               	comf	(___awmod@dividend+1)& (0+255),f,b
  5253  002376  B0D8               	btfsc	status,0,c
  5254  002378  2BED               	incf	(___awmod@dividend+1)& (0+255),f,b
  5255  00237A                     l4964:
  5256                           
  5257                           ; BSR set to: 0
  5258  00237A  C0EC  F0EC         	movff	___awmod@dividend,?___awmod
  5259  00237E  C0ED  F0ED         	movff	___awmod@dividend+1,?___awmod+1
  5260  002382  0012               	return	
  5261  002384                     __end_of___awmod:
  5262                           	opt stack 0
  5263                           tblptru	equ	0xFF8
  5264                           tblptrh	equ	0xFF7
  5265                           tblptrl	equ	0xFF6
  5266                           tablat	equ	0xFF5
  5267                           prodh	equ	0xFF4
  5268                           prodl	equ	0xFF3
  5269                           intcon	equ	0xFF2
  5270                           intcon2	equ	0xFF1
  5271                           postinc0	equ	0xFEE
  5272                           wreg	equ	0xFE8
  5273                           indf1	equ	0xFE7
  5274                           postdec1	equ	0xFE5
  5275                           plusw1	equ	0xFE3
  5276                           fsr1h	equ	0xFE2
  5277                           fsr1l	equ	0xFE1
  5278                           indf2	equ	0xFDF
  5279                           postinc2	equ	0xFDE
  5280                           postdec2	equ	0xFDD
  5281                           plusw2	equ	0xFDB
  5282                           fsr2h	equ	0xFDA
  5283                           fsr2l	equ	0xFD9
  5284                           status	equ	0xFD8
  5285                           
  5286 ;; *************** function _manualConfiguration *****************
  5287 ;; Defined at:
  5288 ;;		line 704 in file "SysRiego.c"
  5289 ;; Parameters:    Size  Location     Type
  5290 ;;		None
  5291 ;; Auto vars:     Size  Location     Type
  5292 ;;  input           1   14[BANK0 ] unsigned char 
  5293 ;; Return value:  Size  Location     Type
  5294 ;;                  1    wreg      void 
  5295 ;; Registers used:
  5296 ;;		wreg, fsr0l, fsr0h, fsr2l, fsr2h, status,2, status,0, tblptrl, tblptrh, tblptru, prodl, prodh, cstack
  5297 ;; Tracked objects:
  5298 ;;		On entry : 0/0
  5299 ;;		On exit  : 0/0
  5300 ;;		Unchanged: 0/0
  5301 ;; Data sizes:     COMRAM   BANK0   BANK1   BANK2   BANK3   BANK4   BANK5   BANK6   BANK7   BANK8   BANK9  BANK10  BANK1
      +1  BANK12
  5302 ;;      Params:         0       0       0       0       0       0       0       0       0       0       0       0       
      +0       0
  5303 ;;      Locals:         0       1       0       0       0       0       0       0       0       0       0       0       
      +0       0
  5304 ;;      Temps:          0       1       0       0       0       0       0       0       0       0       0       0       
      +0       0
  5305 ;;      Totals:         0       2       0       0       0       0       0       0       0       0       0       0       
      +0       0
  5306 ;;Total ram usage:        2 bytes
  5307 ;; Hardware stack levels used:    1
  5308 ;; Hardware stack levels required when called:   12
  5309 ;; This function calls:
  5310 ;;		_clearDisplay
  5311 ;;		_disableIntRBIE
  5312 ;;		_displayLineOnLCD
  5313 ;;		_enableIntRBIE
  5314 ;;		_getInput
  5315 ;; This function is called by:
  5316 ;;		_main
  5317 ;; This function uses a non-reentrant model
  5318 ;;
  5319                           
  5320                           	psect	text22
  5321  001CDE                     __ptext22:
  5322                           	opt stack 0
  5323  001CDE                     _manualConfiguration:
  5324                           	opt stack 18
  5325                           
  5326                           ;SysRiego.c: 706: disableIntRBIE();
  5327                           
  5328                           ; BSR set to: 0
  5329                           ;incstack = 0
  5330  001CDE  EC7B  F015         	call	_disableIntRBIE	;wreg free
  5331                           
  5332                           ;SysRiego.c: 708: unsigned char input = ' ';
  5333  001CE2  0E20               	movlw	32
  5334  001CE4  0100               	movlb	0	; () banked
  5335  001CE6  6FFA               	movwf	manualConfiguration@input& (0+255),b
  5336                           
  5337                           ; BSR set to: 0
  5338                           ;SysRiego.c: 710: clearDisplay();
  5339  001CE8  EC64  F015         	call	_clearDisplay	;wreg free
  5340                           
  5341                           ;SysRiego.c: 712: if(*zoneSelected == '1') {
  5342  001CEC  C03A  FFD9         	movff	_zoneSelected,fsr2l
  5343  001CF0  C03B  FFDA         	movff	_zoneSelected+1,fsr2h
  5344  001CF4  0E31               	movlw	49
  5345  001CF6  18DE               	xorwf	postinc2,w,c
  5346  001CF8  A4D8               	btfss	status,2,c
  5347  001CFA  D00C               	goto	l5546
  5348                           
  5349                           ;SysRiego.c: 713: displayLineOnLCD(manualActiveMessage, sizeof(manualActiveMessage) / si
      +                          zeof(manualActiveMessage[0]));
  5350  001CFC  0E9A               	movlw	low _manualActiveMessage
  5351  001CFE  0100               	movlb	0	; () banked
  5352  001D00  6FEE               	movwf	displayLineOnLCD@array& (0+255),b
  5353  001D02  0E00               	movlw	high _manualActiveMessage
  5354  001D04  0100               	movlb	0	; () banked
  5355  001D06  6FEF               	movwf	(displayLineOnLCD@array+1)& (0+255),b
  5356  001D08  0E07               	movlw	7
  5357  001D0A  0100               	movlb	0	; () banked
  5358  001D0C  6FF0               	movwf	displayLineOnLCD@sizeOfArray& (0+255),b
  5359  001D0E  ECC2  F011         	call	_displayLineOnLCD	;wreg free
  5360                           
  5361                           ;SysRiego.c: 714: }
  5362  001D12  D05F               	goto	l5568
  5363  001D14                     l5546:
  5364                           
  5365                           ;SysRiego.c: 716: else {
  5366                           ;SysRiego.c: 717: displayLineOnLCD(manualInactiveMessage, sizeof(manualInactiveMessage) 
      +                          / sizeof(manualInactiveMessage[0]));
  5367  001D14  0E91               	movlw	low _manualInactiveMessage
  5368  001D16  0100               	movlb	0	; () banked
  5369  001D18  6FEE               	movwf	displayLineOnLCD@array& (0+255),b
  5370  001D1A  0E00               	movlw	high _manualInactiveMessage
  5371  001D1C  0100               	movlb	0	; () banked
  5372  001D1E  6FEF               	movwf	(displayLineOnLCD@array+1)& (0+255),b
  5373  001D20  0E09               	movlw	9
  5374  001D22  0100               	movlb	0	; () banked
  5375  001D24  6FF0               	movwf	displayLineOnLCD@sizeOfArray& (0+255),b
  5376  001D26  ECC2  F011         	call	_displayLineOnLCD	;wreg free
  5377                           
  5378                           ;SysRiego.c: 718: }
  5379                           ;SysRiego.c: 721: while(input != '#') {
  5380  001D2A  D053               	goto	l5568
  5381  001D2C                     l5548:
  5382                           
  5383                           ;SysRiego.c: 723: input = getInput();
  5384  001D2C  EC42  F014         	call	_getInput	;wreg free
  5385  001D30  0100               	movlb	0	; () banked
  5386  001D32  6FFA               	movwf	manualConfiguration@input& (0+255),b
  5387                           
  5388                           ;SysRiego.c: 725: clearDisplay();
  5389  001D34  EC64  F015         	call	_clearDisplay	;wreg free
  5390                           
  5391                           ;SysRiego.c: 727: if(input == '1') {
  5392  001D38  0E31               	movlw	49
  5393  001D3A  0100               	movlb	0	; () banked
  5394  001D3C  19FA               	xorwf	manualConfiguration@input& (0+255),w,b
  5395  001D3E  A4D8               	btfss	status,2,c
  5396  001D40  D012               	goto	l5556
  5397                           
  5398                           ; BSR set to: 0
  5399                           ;SysRiego.c: 728: *zoneSelected = '1';
  5400  001D42  C03A  FFD9         	movff	_zoneSelected,fsr2l
  5401  001D46  C03B  FFDA         	movff	_zoneSelected+1,fsr2h
  5402  001D4A  0E31               	movlw	49
  5403  001D4C  6EDF               	movwf	indf2,c
  5404                           
  5405                           ; BSR set to: 0
  5406                           ;SysRiego.c: 729: displayLineOnLCD(manualActiveMessage, sizeof(manualActiveMessage) / si
      +                          zeof(manualActiveMessage[0]));
  5407  001D4E  0E9A               	movlw	low _manualActiveMessage
  5408  001D50  0100               	movlb	0	; () banked
  5409  001D52  6FEE               	movwf	displayLineOnLCD@array& (0+255),b
  5410  001D54  0E00               	movlw	high _manualActiveMessage
  5411  001D56  0100               	movlb	0	; () banked
  5412  001D58  6FEF               	movwf	(displayLineOnLCD@array+1)& (0+255),b
  5413  001D5A  0E07               	movlw	7
  5414  001D5C  0100               	movlb	0	; () banked
  5415  001D5E  6FF0               	movwf	displayLineOnLCD@sizeOfArray& (0+255),b
  5416  001D60  ECC2  F011         	call	_displayLineOnLCD	;wreg free
  5417                           
  5418                           ;SysRiego.c: 730: }
  5419  001D64  D036               	goto	l5568
  5420  001D66                     l5556:
  5421                           
  5422                           ;SysRiego.c: 732: else if (input == '0') {
  5423  001D66  0E30               	movlw	48
  5424  001D68  0100               	movlb	0	; () banked
  5425  001D6A  19FA               	xorwf	manualConfiguration@input& (0+255),w,b
  5426  001D6C  A4D8               	btfss	status,2,c
  5427  001D6E  D012               	goto	l5562
  5428                           
  5429                           ; BSR set to: 0
  5430                           ;SysRiego.c: 733: *zoneSelected = '0';
  5431  001D70  C03A  FFD9         	movff	_zoneSelected,fsr2l
  5432  001D74  C03B  FFDA         	movff	_zoneSelected+1,fsr2h
  5433  001D78  0E30               	movlw	48
  5434  001D7A  6EDF               	movwf	indf2,c
  5435                           
  5436                           ; BSR set to: 0
  5437                           ;SysRiego.c: 734: displayLineOnLCD(manualInactiveMessage, sizeof(manualInactiveMessage) 
      +                          / sizeof(manualInactiveMessage[0]));
  5438  001D7C  0E91               	movlw	low _manualInactiveMessage
  5439  001D7E  0100               	movlb	0	; () banked
  5440  001D80  6FEE               	movwf	displayLineOnLCD@array& (0+255),b
  5441  001D82  0E00               	movlw	high _manualInactiveMessage
  5442  001D84  0100               	movlb	0	; () banked
  5443  001D86  6FEF               	movwf	(displayLineOnLCD@array+1)& (0+255),b
  5444  001D88  0E09               	movlw	9
  5445  001D8A  0100               	movlb	0	; () banked
  5446  001D8C  6FF0               	movwf	displayLineOnLCD@sizeOfArray& (0+255),b
  5447  001D8E  ECC2  F011         	call	_displayLineOnLCD	;wreg free
  5448                           
  5449                           ;SysRiego.c: 735: }
  5450  001D92  D01F               	goto	l5568
  5451  001D94                     l5562:
  5452                           
  5453                           ;SysRiego.c: 737: else {
  5454                           ;SysRiego.c: 738: if (*zoneSelected == '1') {
  5455  001D94  C03A  FFD9         	movff	_zoneSelected,fsr2l
  5456  001D98  C03B  FFDA         	movff	_zoneSelected+1,fsr2h
  5457  001D9C  0E31               	movlw	49
  5458  001D9E  18DE               	xorwf	postinc2,w,c
  5459  001DA0  A4D8               	btfss	status,2,c
  5460  001DA2  D00C               	goto	l5566
  5461                           
  5462                           ;SysRiego.c: 739: displayLineOnLCD(manualActiveMessage, sizeof (manualActiveMessage) / s
      +                          izeof (manualActiveMessage[0]));
  5463  001DA4  0E9A               	movlw	low _manualActiveMessage
  5464  001DA6  0100               	movlb	0	; () banked
  5465  001DA8  6FEE               	movwf	displayLineOnLCD@array& (0+255),b
  5466  001DAA  0E00               	movlw	high _manualActiveMessage
  5467  001DAC  0100               	movlb	0	; () banked
  5468  001DAE  6FEF               	movwf	(displayLineOnLCD@array+1)& (0+255),b
  5469  001DB0  0E07               	movlw	7
  5470  001DB2  0100               	movlb	0	; () banked
  5471  001DB4  6FF0               	movwf	displayLineOnLCD@sizeOfArray& (0+255),b
  5472  001DB6  ECC2  F011         	call	_displayLineOnLCD	;wreg free
  5473                           
  5474                           ;SysRiego.c: 740: }
  5475  001DBA  D00B               	goto	l5568
  5476  001DBC                     l5566:
  5477                           
  5478                           ;SysRiego.c: 741: else {
  5479                           ;SysRiego.c: 742: displayLineOnLCD(manualInactiveMessage, sizeof (manualInactiveMessage)
      +                           / sizeof (manualInactiveMessage[0]));
  5480  001DBC  0E91               	movlw	low _manualInactiveMessage
  5481  001DBE  0100               	movlb	0	; () banked
  5482  001DC0  6FEE               	movwf	displayLineOnLCD@array& (0+255),b
  5483  001DC2  0E00               	movlw	high _manualInactiveMessage
  5484  001DC4  0100               	movlb	0	; () banked
  5485  001DC6  6FEF               	movwf	(displayLineOnLCD@array+1)& (0+255),b
  5486  001DC8  0E09               	movlw	9
  5487  001DCA  0100               	movlb	0	; () banked
  5488  001DCC  6FF0               	movwf	displayLineOnLCD@sizeOfArray& (0+255),b
  5489  001DCE  ECC2  F011         	call	_displayLineOnLCD	;wreg free
  5490  001DD2                     l5568:
  5491  001DD2  0E23               	movlw	35
  5492  001DD4  0100               	movlb	0	; () banked
  5493  001DD6  19FA               	xorwf	manualConfiguration@input& (0+255),w,b
  5494  001DD8  A4D8               	btfss	status,2,c
  5495  001DDA  D7A8               	goto	l5548
  5496                           
  5497                           ; BSR set to: 0
  5498                           ;SysRiego.c: 743: }
  5499                           ;SysRiego.c: 744: }
  5500                           ;SysRiego.c: 746: }
  5501                           ;SysRiego.c: 748: enableIntRBIE();
  5502                           
  5503                           ; BSR set to: 0
  5504  001DDC  EC76  F015         	call	_enableIntRBIE	;wreg free
  5505                           
  5506                           ;SysRiego.c: 750: statusConfiguration = 0;
  5507  001DE0  0E00               	movlw	0
  5508  001DE2  6E43               	movwf	_statusConfiguration,c
  5509  001DE4  0012               	return		;funcret
  5510  001DE6                     __end_of_manualConfiguration:
  5511                           	opt stack 0
  5512                           tblptru	equ	0xFF8
  5513                           tblptrh	equ	0xFF7
  5514                           tblptrl	equ	0xFF6
  5515                           tablat	equ	0xFF5
  5516                           prodh	equ	0xFF4
  5517                           prodl	equ	0xFF3
  5518                           intcon	equ	0xFF2
  5519                           intcon2	equ	0xFF1
  5520                           postinc0	equ	0xFEE
  5521                           wreg	equ	0xFE8
  5522                           indf1	equ	0xFE7
  5523                           postdec1	equ	0xFE5
  5524                           plusw1	equ	0xFE3
  5525                           fsr1h	equ	0xFE2
  5526                           fsr1l	equ	0xFE1
  5527                           indf2	equ	0xFDF
  5528                           postinc2	equ	0xFDE
  5529                           postdec2	equ	0xFDD
  5530                           plusw2	equ	0xFDB
  5531                           fsr2h	equ	0xFDA
  5532                           fsr2l	equ	0xFD9
  5533                           status	equ	0xFD8
  5534                           
  5535 ;; *************** function _automaticConfiguration *****************
  5536 ;; Defined at:
  5537 ;;		line 532 in file "SysRiego.c"
  5538 ;; Parameters:    Size  Location     Type
  5539 ;;		None
  5540 ;; Auto vars:     Size  Location     Type
  5541 ;;  input           1   15[BANK0 ] unsigned char 
  5542 ;;  counter         1   14[BANK0 ] unsigned char 
  5543 ;; Return value:  Size  Location     Type
  5544 ;;                  1    wreg      void 
  5545 ;; Registers used:
  5546 ;;		wreg, fsr0l, fsr0h, fsr2l, fsr2h, status,2, status,0, tblptrl, tblptrh, tblptru, prodl, prodh, cstack
  5547 ;; Tracked objects:
  5548 ;;		On entry : 0/0
  5549 ;;		On exit  : 0/0
  5550 ;;		Unchanged: 0/0
  5551 ;; Data sizes:     COMRAM   BANK0   BANK1   BANK2   BANK3   BANK4   BANK5   BANK6   BANK7   BANK8   BANK9  BANK10  BANK1
      +1  BANK12
  5552 ;;      Params:         0       0       0       0       0       0       0       0       0       0       0       0       
      +0       0
  5553 ;;      Locals:         0       2       0       0       0       0       0       0       0       0       0       0       
      +0       0
  5554 ;;      Temps:          0       1       0       0       0       0       0       0       0       0       0       0       
      +0       0
  5555 ;;      Totals:         0       3       0       0       0       0       0       0       0       0       0       0       
      +0       0
  5556 ;;Total ram usage:        3 bytes
  5557 ;; Hardware stack levels used:    1
  5558 ;; Hardware stack levels required when called:   12
  5559 ;; This function calls:
  5560 ;;		_clearDisplay
  5561 ;;		_convertCharsToInt
  5562 ;;		_disableIntRBIE
  5563 ;;		_displayCharOnLCD
  5564 ;;		_displayLineOnLCD
  5565 ;;		_enableIntRBIE
  5566 ;;		_getInput
  5567 ;; This function is called by:
  5568 ;;		_main
  5569 ;; This function uses a non-reentrant model
  5570 ;;
  5571                           
  5572                           	psect	text23
  5573  002146                     __ptext23:
  5574                           	opt stack 0
  5575  002146                     _automaticConfiguration:
  5576                           	opt stack 18
  5577                           
  5578                           ;SysRiego.c: 535: disableIntRBIE();
  5579                           
  5580                           ;incstack = 0
  5581  002146  EC7B  F015         	call	_disableIntRBIE	;wreg free
  5582                           
  5583                           ;SysRiego.c: 537: unsigned char input = ' ';
  5584  00214A  0E20               	movlw	32
  5585  00214C  0100               	movlb	0	; () banked
  5586  00214E  6FFB               	movwf	automaticConfiguration@input& (0+255),b
  5587                           
  5588                           ; BSR set to: 0
  5589                           ;SysRiego.c: 538: unsigned char counter = 0;
  5590  002150  0E00               	movlw	0
  5591  002152  0100               	movlb	0	; () banked
  5592  002154  6FFA               	movwf	automaticConfiguration@counter& (0+255),b
  5593                           
  5594                           ; BSR set to: 0
  5595                           ;SysRiego.c: 540: clearDisplay();
  5596  002156  EC64  F015         	call	_clearDisplay	;wreg free
  5597                           
  5598                           ;SysRiego.c: 541: displayLineOnLCD(configAutoMessage, sizeof(configAutoMessage) / sizeof
      +                          (configAutoMessage[0]));
  5599  00215A  0E32               	movlw	low _configAutoMessage
  5600  00215C  0100               	movlb	0	; () banked
  5601  00215E  6FEE               	movwf	displayLineOnLCD@array& (0+255),b
  5602  002160  0E01               	movlw	high _configAutoMessage
  5603  002162  0100               	movlb	0	; () banked
  5604  002164  6FEF               	movwf	(displayLineOnLCD@array+1)& (0+255),b
  5605  002166  0E0B               	movlw	11
  5606  002168  0100               	movlb	0	; () banked
  5607  00216A  6FF0               	movwf	displayLineOnLCD@sizeOfArray& (0+255),b
  5608  00216C  ECC2  F011         	call	_displayLineOnLCD	;wreg free
  5609                           
  5610                           ;SysRiego.c: 542: displayCharOnLCD(zoneSelected[0]);
  5611  002170  C03A  FFD9         	movff	_zoneSelected,fsr2l
  5612  002174  C03B  FFDA         	movff	_zoneSelected+1,fsr2h
  5613  002178  50DF               	movf	indf2,w,c
  5614  00217A  EC1D  F015         	call	_displayCharOnLCD
  5615                           
  5616                           ;SysRiego.c: 543: displayCharOnLCD(zoneSelected[1]);
  5617  00217E  EE20 F001          	lfsr	2,1
  5618  002182  503A               	movf	_zoneSelected,w,c
  5619  002184  26D9               	addwf	fsr2l,f,c
  5620  002186  503B               	movf	_zoneSelected+1,w,c
  5621  002188  22DA               	addwfc	fsr2h,f,c
  5622  00218A  50DF               	movf	indf2,w,c
  5623  00218C  EC1D  F015         	call	_displayCharOnLCD
  5624                           
  5625                           ;SysRiego.c: 546: while(input != '#') {
  5626  002190  D02F               	goto	l5404
  5627  002192                     l5388:
  5628                           
  5629                           ;SysRiego.c: 548: input = getInput();
  5630  002192  EC42  F014         	call	_getInput	;wreg free
  5631  002196  0100               	movlb	0	; () banked
  5632  002198  6FFB               	movwf	automaticConfiguration@input& (0+255),b
  5633                           
  5634                           ; BSR set to: 0
  5635                           ;SysRiego.c: 550: if(input != '#') {
  5636  00219A  0E23               	movlw	35
  5637  00219C  0100               	movlb	0	; () banked
  5638  00219E  19FB               	xorwf	automaticConfiguration@input& (0+255),w,b
  5639  0021A0  B4D8               	btfsc	status,2,c
  5640  0021A2  D026               	goto	l5404
  5641                           
  5642                           ; BSR set to: 0
  5643                           ;SysRiego.c: 551: zoneSelected[counter%2] = input;
  5644  0021A4  C0FA  F0F9         	movff	automaticConfiguration@counter,??_automaticConfiguration
  5645  0021A8  0E01               	movlw	1
  5646  0021AA  0100               	movlb	0	; () banked
  5647  0021AC  17F9               	andwf	??_automaticConfiguration& (0+255),f,b
  5648  0021AE  0100               	movlb	0	; () banked
  5649  0021B0  51F9               	movf	??_automaticConfiguration& (0+255),w,b
  5650  0021B2  243A               	addwf	_zoneSelected,w,c
  5651  0021B4  6ED9               	movwf	fsr2l,c
  5652  0021B6  0100               	movlb	0	; () banked
  5653  0021B8  0E00               	movlw	0
  5654  0021BA  203B               	addwfc	_zoneSelected+1,w,c
  5655  0021BC  6EDA               	movwf	fsr2h,c
  5656  0021BE  C0FB  FFDF         	movff	automaticConfiguration@input,indf2
  5657                           
  5658                           ; BSR set to: 0
  5659                           ;SysRiego.c: 552: clearDisplay();
  5660  0021C2  EC64  F015         	call	_clearDisplay	;wreg free
  5661                           
  5662                           ;SysRiego.c: 553: displayCharOnLCD(zoneSelected[0]);
  5663  0021C6  C03A  FFD9         	movff	_zoneSelected,fsr2l
  5664  0021CA  C03B  FFDA         	movff	_zoneSelected+1,fsr2h
  5665  0021CE  50DF               	movf	indf2,w,c
  5666  0021D0  EC1D  F015         	call	_displayCharOnLCD
  5667                           
  5668                           ;SysRiego.c: 554: displayCharOnLCD(zoneSelected[1]);
  5669  0021D4  EE20 F001          	lfsr	2,1
  5670  0021D8  503A               	movf	_zoneSelected,w,c
  5671  0021DA  26D9               	addwf	fsr2l,f,c
  5672  0021DC  503B               	movf	_zoneSelected+1,w,c
  5673  0021DE  22DA               	addwfc	fsr2h,f,c
  5674  0021E0  50DF               	movf	indf2,w,c
  5675  0021E2  EC1D  F015         	call	_displayCharOnLCD
  5676                           
  5677                           ;SysRiego.c: 555: displayCharOnLCD('%');
  5678  0021E6  0E25               	movlw	37
  5679  0021E8  EC1D  F015         	call	_displayCharOnLCD
  5680                           
  5681                           ;SysRiego.c: 556: counter++;
  5682  0021EC  0100               	movlb	0	; () banked
  5683  0021EE  2BFA               	incf	automaticConfiguration@counter& (0+255),f,b
  5684  0021F0                     l5404:
  5685  0021F0  0E23               	movlw	35
  5686  0021F2  0100               	movlb	0	; () banked
  5687  0021F4  19FB               	xorwf	automaticConfiguration@input& (0+255),w,b
  5688  0021F6  A4D8               	btfss	status,2,c
  5689  0021F8  D7CC               	goto	l5388
  5690                           
  5691                           ; BSR set to: 0
  5692                           ;SysRiego.c: 557: }
  5693                           ;SysRiego.c: 559: }
  5694                           ;SysRiego.c: 561: *humidityZnValInt = convertCharsToInt(zoneSelected);
  5695                           
  5696                           ; BSR set to: 0
  5697  0021FA  C03A  F0EC         	movff	_zoneSelected,convertCharsToInt@humidityValue
  5698  0021FE  C03B  F0ED         	movff	_zoneSelected+1,convertCharsToInt@humidityValue+1
  5699  002202  ECA4  F013         	call	_convertCharsToInt	;wreg free
  5700  002206  C038  FFD9         	movff	_humidityZnValInt,fsr2l
  5701  00220A  C039  FFDA         	movff	_humidityZnValInt+1,fsr2h
  5702  00220E  6EDF               	movwf	indf2,c
  5703                           
  5704                           ;SysRiego.c: 563: enableIntRBIE();
  5705  002210  EC76  F015         	call	_enableIntRBIE	;wreg free
  5706                           
  5707                           ;SysRiego.c: 565: statusConfiguration = 0;
  5708  002214  0E00               	movlw	0
  5709  002216  6E43               	movwf	_statusConfiguration,c
  5710  002218  0012               	return		;funcret
  5711  00221A                     __end_of_automaticConfiguration:
  5712                           	opt stack 0
  5713                           tblptru	equ	0xFF8
  5714                           tblptrh	equ	0xFF7
  5715                           tblptrl	equ	0xFF6
  5716                           tablat	equ	0xFF5
  5717                           prodh	equ	0xFF4
  5718                           prodl	equ	0xFF3
  5719                           intcon	equ	0xFF2
  5720                           intcon2	equ	0xFF1
  5721                           postinc0	equ	0xFEE
  5722                           wreg	equ	0xFE8
  5723                           indf1	equ	0xFE7
  5724                           postdec1	equ	0xFE5
  5725                           plusw1	equ	0xFE3
  5726                           fsr1h	equ	0xFE2
  5727                           fsr1l	equ	0xFE1
  5728                           indf2	equ	0xFDF
  5729                           postinc2	equ	0xFDE
  5730                           postdec2	equ	0xFDD
  5731                           plusw2	equ	0xFDB
  5732                           fsr2h	equ	0xFDA
  5733                           fsr2l	equ	0xFD9
  5734                           status	equ	0xFD8
  5735                           
  5736 ;; *************** function _getInput *****************
  5737 ;; Defined at:
  5738 ;;		line 986 in file "SysRiego.c"
  5739 ;; Parameters:    Size  Location     Type
  5740 ;;		None
  5741 ;; Auto vars:     Size  Location     Type
  5742 ;;		None
  5743 ;; Return value:  Size  Location     Type
  5744 ;;                  1    wreg      unsigned char 
  5745 ;; Registers used:
  5746 ;;		wreg, status,2, status,0, cstack
  5747 ;; Tracked objects:
  5748 ;;		On entry : 0/0
  5749 ;;		On exit  : 0/0
  5750 ;;		Unchanged: 0/0
  5751 ;; Data sizes:     COMRAM   BANK0   BANK1   BANK2   BANK3   BANK4   BANK5   BANK6   BANK7   BANK8   BANK9  BANK10  BANK1
      +1  BANK12
  5752 ;;      Params:         0       0       0       0       0       0       0       0       0       0       0       0       
      +0       0
  5753 ;;      Locals:         0       0       0       0       0       0       0       0       0       0       0       0       
      +0       0
  5754 ;;      Temps:          0       0       0       0       0       0       0       0       0       0       0       0       
      +0       0
  5755 ;;      Totals:         0       0       0       0       0       0       0       0       0       0       0       0       
      +0       0
  5756 ;;Total ram usage:        0 bytes
  5757 ;; Hardware stack levels used:    1
  5758 ;; Hardware stack levels required when called:   11
  5759 ;; This function calls:
  5760 ;;		_groundAllRows
  5761 ;;		_readInput
  5762 ;;		_resetReadInput
  5763 ;; This function is called by:
  5764 ;;		_automaticConfiguration
  5765 ;;		_timerConfiguration
  5766 ;;		_manualConfiguration
  5767 ;; This function uses a non-reentrant model
  5768 ;;
  5769                           
  5770                           	psect	text24
  5771  002884                     __ptext24:
  5772                           	opt stack 0
  5773  002884                     _getInput:
  5774                           	opt stack 18
  5775                           
  5776                           ;SysRiego.c: 988: getValueStatus = 0;
  5777                           
  5778                           ;incstack = 0
  5779  002884  0E00               	movlw	0
  5780  002886  6E3D               	movwf	_getValueStatus,c
  5781                           
  5782                           ;SysRiego.c: 990: oneShotFlag = 0;
  5783  002888  0E00               	movlw	0
  5784  00288A  6E41               	movwf	_oneShotFlag,c
  5785                           
  5786                           ;SysRiego.c: 992: while(getValueStatus == 0) {
  5787  00288C  D00B               	goto	l5010
  5788  00288E                     l5000:
  5789                           
  5790                           ;SysRiego.c: 994: groundAllRows();
  5791  00288E  EC71  F015         	call	_groundAllRows	;wreg free
  5792                           
  5793                           ;SysRiego.c: 996: if (PORTB != 0xF0) {
  5794  002892  0EF0               	movlw	240
  5795  002894  1881               	xorwf	3969,w,c	;volatile
  5796  002896  A4D8               	btfss	status,2,c
  5797                           
  5798                           ;SysRiego.c: 997: readInput();
  5799  002898  ECB3  F014         	call	_readInput	;wreg free
  5800                           
  5801                           ;SysRiego.c: 998: }
  5802                           ;SysRiego.c: 1000: if (oneShotFlag == 1) {
  5803  00289C  0441               	decf	_oneShotFlag,w,c
  5804  00289E  B4D8               	btfsc	status,2,c
  5805                           
  5806                           ;SysRiego.c: 1001: resetReadInput();
  5807  0028A0  ECA4  F014         	call	_resetReadInput	;wreg free
  5808  0028A4                     l5010:
  5809  0028A4  503D               	movf	_getValueStatus,w,c
  5810  0028A6  B4D8               	btfsc	status,2,c
  5811  0028A8  D7F2               	goto	l5000
  5812                           
  5813                           ;SysRiego.c: 1002: }
  5814                           ;SysRiego.c: 1004: }
  5815                           ;SysRiego.c: 1006: return keyCode;
  5816  0028AA  503F               	movf	_keyCode,w,c
  5817  0028AC  0012               	return	
  5818  0028AE                     __end_of_getInput:
  5819                           	opt stack 0
  5820                           tblptru	equ	0xFF8
  5821                           tblptrh	equ	0xFF7
  5822                           tblptrl	equ	0xFF6
  5823                           tablat	equ	0xFF5
  5824                           prodh	equ	0xFF4
  5825                           prodl	equ	0xFF3
  5826                           intcon	equ	0xFF2
  5827                           intcon2	equ	0xFF1
  5828                           postinc0	equ	0xFEE
  5829                           wreg	equ	0xFE8
  5830                           indf1	equ	0xFE7
  5831                           postdec1	equ	0xFE5
  5832                           plusw1	equ	0xFE3
  5833                           fsr1h	equ	0xFE2
  5834                           fsr1l	equ	0xFE1
  5835                           indf2	equ	0xFDF
  5836                           postinc2	equ	0xFDE
  5837                           postdec2	equ	0xFDD
  5838                           plusw2	equ	0xFDB
  5839                           fsr2h	equ	0xFDA
  5840                           fsr2l	equ	0xFD9
  5841                           status	equ	0xFD8
  5842                           
  5843 ;; *************** function _resetReadInput *****************
  5844 ;; Defined at:
  5845 ;;		line 1395 in file "SysRiego.c"
  5846 ;; Parameters:    Size  Location     Type
  5847 ;;		None
  5848 ;; Auto vars:     Size  Location     Type
  5849 ;;		None
  5850 ;; Return value:  Size  Location     Type
  5851 ;;                  1    wreg      void 
  5852 ;; Registers used:
  5853 ;;		wreg, status,2, status,0, cstack
  5854 ;; Tracked objects:
  5855 ;;		On entry : 0/0
  5856 ;;		On exit  : 0/0
  5857 ;;		Unchanged: 0/0
  5858 ;; Data sizes:     COMRAM   BANK0   BANK1   BANK2   BANK3   BANK4   BANK5   BANK6   BANK7   BANK8   BANK9  BANK10  BANK1
      +1  BANK12
  5859 ;;      Params:         0       0       0       0       0       0       0       0       0       0       0       0       
      +0       0
  5860 ;;      Locals:         0       0       0       0       0       0       0       0       0       0       0       0       
      +0       0
  5861 ;;      Temps:          0       0       0       0       0       0       0       0       0       0       0       0       
      +0       0
  5862 ;;      Totals:         0       0       0       0       0       0       0       0       0       0       0       0       
      +0       0
  5863 ;;Total ram usage:        0 bytes
  5864 ;; Hardware stack levels used:    1
  5865 ;; Hardware stack levels required when called:    8
  5866 ;; This function calls:
  5867 ;;		_delay
  5868 ;; This function is called by:
  5869 ;;		_getInput
  5870 ;; This function uses a non-reentrant model
  5871 ;;
  5872                           
  5873                           	psect	text25
  5874  002948                     __ptext25:
  5875                           	opt stack 0
  5876  002948                     _resetReadInput:
  5877                           	opt stack 20
  5878                           
  5879                           ;SysRiego.c: 1396: if (PORTB == 0xF0)
  5880                           
  5881                           ;incstack = 0
  5882  002948  0EF0               	movlw	240
  5883  00294A  1881               	xorwf	3969,w,c	;volatile
  5884  00294C  A4D8               	btfss	status,2,c
  5885  00294E  0012               	return	
  5886                           
  5887                           ;SysRiego.c: 1397: delay();
  5888  002950  EC57  F014         	call	_delay	;wreg free
  5889                           
  5890                           ;SysRiego.c: 1400: if (PORTB == 0XF0){
  5891                           
  5892                           ;SysRiego.c: 1398: else
  5893                           ;SysRiego.c: 1399: return;
  5894  002954  0EF0               	movlw	240
  5895  002956  1881               	xorwf	3969,w,c	;volatile
  5896  002958  A4D8               	btfss	status,2,c
  5897  00295A  0012               	return	
  5898                           
  5899                           ;SysRiego.c: 1401: oneShotFlag = 0;
  5900  00295C  0E00               	movlw	0
  5901  00295E  6E41               	movwf	_oneShotFlag,c
  5902                           
  5903                           ;SysRiego.c: 1402: getValueStatus = 1;
  5904  002960  0E01               	movlw	1
  5905  002962  6E3D               	movwf	_getValueStatus,c
  5906  002964  0012               	return	
  5907  002966                     __end_of_resetReadInput:
  5908                           	opt stack 0
  5909                           tblptru	equ	0xFF8
  5910                           tblptrh	equ	0xFF7
  5911                           tblptrl	equ	0xFF6
  5912                           tablat	equ	0xFF5
  5913                           prodh	equ	0xFF4
  5914                           prodl	equ	0xFF3
  5915                           intcon	equ	0xFF2
  5916                           intcon2	equ	0xFF1
  5917                           postinc0	equ	0xFEE
  5918                           wreg	equ	0xFE8
  5919                           indf1	equ	0xFE7
  5920                           postdec1	equ	0xFE5
  5921                           plusw1	equ	0xFE3
  5922                           fsr1h	equ	0xFE2
  5923                           fsr1l	equ	0xFE1
  5924                           indf2	equ	0xFDF
  5925                           postinc2	equ	0xFDE
  5926                           postdec2	equ	0xFDD
  5927                           plusw2	equ	0xFDB
  5928                           fsr2h	equ	0xFDA
  5929                           fsr2l	equ	0xFD9
  5930                           status	equ	0xFD8
  5931                           
  5932 ;; *************** function _readInput *****************
  5933 ;; Defined at:
  5934 ;;		line 1372 in file "SysRiego.c"
  5935 ;; Parameters:    Size  Location     Type
  5936 ;;		None
  5937 ;; Auto vars:     Size  Location     Type
  5938 ;;		None
  5939 ;; Return value:  Size  Location     Type
  5940 ;;                  1    wreg      void 
  5941 ;; Registers used:
  5942 ;;		wreg, status,2, status,0, cstack
  5943 ;; Tracked objects:
  5944 ;;		On entry : 0/0
  5945 ;;		On exit  : 0/0
  5946 ;;		Unchanged: 0/0
  5947 ;; Data sizes:     COMRAM   BANK0   BANK1   BANK2   BANK3   BANK4   BANK5   BANK6   BANK7   BANK8   BANK9  BANK10  BANK1
      +1  BANK12
  5948 ;;      Params:         0       0       0       0       0       0       0       0       0       0       0       0       
      +0       0
  5949 ;;      Locals:         0       0       0       0       0       0       0       0       0       0       0       0       
      +0       0
  5950 ;;      Temps:          0       0       0       0       0       0       0       0       0       0       0       0       
      +0       0
  5951 ;;      Totals:         0       0       0       0       0       0       0       0       0       0       0       0       
      +0       0
  5952 ;;Total ram usage:        0 bytes
  5953 ;; Hardware stack levels used:    1
  5954 ;; Hardware stack levels required when called:   10
  5955 ;; This function calls:
  5956 ;;		_delay
  5957 ;;		_readKey
  5958 ;; This function is called by:
  5959 ;;		_getInput
  5960 ;; This function uses a non-reentrant model
  5961 ;;
  5962                           
  5963                           	psect	text26
  5964  002966                     __ptext26:
  5965                           	opt stack 0
  5966  002966                     _readInput:
  5967                           	opt stack 18
  5968                           
  5969                           ;SysRiego.c: 1373: if (oneShotFlag == 1)
  5970                           
  5971                           ;incstack = 0
  5972  002966  0441               	decf	_oneShotFlag,w,c
  5973  002968  B4D8               	btfsc	status,2,c
  5974  00296A  0012               	return	
  5975                           
  5976                           ;SysRiego.c: 1375: delay();
  5977                           
  5978                           ;SysRiego.c: 1374: return;
  5979  00296C  EC57  F014         	call	_delay	;wreg free
  5980                           
  5981                           ;SysRiego.c: 1376: if (PORTB != 0xF0){
  5982  002970  0EF0               	movlw	240
  5983  002972  1881               	xorwf	3969,w,c	;volatile
  5984  002974  B4D8               	btfsc	status,2,c
  5985  002976  0012               	return	
  5986                           
  5987                           ;SysRiego.c: 1377: readKey();
  5988  002978  EC49  F013         	call	_readKey	;wreg free
  5989                           
  5990                           ;SysRiego.c: 1378: oneShotFlag = 1;
  5991  00297C  0E01               	movlw	1
  5992  00297E  6E41               	movwf	_oneShotFlag,c
  5993  002980  0012               	return	
  5994  002982                     __end_of_readInput:
  5995                           	opt stack 0
  5996                           tblptru	equ	0xFF8
  5997                           tblptrh	equ	0xFF7
  5998                           tblptrl	equ	0xFF6
  5999                           tablat	equ	0xFF5
  6000                           prodh	equ	0xFF4
  6001                           prodl	equ	0xFF3
  6002                           intcon	equ	0xFF2
  6003                           intcon2	equ	0xFF1
  6004                           postinc0	equ	0xFEE
  6005                           wreg	equ	0xFE8
  6006                           indf1	equ	0xFE7
  6007                           postdec1	equ	0xFE5
  6008                           plusw1	equ	0xFE3
  6009                           fsr1h	equ	0xFE2
  6010                           fsr1l	equ	0xFE1
  6011                           indf2	equ	0xFDF
  6012                           postinc2	equ	0xFDE
  6013                           postdec2	equ	0xFDD
  6014                           plusw2	equ	0xFDB
  6015                           fsr2h	equ	0xFDA
  6016                           fsr2l	equ	0xFD9
  6017                           status	equ	0xFD8
  6018                           
  6019 ;; *************** function _readKey *****************
  6020 ;; Defined at:
  6021 ;;		line 1382 in file "SysRiego.c"
  6022 ;; Parameters:    Size  Location     Type
  6023 ;;		None
  6024 ;; Auto vars:     Size  Location     Type
  6025 ;;		None
  6026 ;; Return value:  Size  Location     Type
  6027 ;;                  1    wreg      void 
  6028 ;; Registers used:
  6029 ;;		wreg, status,2, status,0, cstack
  6030 ;; Tracked objects:
  6031 ;;		On entry : 0/0
  6032 ;;		On exit  : 0/0
  6033 ;;		Unchanged: 0/0
  6034 ;; Data sizes:     COMRAM   BANK0   BANK1   BANK2   BANK3   BANK4   BANK5   BANK6   BANK7   BANK8   BANK9  BANK10  BANK1
      +1  BANK12
  6035 ;;      Params:         0       0       0       0       0       0       0       0       0       0       0       0       
      +0       0
  6036 ;;      Locals:         0       0       0       0       0       0       0       0       0       0       0       0       
      +0       0
  6037 ;;      Temps:          0       0       0       0       0       0       0       0       0       0       0       0       
      +0       0
  6038 ;;      Totals:         0       0       0       0       0       0       0       0       0       0       0       0       
      +0       0
  6039 ;;Total ram usage:        0 bytes
  6040 ;; Hardware stack levels used:    1
  6041 ;; Hardware stack levels required when called:    9
  6042 ;; This function calls:
  6043 ;;		_determinePressedRow
  6044 ;;		_getKeyCode
  6045 ;; This function is called by:
  6046 ;;		_readInput
  6047 ;; This function uses a non-reentrant model
  6048 ;;
  6049                           
  6050                           	psect	text27
  6051  002692                     __ptext27:
  6052                           	opt stack 0
  6053  002692                     _readKey:
  6054                           	opt stack 18
  6055                           
  6056                           ;SysRiego.c: 1384: switch(PORTB){
  6057                           
  6058                           ;incstack = 0
  6059  002692  D00B               	goto	l4826
  6060  002694                     l4816:
  6061  002694  0E01               	movlw	1
  6062  002696  D007               	goto	L6
  6063  002698                     l4818:
  6064  002698  0E02               	movlw	2
  6065  00269A  D005               	goto	L6
  6066  00269C                     l4820:
  6067  00269C  0E03               	movlw	3
  6068  00269E  D003               	goto	L6
  6069  0026A0                     l4822:
  6070  0026A0  0E04               	movlw	4
  6071  0026A2  D001               	goto	L6
  6072  0026A4                     l4824:
  6073  0026A4  0E64               	movlw	100
  6074  0026A6                     L6:
  6075  0026A6  6E3C               	movwf	_columnSelected,c
  6076                           
  6077                           ;SysRiego.c: 1390: }
  6078  0026A8  D00E               	goto	l4828
  6079  0026AA                     l4826:
  6080  0026AA  5081               	movf	3969,w,c	;volatile
  6081                           
  6082                           ; Switch size 1, requested type "space"
  6083                           ; Number of cases is 4, Range of values is 112 to 224
  6084                           ; switch strategies available:
  6085                           ; Name         Instructions Cycles
  6086                           ; simple_byte           13     7 (average)
  6087                           ;	Chosen strategy is simple_byte
  6088  0026AC  0A70               	xorlw	112	; case 112
  6089  0026AE  B4D8               	btfsc	status,2,c
  6090  0026B0  D7F7               	goto	l4822
  6091  0026B2  0AC0               	xorlw	192	; case 176
  6092  0026B4  B4D8               	btfsc	status,2,c
  6093  0026B6  D7F2               	goto	l4820
  6094  0026B8  0A60               	xorlw	96	; case 208
  6095  0026BA  B4D8               	btfsc	status,2,c
  6096  0026BC  D7ED               	goto	l4818
  6097  0026BE  0A30               	xorlw	48	; case 224
  6098  0026C0  B4D8               	btfsc	status,2,c
  6099  0026C2  D7E8               	goto	l4816
  6100  0026C4  D7EF               	goto	l4824
  6101  0026C6                     l4828:
  6102                           
  6103                           ;SysRiego.c: 1391: determinePressedRow();
  6104  0026C6  ECBB  F00C         	call	_determinePressedRow	;wreg free
  6105                           
  6106                           ;SysRiego.c: 1392: keyCode = getKeyCode();
  6107  0026CA  ECCB  F00F         	call	_getKeyCode	;wreg free
  6108  0026CE  6E3F               	movwf	_keyCode,c
  6109  0026D0  0012               	return		;funcret
  6110  0026D2                     __end_of_readKey:
  6111                           	opt stack 0
  6112                           tblptru	equ	0xFF8
  6113                           tblptrh	equ	0xFF7
  6114                           tblptrl	equ	0xFF6
  6115                           tablat	equ	0xFF5
  6116                           prodh	equ	0xFF4
  6117                           prodl	equ	0xFF3
  6118                           intcon	equ	0xFF2
  6119                           intcon2	equ	0xFF1
  6120                           postinc0	equ	0xFEE
  6121                           wreg	equ	0xFE8
  6122                           indf1	equ	0xFE7
  6123                           postdec1	equ	0xFE5
  6124                           plusw1	equ	0xFE3
  6125                           fsr1h	equ	0xFE2
  6126                           fsr1l	equ	0xFE1
  6127                           indf2	equ	0xFDF
  6128                           postinc2	equ	0xFDE
  6129                           postdec2	equ	0xFDD
  6130                           plusw2	equ	0xFDB
  6131                           fsr2h	equ	0xFDA
  6132                           fsr2l	equ	0xFD9
  6133                           status	equ	0xFD8
  6134                           
  6135 ;; *************** function _getKeyCode *****************
  6136 ;; Defined at:
  6137 ;;		line 1157 in file "SysRiego.c"
  6138 ;; Parameters:    Size  Location     Type
  6139 ;;		None
  6140 ;; Auto vars:     Size  Location     Type
  6141 ;;		None
  6142 ;; Return value:  Size  Location     Type
  6143 ;;                  1    wreg      unsigned char 
  6144 ;; Registers used:
  6145 ;;		wreg, status,2, status,0
  6146 ;; Tracked objects:
  6147 ;;		On entry : 0/0
  6148 ;;		On exit  : 0/0
  6149 ;;		Unchanged: 0/0
  6150 ;; Data sizes:     COMRAM   BANK0   BANK1   BANK2   BANK3   BANK4   BANK5   BANK6   BANK7   BANK8   BANK9  BANK10  BANK1
      +1  BANK12
  6151 ;;      Params:         0       0       0       0       0       0       0       0       0       0       0       0       
      +0       0
  6152 ;;      Locals:         0       0       0       0       0       0       0       0       0       0       0       0       
      +0       0
  6153 ;;      Temps:          0       0       0       0       0       0       0       0       0       0       0       0       
      +0       0
  6154 ;;      Totals:         0       0       0       0       0       0       0       0       0       0       0       0       
      +0       0
  6155 ;;Total ram usage:        0 bytes
  6156 ;; Hardware stack levels used:    1
  6157 ;; Hardware stack levels required when called:    7
  6158 ;; This function calls:
  6159 ;;		Nothing
  6160 ;; This function is called by:
  6161 ;;		_readKey
  6162 ;; This function uses a non-reentrant model
  6163 ;;
  6164                           
  6165                           	psect	text28
  6166  001F96                     __ptext28:
  6167                           	opt stack 0
  6168  001F96                     _getKeyCode:
  6169                           	opt stack 19
  6170                           
  6171                           ;SysRiego.c: 1158: if(rowSelected == 1){
  6172                           
  6173                           ;incstack = 0
  6174  001F96  0442               	decf	_rowSelected,w,c
  6175  001F98  B4D8               	btfsc	status,2,c
  6176  001F9A  D009               	goto	l4722
  6177  001F9C  D016               	goto	l4724
  6178  001F9E                     l4704:
  6179  001F9E  0E31               	movlw	49
  6180  001FA0  0012               	return	
  6181  001FA2                     l4708:
  6182  001FA2  0E32               	movlw	50
  6183  001FA4  0012               	return	
  6184  001FA6                     l4712:
  6185  001FA6  0E33               	movlw	51
  6186  001FA8  0012               	return	
  6187  001FAA                     l4716:
  6188  001FAA  0E41               	movlw	65
  6189  001FAC  0012               	return	
  6190  001FAE                     l4722:
  6191  001FAE  503C               	movf	_columnSelected,w,c
  6192                           
  6193                           ; Switch size 1, requested type "space"
  6194                           ; Number of cases is 4, Range of values is 1 to 4
  6195                           ; switch strategies available:
  6196                           ; Name         Instructions Cycles
  6197                           ; simple_byte           13     7 (average)
  6198                           ;	Chosen strategy is simple_byte
  6199  001FB0  0A01               	xorlw	1	; case 1
  6200  001FB2  B4D8               	btfsc	status,2,c
  6201  001FB4  D7F4               	goto	l4704
  6202  001FB6  0A03               	xorlw	3	; case 2
  6203  001FB8  B4D8               	btfsc	status,2,c
  6204  001FBA  D7F3               	goto	l4708
  6205  001FBC  0A01               	xorlw	1	; case 3
  6206  001FBE  B4D8               	btfsc	status,2,c
  6207  001FC0  D7F2               	goto	l4712
  6208  001FC2  0A07               	xorlw	7	; case 4
  6209  001FC4  B4D8               	btfsc	status,2,c
  6210  001FC6  D7F1               	goto	l4716
  6211                           
  6212                           ;SysRiego.c: 1165: }
  6213  001FC8  D050               	goto	l4796
  6214  001FCA                     l4724:
  6215                           
  6216                           ;SysRiego.c: 1166: else if(rowSelected == 2){
  6217  001FCA  0E02               	movlw	2
  6218  001FCC  1842               	xorwf	_rowSelected,w,c
  6219  001FCE  B4D8               	btfsc	status,2,c
  6220  001FD0  D009               	goto	l4746
  6221  001FD2  D016               	goto	l4748
  6222  001FD4                     l4728:
  6223  001FD4  0E34               	movlw	52
  6224  001FD6  0012               	return	
  6225  001FD8                     l4732:
  6226  001FD8  0E35               	movlw	53
  6227  001FDA  0012               	return	
  6228  001FDC                     l4736:
  6229  001FDC  0E36               	movlw	54
  6230  001FDE  0012               	return	
  6231  001FE0                     l4740:
  6232  001FE0  0E42               	movlw	66
  6233  001FE2  0012               	return	
  6234  001FE4                     l4746:
  6235  001FE4  503C               	movf	_columnSelected,w,c
  6236                           
  6237                           ; Switch size 1, requested type "space"
  6238                           ; Number of cases is 4, Range of values is 1 to 4
  6239                           ; switch strategies available:
  6240                           ; Name         Instructions Cycles
  6241                           ; simple_byte           13     7 (average)
  6242                           ;	Chosen strategy is simple_byte
  6243  001FE6  0A01               	xorlw	1	; case 1
  6244  001FE8  B4D8               	btfsc	status,2,c
  6245  001FEA  D7F4               	goto	l4728
  6246  001FEC  0A03               	xorlw	3	; case 2
  6247  001FEE  B4D8               	btfsc	status,2,c
  6248  001FF0  D7F3               	goto	l4732
  6249  001FF2  0A01               	xorlw	1	; case 3
  6250  001FF4  B4D8               	btfsc	status,2,c
  6251  001FF6  D7F2               	goto	l4736
  6252  001FF8  0A07               	xorlw	7	; case 4
  6253  001FFA  B4D8               	btfsc	status,2,c
  6254  001FFC  D7F1               	goto	l4740
  6255                           
  6256                           ;SysRiego.c: 1173: }
  6257  001FFE  D035               	goto	l4796
  6258  002000                     l4748:
  6259                           
  6260                           ;SysRiego.c: 1174: else if(rowSelected == 3){
  6261  002000  0E03               	movlw	3
  6262  002002  1842               	xorwf	_rowSelected,w,c
  6263  002004  B4D8               	btfsc	status,2,c
  6264  002006  D009               	goto	l4770
  6265  002008  D016               	goto	l4772
  6266  00200A                     l4752:
  6267  00200A  0E37               	movlw	55
  6268  00200C  0012               	return	
  6269  00200E                     l4756:
  6270  00200E  0E38               	movlw	56
  6271  002010  0012               	return	
  6272  002012                     l4760:
  6273  002012  0E39               	movlw	57
  6274  002014  0012               	return	
  6275  002016                     l4764:
  6276  002016  0E43               	movlw	67
  6277  002018  0012               	return	
  6278  00201A                     l4770:
  6279  00201A  503C               	movf	_columnSelected,w,c
  6280                           
  6281                           ; Switch size 1, requested type "space"
  6282                           ; Number of cases is 4, Range of values is 1 to 4
  6283                           ; switch strategies available:
  6284                           ; Name         Instructions Cycles
  6285                           ; simple_byte           13     7 (average)
  6286                           ;	Chosen strategy is simple_byte
  6287  00201C  0A01               	xorlw	1	; case 1
  6288  00201E  B4D8               	btfsc	status,2,c
  6289  002020  D7F4               	goto	l4752
  6290  002022  0A03               	xorlw	3	; case 2
  6291  002024  B4D8               	btfsc	status,2,c
  6292  002026  D7F3               	goto	l4756
  6293  002028  0A01               	xorlw	1	; case 3
  6294  00202A  B4D8               	btfsc	status,2,c
  6295  00202C  D7F2               	goto	l4760
  6296  00202E  0A07               	xorlw	7	; case 4
  6297  002030  B4D8               	btfsc	status,2,c
  6298  002032  D7F1               	goto	l4764
  6299                           
  6300                           ;SysRiego.c: 1181: }
  6301  002034  D01A               	goto	l4796
  6302  002036                     l4772:
  6303                           
  6304                           ;SysRiego.c: 1182: else if(rowSelected == 4){
  6305  002036  0E04               	movlw	4
  6306  002038  1842               	xorwf	_rowSelected,w,c
  6307  00203A  B4D8               	btfsc	status,2,c
  6308  00203C  D009               	goto	l4794
  6309  00203E  D015               	goto	l4796
  6310  002040                     l4776:
  6311  002040  0E2A               	movlw	42
  6312  002042  0012               	return	
  6313  002044                     l4780:
  6314  002044  0E30               	movlw	48
  6315  002046  0012               	return	
  6316  002048                     l4784:
  6317  002048  0E23               	movlw	35
  6318  00204A  0012               	return	
  6319  00204C                     l4788:
  6320  00204C  0E44               	movlw	68
  6321  00204E  0012               	return	
  6322  002050                     l4794:
  6323  002050  503C               	movf	_columnSelected,w,c
  6324                           
  6325                           ; Switch size 1, requested type "space"
  6326                           ; Number of cases is 4, Range of values is 1 to 4
  6327                           ; switch strategies available:
  6328                           ; Name         Instructions Cycles
  6329                           ; simple_byte           13     7 (average)
  6330                           ;	Chosen strategy is simple_byte
  6331  002052  0A01               	xorlw	1	; case 1
  6332  002054  B4D8               	btfsc	status,2,c
  6333  002056  D7F4               	goto	l4776
  6334  002058  0A03               	xorlw	3	; case 2
  6335  00205A  B4D8               	btfsc	status,2,c
  6336  00205C  D7F3               	goto	l4780
  6337  00205E  0A01               	xorlw	1	; case 3
  6338  002060  B4D8               	btfsc	status,2,c
  6339  002062  D7F2               	goto	l4784
  6340  002064  0A07               	xorlw	7	; case 4
  6341  002066  B4D8               	btfsc	status,2,c
  6342  002068  D7F1               	goto	l4788
  6343  00206A                     l4796:
  6344                           
  6345                           ;SysRiego.c: 1189: }
  6346                           ;SysRiego.c: 1190: return -1;
  6347  00206A  0EFF               	movlw	255
  6348  00206C  0012               	return	
  6349  00206E                     __end_of_getKeyCode:
  6350                           	opt stack 0
  6351                           tblptru	equ	0xFF8
  6352                           tblptrh	equ	0xFF7
  6353                           tblptrl	equ	0xFF6
  6354                           tablat	equ	0xFF5
  6355                           prodh	equ	0xFF4
  6356                           prodl	equ	0xFF3
  6357                           intcon	equ	0xFF2
  6358                           intcon2	equ	0xFF1
  6359                           postinc0	equ	0xFEE
  6360                           wreg	equ	0xFE8
  6361                           indf1	equ	0xFE7
  6362                           postdec1	equ	0xFE5
  6363                           plusw1	equ	0xFE3
  6364                           fsr1h	equ	0xFE2
  6365                           fsr1l	equ	0xFE1
  6366                           indf2	equ	0xFDF
  6367                           postinc2	equ	0xFDE
  6368                           postdec2	equ	0xFDD
  6369                           plusw2	equ	0xFDB
  6370                           fsr2h	equ	0xFDA
  6371                           fsr2l	equ	0xFD9
  6372                           status	equ	0xFD8
  6373                           
  6374 ;; *************** function _determinePressedRow *****************
  6375 ;; Defined at:
  6376 ;;		line 1068 in file "SysRiego.c"
  6377 ;; Parameters:    Size  Location     Type
  6378 ;;		None
  6379 ;; Auto vars:     Size  Location     Type
  6380 ;;  i               1    0[BANK0 ] unsigned char 
  6381 ;; Return value:  Size  Location     Type
  6382 ;;                  1    wreg      void 
  6383 ;; Registers used:
  6384 ;;		wreg, status,2, status,0, cstack
  6385 ;; Tracked objects:
  6386 ;;		On entry : 0/0
  6387 ;;		On exit  : 0/0
  6388 ;;		Unchanged: 0/0
  6389 ;; Data sizes:     COMRAM   BANK0   BANK1   BANK2   BANK3   BANK4   BANK5   BANK6   BANK7   BANK8   BANK9  BANK10  BANK1
      +1  BANK12
  6390 ;;      Params:         0       0       0       0       0       0       0       0       0       0       0       0       
      +0       0
  6391 ;;      Locals:         0       1       0       0       0       0       0       0       0       0       0       0       
      +0       0
  6392 ;;      Temps:          0       0       0       0       0       0       0       0       0       0       0       0       
      +0       0
  6393 ;;      Totals:         0       1       0       0       0       0       0       0       0       0       0       0       
      +0       0
  6394 ;;Total ram usage:        1 bytes
  6395 ;; Hardware stack levels used:    1
  6396 ;; Hardware stack levels required when called:    8
  6397 ;; This function calls:
  6398 ;;		_turnOnAllRows
  6399 ;; This function is called by:
  6400 ;;		_readKey
  6401 ;; This function uses a non-reentrant model
  6402 ;;
  6403                           
  6404                           	psect	text29
  6405  001976                     __ptext29:
  6406                           	opt stack 0
  6407  001976                     _determinePressedRow:
  6408                           	opt stack 18
  6409                           
  6410                           ;SysRiego.c: 1069: char i;
  6411                           ;SysRiego.c: 1070: for(i=0; i<4; i++){
  6412                           
  6413                           ;incstack = 0
  6414  001976  0E00               	movlw	0
  6415  001978  0100               	movlb	0	; () banked
  6416  00197A  6FEC               	movwf	determinePressedRow@i& (0+255),b
  6417  00197C                     l4558:
  6418                           
  6419                           ; BSR set to: 0
  6420  00197C  0E03               	movlw	3
  6421  00197E  0100               	movlb	0	; () banked
  6422  001980  65EC               	cpfsgt	determinePressedRow@i& (0+255),b
  6423  001982  D001               	goto	l4562
  6424  001984  0012               	return	
  6425  001986                     l4562:
  6426                           
  6427                           ; BSR set to: 0
  6428                           ;SysRiego.c: 1071: turnOnAllRows();
  6429  001986  EC6C  F015         	call	_turnOnAllRows	;wreg free
  6430                           
  6431                           ;SysRiego.c: 1072: switch(i){
  6432  00198A  D07D               	goto	l4694
  6433  00198C                     l506:
  6434                           
  6435                           ; BSR set to: 0
  6436                           ;SysRiego.c: 1075: PORTBbits.RB0 = 0;
  6437  00198C  9081               	bcf	3969,0,c	;volatile
  6438                           
  6439                           ; BSR set to: 0
  6440                           ;SysRiego.c: 1077: if( (columnSelected == 1) && (PORTBbits.RB4 == 0)){
  6441  00198E  043C               	decf	_columnSelected,w,c
  6442  001990  B4D8               	btfsc	status,2,c
  6443                           
  6444                           ; BSR set to: 0
  6445  001992  B881               	btfsc	3969,4,c	;volatile
  6446  001994  D003               	goto	l4572
  6447                           
  6448                           ; BSR set to: 0
  6449                           ;SysRiego.c: 1078: rowSelected = 1;
  6450  001996  0E01               	movlw	1
  6451  001998  6E42               	movwf	_rowSelected,c
  6452                           
  6453                           ; BSR set to: 0
  6454                           ;SysRiego.c: 1079: return;
  6455  00199A  0012               	return	
  6456  00199C                     l4572:
  6457                           
  6458                           ; BSR set to: 0
  6459                           ;SysRiego.c: 1080: }
  6460                           ;SysRiego.c: 1081: if( (columnSelected == 2) && (PORTBbits.RB5 == 0)){
  6461  00199C  0E02               	movlw	2
  6462  00199E  183C               	xorwf	_columnSelected,w,c
  6463  0019A0  B4D8               	btfsc	status,2,c
  6464                           
  6465                           ; BSR set to: 0
  6466  0019A2  BA81               	btfsc	3969,5,c	;volatile
  6467  0019A4  D003               	goto	l4580
  6468                           
  6469                           ; BSR set to: 0
  6470                           ;SysRiego.c: 1082: rowSelected = 1;
  6471  0019A6  0E01               	movlw	1
  6472  0019A8  6E42               	movwf	_rowSelected,c
  6473                           
  6474                           ; BSR set to: 0
  6475                           ;SysRiego.c: 1083: return;
  6476  0019AA  0012               	return	
  6477  0019AC                     l4580:
  6478                           
  6479                           ; BSR set to: 0
  6480                           ;SysRiego.c: 1084: }
  6481                           ;SysRiego.c: 1085: if( (columnSelected == 3) && (PORTBbits.RB6 == 0)){
  6482  0019AC  0E03               	movlw	3
  6483  0019AE  183C               	xorwf	_columnSelected,w,c
  6484  0019B0  B4D8               	btfsc	status,2,c
  6485                           
  6486                           ; BSR set to: 0
  6487  0019B2  BC81               	btfsc	3969,6,c	;volatile
  6488  0019B4  D003               	goto	l4588
  6489                           
  6490                           ; BSR set to: 0
  6491                           ;SysRiego.c: 1086: rowSelected = 1;
  6492  0019B6  0E01               	movlw	1
  6493  0019B8  6E42               	movwf	_rowSelected,c
  6494                           
  6495                           ; BSR set to: 0
  6496                           ;SysRiego.c: 1087: return;
  6497  0019BA  0012               	return	
  6498  0019BC                     l4588:
  6499                           
  6500                           ; BSR set to: 0
  6501                           ;SysRiego.c: 1088: }
  6502                           ;SysRiego.c: 1089: if( (columnSelected == 4) && (PORTBbits.RB7 == 0)){
  6503  0019BC  0E04               	movlw	4
  6504  0019BE  183C               	xorwf	_columnSelected,w,c
  6505  0019C0  B4D8               	btfsc	status,2,c
  6506                           
  6507                           ; BSR set to: 0
  6508  0019C2  BE81               	btfsc	3969,7,c	;volatile
  6509  0019C4  D06E               	goto	l4696
  6510                           
  6511                           ; BSR set to: 0
  6512                           ;SysRiego.c: 1090: rowSelected = 1;
  6513  0019C6  0E01               	movlw	1
  6514  0019C8                     L7:
  6515  0019C8  6E42               	movwf	_rowSelected,c
  6516                           
  6517                           ; BSR set to: 0
  6518                           ;SysRiego.c: 1091: return;
  6519  0019CA  0012               	return	
  6520  0019CC                     l513:
  6521                           
  6522                           ; BSR set to: 0
  6523                           ;SysRiego.c: 1095: PORTBbits.RB1 = 0;
  6524  0019CC  9281               	bcf	3969,1,c	;volatile
  6525                           
  6526                           ; BSR set to: 0
  6527                           ;SysRiego.c: 1096: if( (columnSelected == 1) && (PORTBbits.RB4 == 0)){
  6528  0019CE  043C               	decf	_columnSelected,w,c
  6529  0019D0  B4D8               	btfsc	status,2,c
  6530                           
  6531                           ; BSR set to: 0
  6532  0019D2  B881               	btfsc	3969,4,c	;volatile
  6533  0019D4  D003               	goto	l4604
  6534                           
  6535                           ; BSR set to: 0
  6536                           ;SysRiego.c: 1097: rowSelected = 2;
  6537  0019D6  0E02               	movlw	2
  6538  0019D8  6E42               	movwf	_rowSelected,c
  6539                           
  6540                           ; BSR set to: 0
  6541                           ;SysRiego.c: 1098: return;
  6542  0019DA  0012               	return	
  6543  0019DC                     l4604:
  6544                           
  6545                           ; BSR set to: 0
  6546                           ;SysRiego.c: 1099: }
  6547                           ;SysRiego.c: 1100: if( (columnSelected == 2) && (PORTBbits.RB5 == 0)){
  6548  0019DC  0E02               	movlw	2
  6549  0019DE  183C               	xorwf	_columnSelected,w,c
  6550  0019E0  B4D8               	btfsc	status,2,c
  6551                           
  6552                           ; BSR set to: 0
  6553  0019E2  BA81               	btfsc	3969,5,c	;volatile
  6554  0019E4  D003               	goto	l4612
  6555                           
  6556                           ; BSR set to: 0
  6557                           ;SysRiego.c: 1101: rowSelected = 2;
  6558  0019E6  0E02               	movlw	2
  6559  0019E8  6E42               	movwf	_rowSelected,c
  6560                           
  6561                           ; BSR set to: 0
  6562                           ;SysRiego.c: 1102: return;
  6563  0019EA  0012               	return	
  6564  0019EC                     l4612:
  6565                           
  6566                           ; BSR set to: 0
  6567                           ;SysRiego.c: 1103: }
  6568                           ;SysRiego.c: 1104: if( (columnSelected == 3) && (PORTBbits.RB6 == 0)){
  6569  0019EC  0E03               	movlw	3
  6570  0019EE  183C               	xorwf	_columnSelected,w,c
  6571  0019F0  B4D8               	btfsc	status,2,c
  6572                           
  6573                           ; BSR set to: 0
  6574  0019F2  BC81               	btfsc	3969,6,c	;volatile
  6575  0019F4  D003               	goto	l4620
  6576                           
  6577                           ; BSR set to: 0
  6578                           ;SysRiego.c: 1105: rowSelected = 2;
  6579  0019F6  0E02               	movlw	2
  6580  0019F8  6E42               	movwf	_rowSelected,c
  6581                           
  6582                           ; BSR set to: 0
  6583                           ;SysRiego.c: 1106: return;
  6584  0019FA  0012               	return	
  6585  0019FC                     l4620:
  6586                           
  6587                           ; BSR set to: 0
  6588                           ;SysRiego.c: 1107: }
  6589                           ;SysRiego.c: 1108: if( (columnSelected == 4) && (PORTBbits.RB7 == 0)){
  6590  0019FC  0E04               	movlw	4
  6591  0019FE  183C               	xorwf	_columnSelected,w,c
  6592  001A00  B4D8               	btfsc	status,2,c
  6593                           
  6594                           ; BSR set to: 0
  6595  001A02  BE81               	btfsc	3969,7,c	;volatile
  6596  001A04  D04E               	goto	l4696
  6597                           
  6598                           ; BSR set to: 0
  6599                           ;SysRiego.c: 1109: rowSelected = 2;
  6600  001A06  0E02               	movlw	2
  6601  001A08  D7DF               	goto	L7
  6602  001A0A                     l518:
  6603                           
  6604                           ; BSR set to: 0
  6605                           ;SysRiego.c: 1114: PORTBbits.RB2 = 0;
  6606  001A0A  9481               	bcf	3969,2,c	;volatile
  6607                           
  6608                           ; BSR set to: 0
  6609                           ;SysRiego.c: 1115: if( (columnSelected == 1) && (PORTBbits.RB4 == 0)){
  6610  001A0C  043C               	decf	_columnSelected,w,c
  6611  001A0E  B4D8               	btfsc	status,2,c
  6612                           
  6613                           ; BSR set to: 0
  6614  001A10  B881               	btfsc	3969,4,c	;volatile
  6615  001A12  D003               	goto	l4636
  6616                           
  6617                           ; BSR set to: 0
  6618                           ;SysRiego.c: 1116: rowSelected = 3;
  6619  001A14  0E03               	movlw	3
  6620  001A16  6E42               	movwf	_rowSelected,c
  6621                           
  6622                           ; BSR set to: 0
  6623                           ;SysRiego.c: 1117: return;
  6624  001A18  0012               	return	
  6625  001A1A                     l4636:
  6626                           
  6627                           ; BSR set to: 0
  6628                           ;SysRiego.c: 1118: }
  6629                           ;SysRiego.c: 1119: if( (columnSelected == 2) && (PORTBbits.RB5 == 0)){
  6630  001A1A  0E02               	movlw	2
  6631  001A1C  183C               	xorwf	_columnSelected,w,c
  6632  001A1E  B4D8               	btfsc	status,2,c
  6633                           
  6634                           ; BSR set to: 0
  6635  001A20  BA81               	btfsc	3969,5,c	;volatile
  6636  001A22  D003               	goto	l4644
  6637                           
  6638                           ; BSR set to: 0
  6639                           ;SysRiego.c: 1120: rowSelected = 3;
  6640  001A24  0E03               	movlw	3
  6641  001A26  6E42               	movwf	_rowSelected,c
  6642                           
  6643                           ; BSR set to: 0
  6644                           ;SysRiego.c: 1121: return;
  6645  001A28  0012               	return	
  6646  001A2A                     l4644:
  6647                           
  6648                           ; BSR set to: 0
  6649                           ;SysRiego.c: 1122: }
  6650                           ;SysRiego.c: 1123: if( (columnSelected == 3) && (PORTBbits.RB6 == 0)){
  6651  001A2A  0E03               	movlw	3
  6652  001A2C  183C               	xorwf	_columnSelected,w,c
  6653  001A2E  B4D8               	btfsc	status,2,c
  6654                           
  6655                           ; BSR set to: 0
  6656  001A30  BC81               	btfsc	3969,6,c	;volatile
  6657  001A32  D003               	goto	l4652
  6658                           
  6659                           ; BSR set to: 0
  6660                           ;SysRiego.c: 1124: rowSelected = 3;
  6661  001A34  0E03               	movlw	3
  6662  001A36  6E42               	movwf	_rowSelected,c
  6663                           
  6664                           ; BSR set to: 0
  6665                           ;SysRiego.c: 1125: return;
  6666  001A38  0012               	return	
  6667  001A3A                     l4652:
  6668                           
  6669                           ; BSR set to: 0
  6670                           ;SysRiego.c: 1126: }
  6671                           ;SysRiego.c: 1127: if( (columnSelected == 4) && (PORTBbits.RB7 == 0)){
  6672  001A3A  0E04               	movlw	4
  6673  001A3C  183C               	xorwf	_columnSelected,w,c
  6674  001A3E  B4D8               	btfsc	status,2,c
  6675                           
  6676                           ; BSR set to: 0
  6677  001A40  BE81               	btfsc	3969,7,c	;volatile
  6678  001A42  D02F               	goto	l4696
  6679                           
  6680                           ; BSR set to: 0
  6681                           ;SysRiego.c: 1128: rowSelected = 3;
  6682  001A44  0E03               	movlw	3
  6683  001A46  D7C0               	goto	L7
  6684  001A48                     l523:
  6685                           
  6686                           ; BSR set to: 0
  6687                           ;SysRiego.c: 1134: PORTBbits.RB3 = 0;
  6688  001A48  9681               	bcf	3969,3,c	;volatile
  6689                           
  6690                           ; BSR set to: 0
  6691                           ;SysRiego.c: 1135: if( (columnSelected == 1) && (PORTBbits.RB4 == 0)){
  6692  001A4A  043C               	decf	_columnSelected,w,c
  6693  001A4C  B4D8               	btfsc	status,2,c
  6694                           
  6695                           ; BSR set to: 0
  6696  001A4E  B881               	btfsc	3969,4,c	;volatile
  6697  001A50  D003               	goto	l4668
  6698                           
  6699                           ; BSR set to: 0
  6700                           ;SysRiego.c: 1136: rowSelected = 4;
  6701  001A52  0E04               	movlw	4
  6702  001A54  6E42               	movwf	_rowSelected,c
  6703                           
  6704                           ; BSR set to: 0
  6705                           ;SysRiego.c: 1137: return;
  6706  001A56  0012               	return	
  6707  001A58                     l4668:
  6708                           
  6709                           ; BSR set to: 0
  6710                           ;SysRiego.c: 1138: }
  6711                           ;SysRiego.c: 1139: if( (columnSelected == 2) && (PORTBbits.RB5 == 0)){
  6712  001A58  0E02               	movlw	2
  6713  001A5A  183C               	xorwf	_columnSelected,w,c
  6714  001A5C  B4D8               	btfsc	status,2,c
  6715                           
  6716                           ; BSR set to: 0
  6717  001A5E  BA81               	btfsc	3969,5,c	;volatile
  6718  001A60  D003               	goto	l4676
  6719                           
  6720                           ; BSR set to: 0
  6721                           ;SysRiego.c: 1140: rowSelected = 4;
  6722  001A62  0E04               	movlw	4
  6723  001A64  6E42               	movwf	_rowSelected,c
  6724                           
  6725                           ; BSR set to: 0
  6726                           ;SysRiego.c: 1141: return;
  6727  001A66  0012               	return	
  6728  001A68                     l4676:
  6729                           
  6730                           ; BSR set to: 0
  6731                           ;SysRiego.c: 1142: }
  6732                           ;SysRiego.c: 1143: if( (columnSelected == 3) && (PORTBbits.RB6 == 0)){
  6733  001A68  0E03               	movlw	3
  6734  001A6A  183C               	xorwf	_columnSelected,w,c
  6735  001A6C  B4D8               	btfsc	status,2,c
  6736                           
  6737                           ; BSR set to: 0
  6738  001A6E  BC81               	btfsc	3969,6,c	;volatile
  6739  001A70  D003               	goto	l4684
  6740                           
  6741                           ; BSR set to: 0
  6742                           ;SysRiego.c: 1144: rowSelected = 4;
  6743  001A72  0E04               	movlw	4
  6744  001A74  6E42               	movwf	_rowSelected,c
  6745                           
  6746                           ; BSR set to: 0
  6747                           ;SysRiego.c: 1145: return;
  6748  001A76  0012               	return	
  6749  001A78                     l4684:
  6750                           
  6751                           ; BSR set to: 0
  6752                           ;SysRiego.c: 1146: }
  6753                           ;SysRiego.c: 1147: if( (columnSelected == 4) && (PORTBbits.RB7 == 0)){
  6754  001A78  0E04               	movlw	4
  6755  001A7A  183C               	xorwf	_columnSelected,w,c
  6756  001A7C  B4D8               	btfsc	status,2,c
  6757                           
  6758                           ; BSR set to: 0
  6759  001A7E  BE81               	btfsc	3969,7,c	;volatile
  6760  001A80  D010               	goto	l4696
  6761                           
  6762                           ; BSR set to: 0
  6763                           ;SysRiego.c: 1148: rowSelected = 4;
  6764  001A82  0E04               	movlw	4
  6765  001A84  D7A1               	goto	L7
  6766  001A86                     l4694:
  6767  001A86  0100               	movlb	0	; () banked
  6768  001A88  51EC               	movf	determinePressedRow@i& (0+255),w,b
  6769                           
  6770                           ; Switch size 1, requested type "space"
  6771                           ; Number of cases is 4, Range of values is 0 to 3
  6772                           ; switch strategies available:
  6773                           ; Name         Instructions Cycles
  6774                           ; simple_byte           13     7 (average)
  6775                           ;	Chosen strategy is simple_byte
  6776  001A8A  0A00               	xorlw	0	; case 0
  6777  001A8C  B4D8               	btfsc	status,2,c
  6778  001A8E  D77E               	goto	l506
  6779  001A90  0A01               	xorlw	1	; case 1
  6780  001A92  B4D8               	btfsc	status,2,c
  6781  001A94  D79B               	goto	l513
  6782  001A96  0A03               	xorlw	3	; case 2
  6783  001A98  B4D8               	btfsc	status,2,c
  6784  001A9A  D7B7               	goto	l518
  6785  001A9C  0A01               	xorlw	1	; case 3
  6786  001A9E  B4D8               	btfsc	status,2,c
  6787  001AA0  D7D3               	goto	l523
  6788  001AA2                     l4696:
  6789                           
  6790                           ; BSR set to: 0
  6791  001AA2  0100               	movlb	0	; () banked
  6792  001AA4  2BEC               	incf	determinePressedRow@i& (0+255),f,b
  6793  001AA6  D76A               	goto	l4558
  6794  001AA8                     __end_of_determinePressedRow:
  6795                           	opt stack 0
  6796                           tblptru	equ	0xFF8
  6797                           tblptrh	equ	0xFF7
  6798                           tblptrl	equ	0xFF6
  6799                           tablat	equ	0xFF5
  6800                           prodh	equ	0xFF4
  6801                           prodl	equ	0xFF3
  6802                           intcon	equ	0xFF2
  6803                           intcon2	equ	0xFF1
  6804                           postinc0	equ	0xFEE
  6805                           wreg	equ	0xFE8
  6806                           indf1	equ	0xFE7
  6807                           postdec1	equ	0xFE5
  6808                           plusw1	equ	0xFE3
  6809                           fsr1h	equ	0xFE2
  6810                           fsr1l	equ	0xFE1
  6811                           indf2	equ	0xFDF
  6812                           postinc2	equ	0xFDE
  6813                           postdec2	equ	0xFDD
  6814                           plusw2	equ	0xFDB
  6815                           fsr2h	equ	0xFDA
  6816                           fsr2l	equ	0xFD9
  6817                           status	equ	0xFD8
  6818                           
  6819 ;; *************** function _turnOnAllRows *****************
  6820 ;; Defined at:
  6821 ;;		line 1362 in file "SysRiego.c"
  6822 ;; Parameters:    Size  Location     Type
  6823 ;;		None
  6824 ;; Auto vars:     Size  Location     Type
  6825 ;;		None
  6826 ;; Return value:  Size  Location     Type
  6827 ;;                  1    wreg      void 
  6828 ;; Registers used:
  6829 ;;		None
  6830 ;; Tracked objects:
  6831 ;;		On entry : 0/0
  6832 ;;		On exit  : 0/0
  6833 ;;		Unchanged: 0/0
  6834 ;; Data sizes:     COMRAM   BANK0   BANK1   BANK2   BANK3   BANK4   BANK5   BANK6   BANK7   BANK8   BANK9  BANK10  BANK1
      +1  BANK12
  6835 ;;      Params:         0       0       0       0       0       0       0       0       0       0       0       0       
      +0       0
  6836 ;;      Locals:         0       0       0       0       0       0       0       0       0       0       0       0       
      +0       0
  6837 ;;      Temps:          0       0       0       0       0       0       0       0       0       0       0       0       
      +0       0
  6838 ;;      Totals:         0       0       0       0       0       0       0       0       0       0       0       0       
      +0       0
  6839 ;;Total ram usage:        0 bytes
  6840 ;; Hardware stack levels used:    1
  6841 ;; Hardware stack levels required when called:    7
  6842 ;; This function calls:
  6843 ;;		Nothing
  6844 ;; This function is called by:
  6845 ;;		_determinePressedRow
  6846 ;; This function uses a non-reentrant model
  6847 ;;
  6848                           
  6849                           	psect	text30
  6850  002AD8                     __ptext30:
  6851                           	opt stack 0
  6852  002AD8                     _turnOnAllRows:
  6853                           	opt stack 18
  6854                           
  6855                           ;SysRiego.c: 1363: PORTBbits.RB0 = 1;
  6856                           
  6857                           ; BSR set to: 0
  6858                           ;incstack = 0
  6859  002AD8  8081               	bsf	3969,0,c	;volatile
  6860                           
  6861                           ;SysRiego.c: 1364: PORTBbits.RB1 = 1;
  6862  002ADA  8281               	bsf	3969,1,c	;volatile
  6863                           
  6864                           ;SysRiego.c: 1365: PORTBbits.RB2 = 1;
  6865  002ADC  8481               	bsf	3969,2,c	;volatile
  6866                           
  6867                           ;SysRiego.c: 1366: PORTBbits.RB3 = 1;
  6868  002ADE  8681               	bsf	3969,3,c	;volatile
  6869  002AE0  0012               	return		;funcret
  6870  002AE2                     __end_of_turnOnAllRows:
  6871                           	opt stack 0
  6872                           tblptru	equ	0xFF8
  6873                           tblptrh	equ	0xFF7
  6874                           tblptrl	equ	0xFF6
  6875                           tablat	equ	0xFF5
  6876                           prodh	equ	0xFF4
  6877                           prodl	equ	0xFF3
  6878                           intcon	equ	0xFF2
  6879                           intcon2	equ	0xFF1
  6880                           postinc0	equ	0xFEE
  6881                           wreg	equ	0xFE8
  6882                           indf1	equ	0xFE7
  6883                           postdec1	equ	0xFE5
  6884                           plusw1	equ	0xFE3
  6885                           fsr1h	equ	0xFE2
  6886                           fsr1l	equ	0xFE1
  6887                           indf2	equ	0xFDF
  6888                           postinc2	equ	0xFDE
  6889                           postdec2	equ	0xFDD
  6890                           plusw2	equ	0xFDB
  6891                           fsr2h	equ	0xFDA
  6892                           fsr2l	equ	0xFD9
  6893                           status	equ	0xFD8
  6894                           
  6895 ;; *************** function _delay *****************
  6896 ;; Defined at:
  6897 ;;		line 1033 in file "SysRiego.c"
  6898 ;; Parameters:    Size  Location     Type
  6899 ;;		None
  6900 ;; Auto vars:     Size  Location     Type
  6901 ;;  L2REG           1    2[BANK0 ] unsigned char 
  6902 ;;  L1REG           1    1[BANK0 ] unsigned char 
  6903 ;; Return value:  Size  Location     Type
  6904 ;;                  1    wreg      void 
  6905 ;; Registers used:
  6906 ;;		wreg, status,2, status,0
  6907 ;; Tracked objects:
  6908 ;;		On entry : 0/0
  6909 ;;		On exit  : 0/0
  6910 ;;		Unchanged: 0/0
  6911 ;; Data sizes:     COMRAM   BANK0   BANK1   BANK2   BANK3   BANK4   BANK5   BANK6   BANK7   BANK8   BANK9  BANK10  BANK1
      +1  BANK12
  6912 ;;      Params:         0       0       0       0       0       0       0       0       0       0       0       0       
      +0       0
  6913 ;;      Locals:         0       2       0       0       0       0       0       0       0       0       0       0       
      +0       0
  6914 ;;      Temps:          0       1       0       0       0       0       0       0       0       0       0       0       
      +0       0
  6915 ;;      Totals:         0       3       0       0       0       0       0       0       0       0       0       0       
      +0       0
  6916 ;;Total ram usage:        3 bytes
  6917 ;; Hardware stack levels used:    1
  6918 ;; Hardware stack levels required when called:    7
  6919 ;; This function calls:
  6920 ;;		Nothing
  6921 ;; This function is called by:
  6922 ;;		_readInput
  6923 ;;		_resetReadInput
  6924 ;; This function uses a non-reentrant model
  6925 ;;
  6926                           
  6927                           	psect	text31
  6928  0028AE                     __ptext31:
  6929                           	opt stack 0
  6930  0028AE                     _delay:
  6931                           	opt stack 20
  6932                           
  6933                           ;SysRiego.c: 1034: unsigned char L1REG = 0;
  6934                           
  6935                           ;incstack = 0
  6936  0028AE  0E00               	movlw	0
  6937  0028B0  0100               	movlb	0	; () banked
  6938  0028B2  6FED               	movwf	delay@L1REG& (0+255),b
  6939                           
  6940                           ;SysRiego.c: 1035: unsigned char L2REG;
  6941                           ;SysRiego.c: 1036: while(L1REG++ < 13){
  6942  0028B4  D006               	goto	l4812
  6943  0028B6                     l4810:
  6944                           
  6945                           ; BSR set to: 0
  6946                           ;SysRiego.c: 1037: L2REG = 0;
  6947  0028B6  0E00               	movlw	0
  6948  0028B8  0100               	movlb	0	; () banked
  6949  0028BA  6FEE               	movwf	delay@L2REG& (0+255),b
  6950  0028BC                     l480:
  6951                           
  6952                           ; BSR set to: 0
  6953  0028BC  0100               	movlb	0	; () banked
  6954  0028BE  3FEE               	incfsz	delay@L2REG& (0+255),f,b
  6955  0028C0  D7FD               	goto	l480
  6956  0028C2                     l4812:
  6957                           
  6958                           ; BSR set to: 0
  6959  0028C2  0100               	movlb	0	; () banked
  6960  0028C4  2BED               	incf	delay@L1REG& (0+255),f,b
  6961  0028C6  05ED               	decf	delay@L1REG& (0+255),w,b
  6962  0028C8  0100               	movlb	0	; () banked
  6963  0028CA  6FEC               	movwf	??_delay& (0+255),b
  6964  0028CC  0E0C               	movlw	12
  6965  0028CE  0100               	movlb	0	; () banked
  6966  0028D0  65EC               	cpfsgt	??_delay& (0+255),b
  6967  0028D2  D7F1               	goto	l4810
  6968  0028D4  0012               	return	
  6969  0028D6                     __end_of_delay:
  6970                           	opt stack 0
  6971                           tblptru	equ	0xFF8
  6972                           tblptrh	equ	0xFF7
  6973                           tblptrl	equ	0xFF6
  6974                           tablat	equ	0xFF5
  6975                           prodh	equ	0xFF4
  6976                           prodl	equ	0xFF3
  6977                           intcon	equ	0xFF2
  6978                           intcon2	equ	0xFF1
  6979                           postinc0	equ	0xFEE
  6980                           wreg	equ	0xFE8
  6981                           indf1	equ	0xFE7
  6982                           postdec1	equ	0xFE5
  6983                           plusw1	equ	0xFE3
  6984                           fsr1h	equ	0xFE2
  6985                           fsr1l	equ	0xFE1
  6986                           indf2	equ	0xFDF
  6987                           postinc2	equ	0xFDE
  6988                           postdec2	equ	0xFDD
  6989                           plusw2	equ	0xFDB
  6990                           fsr2h	equ	0xFDA
  6991                           fsr2l	equ	0xFD9
  6992                           status	equ	0xFD8
  6993                           
  6994 ;; *************** function _groundAllRows *****************
  6995 ;; Defined at:
  6996 ;;		line 1015 in file "SysRiego.c"
  6997 ;; Parameters:    Size  Location     Type
  6998 ;;		None
  6999 ;; Auto vars:     Size  Location     Type
  7000 ;;		None
  7001 ;; Return value:  Size  Location     Type
  7002 ;;                  1    wreg      void 
  7003 ;; Registers used:
  7004 ;;		None
  7005 ;; Tracked objects:
  7006 ;;		On entry : 0/0
  7007 ;;		On exit  : 0/0
  7008 ;;		Unchanged: 0/0
  7009 ;; Data sizes:     COMRAM   BANK0   BANK1   BANK2   BANK3   BANK4   BANK5   BANK6   BANK7   BANK8   BANK9  BANK10  BANK1
      +1  BANK12
  7010 ;;      Params:         0       0       0       0       0       0       0       0       0       0       0       0       
      +0       0
  7011 ;;      Locals:         0       0       0       0       0       0       0       0       0       0       0       0       
      +0       0
  7012 ;;      Temps:          0       0       0       0       0       0       0       0       0       0       0       0       
      +0       0
  7013 ;;      Totals:         0       0       0       0       0       0       0       0       0       0       0       0       
      +0       0
  7014 ;;Total ram usage:        0 bytes
  7015 ;; Hardware stack levels used:    1
  7016 ;; Hardware stack levels required when called:    7
  7017 ;; This function calls:
  7018 ;;		Nothing
  7019 ;; This function is called by:
  7020 ;;		_getInput
  7021 ;; This function uses a non-reentrant model
  7022 ;;
  7023                           
  7024                           	psect	text32
  7025  002AE2                     __ptext32:
  7026                           	opt stack 0
  7027  002AE2                     _groundAllRows:
  7028                           	opt stack 21
  7029                           
  7030                           ;SysRiego.c: 1016: PORTBbits.RB0 = 0;
  7031                           
  7032                           ; BSR set to: 0
  7033                           ;incstack = 0
  7034  002AE2  9081               	bcf	3969,0,c	;volatile
  7035                           
  7036                           ;SysRiego.c: 1017: PORTBbits.RB1 = 0;
  7037  002AE4  9281               	bcf	3969,1,c	;volatile
  7038                           
  7039                           ;SysRiego.c: 1018: PORTBbits.RB2 = 0;
  7040  002AE6  9481               	bcf	3969,2,c	;volatile
  7041                           
  7042                           ;SysRiego.c: 1019: PORTBbits.RB3 = 0;
  7043  002AE8  9681               	bcf	3969,3,c	;volatile
  7044  002AEA  0012               	return		;funcret
  7045  002AEC                     __end_of_groundAllRows:
  7046                           	opt stack 0
  7047                           tblptru	equ	0xFF8
  7048                           tblptrh	equ	0xFF7
  7049                           tblptrl	equ	0xFF6
  7050                           tablat	equ	0xFF5
  7051                           prodh	equ	0xFF4
  7052                           prodl	equ	0xFF3
  7053                           intcon	equ	0xFF2
  7054                           intcon2	equ	0xFF1
  7055                           postinc0	equ	0xFEE
  7056                           wreg	equ	0xFE8
  7057                           indf1	equ	0xFE7
  7058                           postdec1	equ	0xFE5
  7059                           plusw1	equ	0xFE3
  7060                           fsr1h	equ	0xFE2
  7061                           fsr1l	equ	0xFE1
  7062                           indf2	equ	0xFDF
  7063                           postinc2	equ	0xFDE
  7064                           postdec2	equ	0xFDD
  7065                           plusw2	equ	0xFDB
  7066                           fsr2h	equ	0xFDA
  7067                           fsr2l	equ	0xFD9
  7068                           status	equ	0xFD8
  7069                           
  7070 ;; *************** function _enableIntRBIE *****************
  7071 ;; Defined at:
  7072 ;;		line 1414 in file "SysRiego.c"
  7073 ;; Parameters:    Size  Location     Type
  7074 ;;		None
  7075 ;; Auto vars:     Size  Location     Type
  7076 ;;		None
  7077 ;; Return value:  Size  Location     Type
  7078 ;;                  1    wreg      void 
  7079 ;; Registers used:
  7080 ;;		wreg, status,2
  7081 ;; Tracked objects:
  7082 ;;		On entry : 0/0
  7083 ;;		On exit  : 0/0
  7084 ;;		Unchanged: 0/0
  7085 ;; Data sizes:     COMRAM   BANK0   BANK1   BANK2   BANK3   BANK4   BANK5   BANK6   BANK7   BANK8   BANK9  BANK10  BANK1
      +1  BANK12
  7086 ;;      Params:         0       0       0       0       0       0       0       0       0       0       0       0       
      +0       0
  7087 ;;      Locals:         0       0       0       0       0       0       0       0       0       0       0       0       
      +0       0
  7088 ;;      Temps:          0       0       0       0       0       0       0       0       0       0       0       0       
      +0       0
  7089 ;;      Totals:         0       0       0       0       0       0       0       0       0       0       0       0       
      +0       0
  7090 ;;Total ram usage:        0 bytes
  7091 ;; Hardware stack levels used:    1
  7092 ;; Hardware stack levels required when called:    7
  7093 ;; This function calls:
  7094 ;;		Nothing
  7095 ;; This function is called by:
  7096 ;;		_automaticConfiguration
  7097 ;;		_timerConfiguration
  7098 ;;		_manualConfiguration
  7099 ;; This function uses a non-reentrant model
  7100 ;;
  7101                           
  7102                           	psect	text33
  7103  002AEC                     __ptext33:
  7104                           	opt stack 0
  7105  002AEC                     _enableIntRBIE:
  7106                           	opt stack 22
  7107                           
  7108                           ;SysRiego.c: 1416: LATB = 0X00;
  7109                           
  7110                           ;incstack = 0
  7111  002AEC  0E00               	movlw	0
  7112  002AEE  6E8A               	movwf	3978,c	;volatile
  7113                           
  7114                           ;SysRiego.c: 1417: INTCONbits.RBIF = 0;
  7115  002AF0  90F2               	bcf	intcon,0,c	;volatile
  7116                           
  7117                           ;SysRiego.c: 1418: INTCONbits.RBIE = 1;
  7118  002AF2  86F2               	bsf	intcon,3,c	;volatile
  7119  002AF4  0012               	return		;funcret
  7120  002AF6                     __end_of_enableIntRBIE:
  7121                           	opt stack 0
  7122                           tblptru	equ	0xFF8
  7123                           tblptrh	equ	0xFF7
  7124                           tblptrl	equ	0xFF6
  7125                           tablat	equ	0xFF5
  7126                           prodh	equ	0xFF4
  7127                           prodl	equ	0xFF3
  7128                           intcon	equ	0xFF2
  7129                           intcon2	equ	0xFF1
  7130                           postinc0	equ	0xFEE
  7131                           wreg	equ	0xFE8
  7132                           indf1	equ	0xFE7
  7133                           postdec1	equ	0xFE5
  7134                           plusw1	equ	0xFE3
  7135                           fsr1h	equ	0xFE2
  7136                           fsr1l	equ	0xFE1
  7137                           indf2	equ	0xFDF
  7138                           postinc2	equ	0xFDE
  7139                           postdec2	equ	0xFDD
  7140                           plusw2	equ	0xFDB
  7141                           fsr2h	equ	0xFDA
  7142                           fsr2l	equ	0xFD9
  7143                           status	equ	0xFD8
  7144                           
  7145 ;; *************** function _displayLineOnLCD *****************
  7146 ;; Defined at:
  7147 ;;		line 484 in file "SysRiego.c"
  7148 ;; Parameters:    Size  Location     Type
  7149 ;;  array           2    2[BANK0 ] PTR unsigned char 
  7150 ;;		 -> NULL(0), dayName(4), manualMessage(12), irrigateTimeZn3(3), 
  7151 ;;		 -> irrigateTimeZn2(3), irrigateTimeZn1(3), timerMessage(11), automaticMessage(15), 
  7152 ;;		 -> manualInactiveMessage(9), manualActiveMessage(7), STR_5(6), counterMIN(3), 
  7153 ;;		 -> counterHOUR(3), STR_4(12), timerConfiguration@newHour(5), STR_3(16), 
  7154 ;;		 -> STR_2(6), STR_1(15), configAutoMessage(11), time3Zn3(5), 
  7155 ;;		 -> time2Zn3(5), time1Zn3(5), time3Zn2(5), time2Zn2(5), 
  7156 ;;		 -> time1Zn2(5), time3Zn1(5), time2Zn1(5), time1Zn1(5), 
  7157 ;;  sizeOfArray     1    4[BANK0 ] unsigned char 
  7158 ;; Auto vars:     Size  Location     Type
  7159 ;;  i               1   12[BANK0 ] unsigned char 
  7160 ;; Return value:  Size  Location     Type
  7161 ;;                  1    wreg      void 
  7162 ;; Registers used:
  7163 ;;		wreg, fsr0l, fsr0h, status,2, status,0, tblptrl, tblptrh, tblptru, prodl, prodh, cstack
  7164 ;; Tracked objects:
  7165 ;;		On entry : 0/0
  7166 ;;		On exit  : 0/0
  7167 ;;		Unchanged: 0/0
  7168 ;; Data sizes:     COMRAM   BANK0   BANK1   BANK2   BANK3   BANK4   BANK5   BANK6   BANK7   BANK8   BANK9  BANK10  BANK1
      +1  BANK12
  7169 ;;      Params:         0       3       0       0       0       0       0       0       0       0       0       0       
      +0       0
  7170 ;;      Locals:         0       1       0       0       0       0       0       0       0       0       0       0       
      +0       0
  7171 ;;      Temps:          0       7       0       0       0       0       0       0       0       0       0       0       
      +0       0
  7172 ;;      Totals:         0      11       0       0       0       0       0       0       0       0       0       0       
      +0       0
  7173 ;;Total ram usage:       11 bytes
  7174 ;; Hardware stack levels used:    1
  7175 ;; Hardware stack levels required when called:    9
  7176 ;; This function calls:
  7177 ;;		_displayCharOnLCD
  7178 ;; This function is called by:
  7179 ;;		_automaticConfiguration
  7180 ;;		_timerConfiguration
  7181 ;;		_manualConfiguration
  7182 ;;		_workingAutomatic
  7183 ;;		_workingTimer
  7184 ;;		_workingManual
  7185 ;;		_displayTime
  7186 ;; This function uses a non-reentrant model
  7187 ;;
  7188                           
  7189                           	psect	text34
  7190  002384                     __ptext34:
  7191                           	opt stack 0
  7192  002384                     _displayLineOnLCD:
  7193                           	opt stack 20
  7194                           
  7195                           ;SysRiego.c: 485: unsigned char i;
  7196                           ;SysRiego.c: 486: for(i=0; i<sizeOfArray-1; i++){
  7197                           
  7198                           ;incstack = 0
  7199  002384  0E00               	movlw	0
  7200  002386  0100               	movlb	0	; () banked
  7201  002388  6FF8               	movwf	displayLineOnLCD@i& (0+255),b
  7202  00238A  D021               	goto	l4986
  7203  00238C                     l4982:
  7204                           
  7205                           ; BSR set to: 0
  7206                           ;SysRiego.c: 487: displayCharOnLCD(array[i]);
  7207  00238C  0100               	movlb	0	; () banked
  7208  00238E  51F8               	movf	displayLineOnLCD@i& (0+255),w,b
  7209  002390  0D01               	mullw	1
  7210  002392  C0EE  F0F1         	movff	displayLineOnLCD@array,??_displayLineOnLCD
  7211  002396  C0EF  F0F2         	movff	displayLineOnLCD@array+1,??_displayLineOnLCD+1
  7212  00239A  50F3               	movf	prodl,w,c
  7213  00239C  0100               	movlb	0	; () banked
  7214  00239E  27F1               	addwf	??_displayLineOnLCD& (0+255),f,b
  7215  0023A0  50F4               	movf	prodh,w,c
  7216  0023A2  0100               	movlb	0	; () banked
  7217  0023A4  23F2               	addwfc	(??_displayLineOnLCD+1)& (0+255),f,b
  7218  0023A6  C0F1  FFF6         	movff	??_displayLineOnLCD,tblptrl
  7219  0023AA  C0F2  FFF7         	movff	??_displayLineOnLCD+1,tblptrh
  7220  0023AE  6AF8               	clrf	tblptru,c
  7221  0023B0  0E0C               	movlw	(high __ramtop+-1)
  7222  0023B2  64F7               	cpfsgt	tblptrh,c
  7223  0023B4  D003               	bra	u4787
  7224  0023B6  0008               	tblrd		*
  7225  0023B8  50F5               	movf	tablat,w,c
  7226  0023BA  D005               	bra	u4780
  7227  0023BC                     u4787:
  7228  0023BC  CFF6 FFE9          	movff	tblptrl,fsr0l
  7229  0023C0  CFF7 FFEA          	movff	tblptrh,fsr0h
  7230  0023C4  50EF               	movf	indf0,w,c
  7231  0023C6                     u4780:
  7232  0023C6  EC1D  F015         	call	_displayCharOnLCD
  7233  0023CA  0100               	movlb	0	; () banked
  7234  0023CC  2BF8               	incf	displayLineOnLCD@i& (0+255),f,b
  7235  0023CE                     l4986:
  7236                           
  7237                           ; BSR set to: 0
  7238  0023CE  0EFF               	movlw	255
  7239  0023D0  0100               	movlb	0	; () banked
  7240  0023D2  6FF1               	movwf	??_displayLineOnLCD& (0+255),b
  7241  0023D4  0EFF               	movlw	255
  7242  0023D6  0100               	movlb	0	; () banked
  7243  0023D8  6FF2               	movwf	(??_displayLineOnLCD+1)& (0+255),b
  7244  0023DA  0100               	movlb	0	; () banked
  7245  0023DC  51F0               	movf	displayLineOnLCD@sizeOfArray& (0+255),w,b
  7246  0023DE  0100               	movlb	0	; () banked
  7247  0023E0  6FF3               	movwf	(??_displayLineOnLCD+2)& (0+255),b
  7248  0023E2  6BF4               	clrf	(??_displayLineOnLCD+3)& (0+255),b
  7249  0023E4  0100               	movlb	0	; () banked
  7250  0023E6  51F1               	movf	??_displayLineOnLCD& (0+255),w,b
  7251  0023E8  0100               	movlb	0	; () banked
  7252  0023EA  27F3               	addwf	(??_displayLineOnLCD+2)& (0+255),f,b
  7253  0023EC  0100               	movlb	0	; () banked
  7254  0023EE  51F2               	movf	(??_displayLineOnLCD+1)& (0+255),w,b
  7255  0023F0  0100               	movlb	0	; () banked
  7256  0023F2  23F4               	addwfc	(??_displayLineOnLCD+3)& (0+255),f,b
  7257  0023F4  0100               	movlb	0	; () banked
  7258  0023F6  51F8               	movf	displayLineOnLCD@i& (0+255),w,b
  7259  0023F8  0100               	movlb	0	; () banked
  7260  0023FA  6FF5               	movwf	(??_displayLineOnLCD+4)& (0+255),b
  7261  0023FC  6BF6               	clrf	(??_displayLineOnLCD+5)& (0+255),b
  7262  0023FE  0100               	movlb	0	; () banked
  7263  002400  51F3               	movf	(??_displayLineOnLCD+2)& (0+255),w,b
  7264  002402  0100               	movlb	0	; () banked
  7265  002404  5DF5               	subwf	(??_displayLineOnLCD+4)& (0+255),w,b
  7266  002406  0100               	movlb	0	; () banked
  7267  002408  51F6               	movf	(??_displayLineOnLCD+5)& (0+255),w,b
  7268  00240A  0A80               	xorlw	128
  7269  00240C  0100               	movlb	0	; () banked
  7270  00240E  6FF7               	movwf	(??_displayLineOnLCD+6)& (0+255),b
  7271  002410  0100               	movlb	0	; () banked
  7272  002412  51F4               	movf	(??_displayLineOnLCD+3)& (0+255),w,b
  7273  002414  0A80               	xorlw	128
  7274  002416  0100               	movlb	0	; () banked
  7275  002418  59F7               	subwfb	(??_displayLineOnLCD+6)& (0+255),w,b
  7276  00241A  B0D8               	btfsc	status,0,c
  7277  00241C  0012               	return	
  7278  00241E  D7B6               	goto	l4982
  7279  002420                     __end_of_displayLineOnLCD:
  7280                           	opt stack 0
  7281                           tblptru	equ	0xFF8
  7282                           tblptrh	equ	0xFF7
  7283                           tblptrl	equ	0xFF6
  7284                           tablat	equ	0xFF5
  7285                           prodh	equ	0xFF4
  7286                           prodl	equ	0xFF3
  7287                           intcon	equ	0xFF2
  7288                           intcon2	equ	0xFF1
  7289                           indf0	equ	0xFEF
  7290                           postinc0	equ	0xFEE
  7291                           fsr0h	equ	0xFEA
  7292                           fsr0l	equ	0xFE9
  7293                           wreg	equ	0xFE8
  7294                           indf1	equ	0xFE7
  7295                           postdec1	equ	0xFE5
  7296                           plusw1	equ	0xFE3
  7297                           fsr1h	equ	0xFE2
  7298                           fsr1l	equ	0xFE1
  7299                           indf2	equ	0xFDF
  7300                           postinc2	equ	0xFDE
  7301                           postdec2	equ	0xFDD
  7302                           plusw2	equ	0xFDB
  7303                           fsr2h	equ	0xFDA
  7304                           fsr2l	equ	0xFD9
  7305                           status	equ	0xFD8
  7306                           
  7307 ;; *************** function _displayCharOnLCD *****************
  7308 ;; Defined at:
  7309 ;;		line 475 in file "SysRiego.c"
  7310 ;; Parameters:    Size  Location     Type
  7311 ;;  character       1    wreg     unsigned char 
  7312 ;; Auto vars:     Size  Location     Type
  7313 ;;  character       1    1[BANK0 ] unsigned char 
  7314 ;; Return value:  Size  Location     Type
  7315 ;;                  1    wreg      void 
  7316 ;; Registers used:
  7317 ;;		wreg, status,2, status,0, cstack
  7318 ;; Tracked objects:
  7319 ;;		On entry : 0/0
  7320 ;;		On exit  : 0/0
  7321 ;;		Unchanged: 0/0
  7322 ;; Data sizes:     COMRAM   BANK0   BANK1   BANK2   BANK3   BANK4   BANK5   BANK6   BANK7   BANK8   BANK9  BANK10  BANK1
      +1  BANK12
  7323 ;;      Params:         0       0       0       0       0       0       0       0       0       0       0       0       
      +0       0
  7324 ;;      Locals:         0       1       0       0       0       0       0       0       0       0       0       0       
      +0       0
  7325 ;;      Temps:          0       0       0       0       0       0       0       0       0       0       0       0       
      +0       0
  7326 ;;      Totals:         0       1       0       0       0       0       0       0       0       0       0       0       
      +0       0
  7327 ;;Total ram usage:        1 bytes
  7328 ;; Hardware stack levels used:    1
  7329 ;; Hardware stack levels required when called:    8
  7330 ;; This function calls:
  7331 ;;		_shortDelay
  7332 ;; This function is called by:
  7333 ;;		_displayLineOnLCD
  7334 ;;		_automaticConfiguration
  7335 ;;		_timerConfiguration
  7336 ;;		_displayTime
  7337 ;; This function uses a non-reentrant model
  7338 ;;
  7339                           
  7340                           	psect	text35
  7341  002A3A                     __ptext35:
  7342                           	opt stack 0
  7343  002A3A                     _displayCharOnLCD:
  7344                           	opt stack 20
  7345                           
  7346                           ; BSR set to: 0
  7347                           ;incstack = 0
  7348                           ;displayCharOnLCD@character stored from wreg
  7349  002A3A  0100               	movlb	0	; () banked
  7350  002A3C  6FED               	movwf	displayCharOnLCD@character& (0+255),b
  7351                           
  7352                           ;SysRiego.c: 476: PORTD = character;
  7353  002A3E  C0ED  FF83         	movff	displayCharOnLCD@character,3971	;volatile
  7354                           
  7355                           ;SysRiego.c: 477: PORTCbits.RC0 = 1;
  7356  002A42  8082               	bsf	3970,0,c	;volatile
  7357                           
  7358                           ;SysRiego.c: 478: PORTCbits.RC1 = 0;
  7359  002A44  9282               	bcf	3970,1,c	;volatile
  7360                           
  7361                           ;SysRiego.c: 479: PORTCbits.RC2 = 1;
  7362  002A46  8482               	bsf	3970,2,c	;volatile
  7363                           
  7364                           ;SysRiego.c: 480: shortDelay();
  7365  002A48  EC52  F015         	call	_shortDelay	;wreg free
  7366                           
  7367                           ;SysRiego.c: 481: PORTCbits.RC2 = 0;
  7368  002A4C  9482               	bcf	3970,2,c	;volatile
  7369  002A4E  0012               	return		;funcret
  7370  002A50                     __end_of_displayCharOnLCD:
  7371                           	opt stack 0
  7372                           tblptru	equ	0xFF8
  7373                           tblptrh	equ	0xFF7
  7374                           tblptrl	equ	0xFF6
  7375                           tablat	equ	0xFF5
  7376                           prodh	equ	0xFF4
  7377                           prodl	equ	0xFF3
  7378                           intcon	equ	0xFF2
  7379                           intcon2	equ	0xFF1
  7380                           indf0	equ	0xFEF
  7381                           postinc0	equ	0xFEE
  7382                           fsr0h	equ	0xFEA
  7383                           fsr0l	equ	0xFE9
  7384                           wreg	equ	0xFE8
  7385                           indf1	equ	0xFE7
  7386                           postdec1	equ	0xFE5
  7387                           plusw1	equ	0xFE3
  7388                           fsr1h	equ	0xFE2
  7389                           fsr1l	equ	0xFE1
  7390                           indf2	equ	0xFDF
  7391                           postinc2	equ	0xFDE
  7392                           postdec2	equ	0xFDD
  7393                           plusw2	equ	0xFDB
  7394                           fsr2h	equ	0xFDA
  7395                           fsr2l	equ	0xFD9
  7396                           status	equ	0xFD8
  7397                           
  7398 ;; *************** function _disableIntRBIE *****************
  7399 ;; Defined at:
  7400 ;;		line 1406 in file "SysRiego.c"
  7401 ;; Parameters:    Size  Location     Type
  7402 ;;		None
  7403 ;; Auto vars:     Size  Location     Type
  7404 ;;		None
  7405 ;; Return value:  Size  Location     Type
  7406 ;;                  1    wreg      void 
  7407 ;; Registers used:
  7408 ;;		wreg, status,2
  7409 ;; Tracked objects:
  7410 ;;		On entry : 0/0
  7411 ;;		On exit  : 0/0
  7412 ;;		Unchanged: 0/0
  7413 ;; Data sizes:     COMRAM   BANK0   BANK1   BANK2   BANK3   BANK4   BANK5   BANK6   BANK7   BANK8   BANK9  BANK10  BANK1
      +1  BANK12
  7414 ;;      Params:         0       0       0       0       0       0       0       0       0       0       0       0       
      +0       0
  7415 ;;      Locals:         0       0       0       0       0       0       0       0       0       0       0       0       
      +0       0
  7416 ;;      Temps:          0       0       0       0       0       0       0       0       0       0       0       0       
      +0       0
  7417 ;;      Totals:         0       0       0       0       0       0       0       0       0       0       0       0       
      +0       0
  7418 ;;Total ram usage:        0 bytes
  7419 ;; Hardware stack levels used:    1
  7420 ;; Hardware stack levels required when called:    7
  7421 ;; This function calls:
  7422 ;;		Nothing
  7423 ;; This function is called by:
  7424 ;;		_automaticConfiguration
  7425 ;;		_timerConfiguration
  7426 ;;		_manualConfiguration
  7427 ;; This function uses a non-reentrant model
  7428 ;;
  7429                           
  7430                           	psect	text36
  7431  002AF6                     __ptext36:
  7432                           	opt stack 0
  7433  002AF6                     _disableIntRBIE:
  7434                           	opt stack 22
  7435                           
  7436                           ;SysRiego.c: 1408: LATB = 0X00;
  7437                           
  7438                           ;incstack = 0
  7439  002AF6  0E00               	movlw	0
  7440  002AF8  6E8A               	movwf	3978,c	;volatile
  7441                           
  7442                           ;SysRiego.c: 1409: INTCONbits.RBIF = 0;
  7443  002AFA  90F2               	bcf	intcon,0,c	;volatile
  7444                           
  7445                           ;SysRiego.c: 1410: INTCONbits.RBIE = 0;
  7446  002AFC  96F2               	bcf	intcon,3,c	;volatile
  7447  002AFE  0012               	return		;funcret
  7448  002B00                     __end_of_disableIntRBIE:
  7449                           	opt stack 0
  7450                           tblptru	equ	0xFF8
  7451                           tblptrh	equ	0xFF7
  7452                           tblptrl	equ	0xFF6
  7453                           tablat	equ	0xFF5
  7454                           prodh	equ	0xFF4
  7455                           prodl	equ	0xFF3
  7456                           intcon	equ	0xFF2
  7457                           intcon2	equ	0xFF1
  7458                           indf0	equ	0xFEF
  7459                           postinc0	equ	0xFEE
  7460                           fsr0h	equ	0xFEA
  7461                           fsr0l	equ	0xFE9
  7462                           wreg	equ	0xFE8
  7463                           indf1	equ	0xFE7
  7464                           postdec1	equ	0xFE5
  7465                           plusw1	equ	0xFE3
  7466                           fsr1h	equ	0xFE2
  7467                           fsr1l	equ	0xFE1
  7468                           indf2	equ	0xFDF
  7469                           postinc2	equ	0xFDE
  7470                           postdec2	equ	0xFDD
  7471                           plusw2	equ	0xFDB
  7472                           fsr2h	equ	0xFDA
  7473                           fsr2l	equ	0xFD9
  7474                           status	equ	0xFD8
  7475                           
  7476 ;; *************** function _convertCharsToInt *****************
  7477 ;; Defined at:
  7478 ;;		line 1597 in file "SysRiego.c"
  7479 ;; Parameters:    Size  Location     Type
  7480 ;;  humidityValu    2    0[BANK0 ] PTR unsigned char 
  7481 ;;		 -> NULL(0), manualZn3Val(1), humidityZn3Val(3), manualZn2Val(1), 
  7482 ;;		 -> humidityZn2Val(3), manualZn1Val(1), humidityZn1Val(3), 
  7483 ;; Auto vars:     Size  Location     Type
  7484 ;;  dozens          1    3[BANK0 ] unsigned char 
  7485 ;;  units           1    2[BANK0 ] unsigned char 
  7486 ;; Return value:  Size  Location     Type
  7487 ;;                  1    wreg      unsigned char 
  7488 ;; Registers used:
  7489 ;;		wreg, fsr2l, fsr2h, status,2, status,0, prodl, prodh
  7490 ;; Tracked objects:
  7491 ;;		On entry : 0/0
  7492 ;;		On exit  : 0/0
  7493 ;;		Unchanged: 0/0
  7494 ;; Data sizes:     COMRAM   BANK0   BANK1   BANK2   BANK3   BANK4   BANK5   BANK6   BANK7   BANK8   BANK9  BANK10  BANK1
      +1  BANK12
  7495 ;;      Params:         0       2       0       0       0       0       0       0       0       0       0       0       
      +0       0
  7496 ;;      Locals:         0       2       0       0       0       0       0       0       0       0       0       0       
      +0       0
  7497 ;;      Temps:          0       0       0       0       0       0       0       0       0       0       0       0       
      +0       0
  7498 ;;      Totals:         0       4       0       0       0       0       0       0       0       0       0       0       
      +0       0
  7499 ;;Total ram usage:        4 bytes
  7500 ;; Hardware stack levels used:    1
  7501 ;; Hardware stack levels required when called:    7
  7502 ;; This function calls:
  7503 ;;		Nothing
  7504 ;; This function is called by:
  7505 ;;		_automaticConfiguration
  7506 ;; This function uses a non-reentrant model
  7507 ;;
  7508                           
  7509                           	psect	text37
  7510  002748                     __ptext37:
  7511                           	opt stack 0
  7512  002748                     _convertCharsToInt:
  7513                           	opt stack 22
  7514                           
  7515                           ;SysRiego.c: 1599: unsigned char units;
  7516                           ;SysRiego.c: 1600: unsigned char dozens;
  7517                           ;SysRiego.c: 1602: units = humidityValue[1] - 48;
  7518                           
  7519                           ;incstack = 0
  7520  002748  0100               	movlb	0	; () banked
  7521  00274A  EE20 F001          	lfsr	2,1
  7522  00274E  51EC               	movf	convertCharsToInt@humidityValue& (0+255),w,b
  7523  002750  26D9               	addwf	fsr2l,f,c
  7524  002752  51ED               	movf	(convertCharsToInt@humidityValue+1)& (0+255),w,b
  7525  002754  22DA               	addwfc	fsr2h,f,c
  7526  002756  50DF               	movf	indf2,w,c
  7527  002758  0FD0               	addlw	208
  7528  00275A  0100               	movlb	0	; () banked
  7529  00275C  6FEE               	movwf	convertCharsToInt@units& (0+255),b
  7530                           
  7531                           ; BSR set to: 0
  7532                           ;SysRiego.c: 1603: dozens = (humidityValue[0] - 48)*10;
  7533  00275E  C0EC  FFD9         	movff	convertCharsToInt@humidityValue,fsr2l
  7534  002762  C0ED  FFDA         	movff	convertCharsToInt@humidityValue+1,fsr2h
  7535  002766  50DF               	movf	indf2,w,c
  7536  002768  0FD0               	addlw	208
  7537  00276A  0D0A               	mullw	10
  7538  00276C  CFF3 F0EF          	movff	prodl,convertCharsToInt@dozens
  7539                           
  7540                           ; BSR set to: 0
  7541                           ;SysRiego.c: 1605: return (units + dozens);
  7542  002770  0100               	movlb	0	; () banked
  7543  002772  51EE               	movf	convertCharsToInt@units& (0+255),w,b
  7544  002774  0100               	movlb	0	; () banked
  7545  002776  25EF               	addwf	convertCharsToInt@dozens& (0+255),w,b
  7546  002778  0012               	return	
  7547  00277A                     __end_of_convertCharsToInt:
  7548                           	opt stack 0
  7549                           tblptru	equ	0xFF8
  7550                           tblptrh	equ	0xFF7
  7551                           tblptrl	equ	0xFF6
  7552                           tablat	equ	0xFF5
  7553                           prodh	equ	0xFF4
  7554                           prodl	equ	0xFF3
  7555                           intcon	equ	0xFF2
  7556                           intcon2	equ	0xFF1
  7557                           indf0	equ	0xFEF
  7558                           postinc0	equ	0xFEE
  7559                           fsr0h	equ	0xFEA
  7560                           fsr0l	equ	0xFE9
  7561                           wreg	equ	0xFE8
  7562                           indf1	equ	0xFE7
  7563                           postdec1	equ	0xFE5
  7564                           plusw1	equ	0xFE3
  7565                           fsr1h	equ	0xFE2
  7566                           fsr1l	equ	0xFE1
  7567                           indf2	equ	0xFDF
  7568                           postinc2	equ	0xFDE
  7569                           postdec2	equ	0xFDD
  7570                           plusw2	equ	0xFDB
  7571                           fsr2h	equ	0xFDA
  7572                           fsr2l	equ	0xFD9
  7573                           status	equ	0xFD8
  7574                           
  7575 ;; *************** function _clearDisplay *****************
  7576 ;; Defined at:
  7577 ;;		line 491 in file "SysRiego.c"
  7578 ;; Parameters:    Size  Location     Type
  7579 ;;		None
  7580 ;; Auto vars:     Size  Location     Type
  7581 ;;		None
  7582 ;; Return value:  Size  Location     Type
  7583 ;;                  1    wreg      void 
  7584 ;; Registers used:
  7585 ;;		wreg, status,2, status,0, cstack
  7586 ;; Tracked objects:
  7587 ;;		On entry : 0/0
  7588 ;;		On exit  : 0/0
  7589 ;;		Unchanged: 0/0
  7590 ;; Data sizes:     COMRAM   BANK0   BANK1   BANK2   BANK3   BANK4   BANK5   BANK6   BANK7   BANK8   BANK9  BANK10  BANK1
      +1  BANK12
  7591 ;;      Params:         0       0       0       0       0       0       0       0       0       0       0       0       
      +0       0
  7592 ;;      Locals:         0       0       0       0       0       0       0       0       0       0       0       0       
      +0       0
  7593 ;;      Temps:          0       0       0       0       0       0       0       0       0       0       0       0       
      +0       0
  7594 ;;      Totals:         0       0       0       0       0       0       0       0       0       0       0       0       
      +0       0
  7595 ;;Total ram usage:        0 bytes
  7596 ;; Hardware stack levels used:    1
  7597 ;; Hardware stack levels required when called:    9
  7598 ;; This function calls:
  7599 ;;		_command
  7600 ;;		_isReady
  7601 ;;		_shortDelay
  7602 ;; This function is called by:
  7603 ;;		_automaticConfiguration
  7604 ;;		_timerConfiguration
  7605 ;;		_manualConfiguration
  7606 ;;		_workingAutomatic
  7607 ;;		_workingTimer
  7608 ;;		_workingManual
  7609 ;; This function uses a non-reentrant model
  7610 ;;
  7611                           
  7612                           	psect	text38
  7613  002AC8                     __ptext38:
  7614                           	opt stack 0
  7615  002AC8                     _clearDisplay:
  7616                           	opt stack 20
  7617                           
  7618                           ;SysRiego.c: 492: command(0x01);
  7619                           
  7620                           ; BSR set to: 0
  7621                           ;incstack = 0
  7622  002AC8  0E01               	movlw	1
  7623  002ACA  EC28  F015         	call	_command
  7624                           
  7625                           ;SysRiego.c: 493: shortDelay();
  7626  002ACE  EC52  F015         	call	_shortDelay	;wreg free
  7627                           
  7628                           ;SysRiego.c: 494: isReady();
  7629  002AD2  ECC1  F014         	call	_isReady	;wreg free
  7630  002AD6  0012               	return		;funcret
  7631  002AD8                     __end_of_clearDisplay:
  7632                           	opt stack 0
  7633                           tblptru	equ	0xFF8
  7634                           tblptrh	equ	0xFF7
  7635                           tblptrl	equ	0xFF6
  7636                           tablat	equ	0xFF5
  7637                           prodh	equ	0xFF4
  7638                           prodl	equ	0xFF3
  7639                           intcon	equ	0xFF2
  7640                           intcon2	equ	0xFF1
  7641                           indf0	equ	0xFEF
  7642                           postinc0	equ	0xFEE
  7643                           fsr0h	equ	0xFEA
  7644                           fsr0l	equ	0xFE9
  7645                           wreg	equ	0xFE8
  7646                           indf1	equ	0xFE7
  7647                           postdec1	equ	0xFE5
  7648                           plusw1	equ	0xFE3
  7649                           fsr1h	equ	0xFE2
  7650                           fsr1l	equ	0xFE1
  7651                           indf2	equ	0xFDF
  7652                           postinc2	equ	0xFDE
  7653                           postdec2	equ	0xFDD
  7654                           plusw2	equ	0xFDB
  7655                           fsr2h	equ	0xFDA
  7656                           fsr2l	equ	0xFD9
  7657                           status	equ	0xFD8
  7658                           
  7659 ;; *************** function _LCDSetup *****************
  7660 ;; Defined at:
  7661 ;;		line 421 in file "SysRiego.c"
  7662 ;; Parameters:    Size  Location     Type
  7663 ;;		None
  7664 ;; Auto vars:     Size  Location     Type
  7665 ;;		None
  7666 ;; Return value:  Size  Location     Type
  7667 ;;                  1    wreg      void 
  7668 ;; Registers used:
  7669 ;;		wreg, status,2, status,0, cstack
  7670 ;; Tracked objects:
  7671 ;;		On entry : 0/0
  7672 ;;		On exit  : 0/0
  7673 ;;		Unchanged: 0/0
  7674 ;; Data sizes:     COMRAM   BANK0   BANK1   BANK2   BANK3   BANK4   BANK5   BANK6   BANK7   BANK8   BANK9  BANK10  BANK1
      +1  BANK12
  7675 ;;      Params:         0       0       0       0       0       0       0       0       0       0       0       0       
      +0       0
  7676 ;;      Locals:         0       0       0       0       0       0       0       0       0       0       0       0       
      +0       0
  7677 ;;      Temps:          0       0       0       0       0       0       0       0       0       0       0       0       
      +0       0
  7678 ;;      Totals:         0       0       0       0       0       0       0       0       0       0       0       0       
      +0       0
  7679 ;;Total ram usage:        0 bytes
  7680 ;; Hardware stack levels used:    1
  7681 ;; Hardware stack levels required when called:    9
  7682 ;; This function calls:
  7683 ;;		_command
  7684 ;;		_isReady
  7685 ;;		_longDelay
  7686 ;; This function is called by:
  7687 ;;		_main
  7688 ;; This function uses a non-reentrant model
  7689 ;;
  7690                           
  7691                           	psect	text39
  7692  0028D6                     __ptext39:
  7693                           	opt stack 0
  7694  0028D6                     _LCDSetup:
  7695                           	opt stack 21
  7696                           
  7697                           ;SysRiego.c: 422: PORTCbits.RC2 = 0;
  7698                           
  7699                           ;incstack = 0
  7700  0028D6  9482               	bcf	3970,2,c	;volatile
  7701                           
  7702                           ;SysRiego.c: 423: longDelay();
  7703  0028D8  EC27  F013         	call	_longDelay	;wreg free
  7704                           
  7705                           ;SysRiego.c: 424: command(0x38);
  7706  0028DC  0E38               	movlw	56
  7707  0028DE  EC28  F015         	call	_command
  7708                           
  7709                           ;SysRiego.c: 425: longDelay();
  7710  0028E2  EC27  F013         	call	_longDelay	;wreg free
  7711                           
  7712                           ;SysRiego.c: 426: command(0x0F);
  7713  0028E6  0E0F               	movlw	15
  7714  0028E8  EC28  F015         	call	_command
  7715                           
  7716                           ;SysRiego.c: 427: isReady();
  7717  0028EC  ECC1  F014         	call	_isReady	;wreg free
  7718                           
  7719                           ;SysRiego.c: 428: command(0x01);
  7720  0028F0  0E01               	movlw	1
  7721  0028F2  EC28  F015         	call	_command
  7722                           
  7723                           ;SysRiego.c: 429: isReady();
  7724  0028F6  ECC1  F014         	call	_isReady	;wreg free
  7725  0028FA  0012               	return		;funcret
  7726  0028FC                     __end_of_LCDSetup:
  7727                           	opt stack 0
  7728                           tblptru	equ	0xFF8
  7729                           tblptrh	equ	0xFF7
  7730                           tblptrl	equ	0xFF6
  7731                           tablat	equ	0xFF5
  7732                           prodh	equ	0xFF4
  7733                           prodl	equ	0xFF3
  7734                           intcon	equ	0xFF2
  7735                           intcon2	equ	0xFF1
  7736                           indf0	equ	0xFEF
  7737                           postinc0	equ	0xFEE
  7738                           fsr0h	equ	0xFEA
  7739                           fsr0l	equ	0xFE9
  7740                           wreg	equ	0xFE8
  7741                           indf1	equ	0xFE7
  7742                           postdec1	equ	0xFE5
  7743                           plusw1	equ	0xFE3
  7744                           fsr1h	equ	0xFE2
  7745                           fsr1l	equ	0xFE1
  7746                           indf2	equ	0xFDF
  7747                           postinc2	equ	0xFDE
  7748                           postdec2	equ	0xFDD
  7749                           plusw2	equ	0xFDB
  7750                           fsr2h	equ	0xFDA
  7751                           fsr2l	equ	0xFD9
  7752                           status	equ	0xFD8
  7753                           
  7754 ;; *************** function _longDelay *****************
  7755 ;; Defined at:
  7756 ;;		line 439 in file "SysRiego.c"
  7757 ;; Parameters:    Size  Location     Type
  7758 ;;		None
  7759 ;; Auto vars:     Size  Location     Type
  7760 ;;  L3REG           1    2[BANK0 ] unsigned char 
  7761 ;;  L2REG           1    1[BANK0 ] unsigned char 
  7762 ;;  L1REG           1    0[BANK0 ] unsigned char 
  7763 ;; Return value:  Size  Location     Type
  7764 ;;                  1    wreg      void 
  7765 ;; Registers used:
  7766 ;;		wreg, status,2, status,0
  7767 ;; Tracked objects:
  7768 ;;		On entry : 0/0
  7769 ;;		On exit  : 0/0
  7770 ;;		Unchanged: 0/0
  7771 ;; Data sizes:     COMRAM   BANK0   BANK1   BANK2   BANK3   BANK4   BANK5   BANK6   BANK7   BANK8   BANK9  BANK10  BANK1
      +1  BANK12
  7772 ;;      Params:         0       0       0       0       0       0       0       0       0       0       0       0       
      +0       0
  7773 ;;      Locals:         0       3       0       0       0       0       0       0       0       0       0       0       
      +0       0
  7774 ;;      Temps:          0       0       0       0       0       0       0       0       0       0       0       0       
      +0       0
  7775 ;;      Totals:         0       3       0       0       0       0       0       0       0       0       0       0       
      +0       0
  7776 ;;Total ram usage:        3 bytes
  7777 ;; Hardware stack levels used:    1
  7778 ;; Hardware stack levels required when called:    7
  7779 ;; This function calls:
  7780 ;;		Nothing
  7781 ;; This function is called by:
  7782 ;;		_LCDSetup
  7783 ;; This function uses a non-reentrant model
  7784 ;;
  7785                           
  7786                           	psect	text40
  7787  00264E                     __ptext40:
  7788                           	opt stack 0
  7789  00264E                     _longDelay:
  7790                           	opt stack 22
  7791                           
  7792                           ;SysRiego.c: 440: unsigned char L1REG = 2;
  7793                           
  7794                           ;incstack = 0
  7795  00264E  0E02               	movlw	2
  7796  002650  0100               	movlb	0	; () banked
  7797  002652  6FEC               	movwf	longDelay@L1REG& (0+255),b
  7798                           
  7799                           ;SysRiego.c: 441: unsigned char L2REG = 162;
  7800  002654  0EA2               	movlw	162
  7801  002656  0100               	movlb	0	; () banked
  7802  002658  6FED               	movwf	longDelay@L2REG& (0+255),b
  7803                           
  7804                           ; BSR set to: 0
  7805                           ;SysRiego.c: 442: unsigned char L3REG = 255;
  7806  00265A  0100               	movlb	0	; () banked
  7807  00265C  69EE               	setf	longDelay@L3REG& (0+255),b
  7808                           
  7809                           ;SysRiego.c: 444: while(L1REG-- > 0){
  7810  00265E  D012               	goto	l4978
  7811  002660                     l4972:
  7812                           
  7813                           ; BSR set to: 0
  7814                           ;SysRiego.c: 445: L2REG = 162;
  7815  002660  0EA2               	movlw	162
  7816  002662  0100               	movlb	0	; () banked
  7817  002664  6FED               	movwf	longDelay@L2REG& (0+255),b
  7818                           
  7819                           ;SysRiego.c: 446: while(L2REG-- > 0){
  7820  002666  D008               	goto	l4976
  7821  002668                     l301:
  7822                           
  7823                           ; BSR set to: 0
  7824                           ;SysRiego.c: 447: L3REG = 255;
  7825  002668  0100               	movlb	0	; () banked
  7826  00266A  69EE               	setf	longDelay@L3REG& (0+255),b
  7827  00266C                     l4974:
  7828                           
  7829                           ; BSR set to: 0
  7830  00266C  0100               	movlb	0	; () banked
  7831  00266E  07EE               	decf	longDelay@L3REG& (0+255),f,b
  7832  002670  0100               	movlb	0	; () banked
  7833  002672  29EE               	incf	longDelay@L3REG& (0+255),w,b
  7834  002674  A4D8               	btfss	status,2,c
  7835  002676  D7FA               	goto	l4974
  7836  002678                     l4976:
  7837                           
  7838                           ; BSR set to: 0
  7839  002678  0100               	movlb	0	; () banked
  7840  00267A  07ED               	decf	longDelay@L2REG& (0+255),f,b
  7841  00267C  0100               	movlb	0	; () banked
  7842  00267E  29ED               	incf	longDelay@L2REG& (0+255),w,b
  7843  002680  A4D8               	btfss	status,2,c
  7844  002682  D7F2               	goto	l301
  7845  002684                     l4978:
  7846                           
  7847                           ; BSR set to: 0
  7848  002684  0100               	movlb	0	; () banked
  7849  002686  07EC               	decf	longDelay@L1REG& (0+255),f,b
  7850  002688  0100               	movlb	0	; () banked
  7851  00268A  29EC               	incf	longDelay@L1REG& (0+255),w,b
  7852  00268C  B4D8               	btfsc	status,2,c
  7853  00268E  0012               	return	
  7854  002690  D7E7               	goto	l4972
  7855  002692                     __end_of_longDelay:
  7856                           	opt stack 0
  7857                           tblptru	equ	0xFF8
  7858                           tblptrh	equ	0xFF7
  7859                           tblptrl	equ	0xFF6
  7860                           tablat	equ	0xFF5
  7861                           prodh	equ	0xFF4
  7862                           prodl	equ	0xFF3
  7863                           intcon	equ	0xFF2
  7864                           intcon2	equ	0xFF1
  7865                           indf0	equ	0xFEF
  7866                           postinc0	equ	0xFEE
  7867                           fsr0h	equ	0xFEA
  7868                           fsr0l	equ	0xFE9
  7869                           wreg	equ	0xFE8
  7870                           indf1	equ	0xFE7
  7871                           postdec1	equ	0xFE5
  7872                           plusw1	equ	0xFE3
  7873                           fsr1h	equ	0xFE2
  7874                           fsr1l	equ	0xFE1
  7875                           indf2	equ	0xFDF
  7876                           postinc2	equ	0xFDE
  7877                           postdec2	equ	0xFDD
  7878                           plusw2	equ	0xFDB
  7879                           fsr2h	equ	0xFDA
  7880                           fsr2l	equ	0xFD9
  7881                           status	equ	0xFD8
  7882                           
  7883 ;; *************** function _isReady *****************
  7884 ;; Defined at:
  7885 ;;		line 462 in file "SysRiego.c"
  7886 ;; Parameters:    Size  Location     Type
  7887 ;;		None
  7888 ;; Auto vars:     Size  Location     Type
  7889 ;;		None
  7890 ;; Return value:  Size  Location     Type
  7891 ;;                  1    wreg      void 
  7892 ;; Registers used:
  7893 ;;		wreg, status,2, status,0, cstack
  7894 ;; Tracked objects:
  7895 ;;		On entry : 0/0
  7896 ;;		On exit  : 0/0
  7897 ;;		Unchanged: 0/0
  7898 ;; Data sizes:     COMRAM   BANK0   BANK1   BANK2   BANK3   BANK4   BANK5   BANK6   BANK7   BANK8   BANK9  BANK10  BANK1
      +1  BANK12
  7899 ;;      Params:         0       0       0       0       0       0       0       0       0       0       0       0       
      +0       0
  7900 ;;      Locals:         0       0       0       0       0       0       0       0       0       0       0       0       
      +0       0
  7901 ;;      Temps:          0       0       0       0       0       0       0       0       0       0       0       0       
      +0       0
  7902 ;;      Totals:         0       0       0       0       0       0       0       0       0       0       0       0       
      +0       0
  7903 ;;Total ram usage:        0 bytes
  7904 ;; Hardware stack levels used:    1
  7905 ;; Hardware stack levels required when called:    8
  7906 ;; This function calls:
  7907 ;;		_portDAsInput
  7908 ;;		_portDAsOutput
  7909 ;;		_shortDelay
  7910 ;; This function is called by:
  7911 ;;		_LCDSetup
  7912 ;;		_clearDisplay
  7913 ;;		_secondLine
  7914 ;;		_moveCurR
  7915 ;;		_moveCurL
  7916 ;; This function uses a non-reentrant model
  7917 ;;
  7918                           
  7919                           	psect	text41
  7920  002982                     __ptext41:
  7921                           	opt stack 0
  7922  002982                     _isReady:
  7923                           	opt stack 20
  7924                           
  7925                           ;SysRiego.c: 463: portDAsInput();
  7926                           
  7927                           ; BSR set to: 0
  7928                           ;incstack = 0
  7929  002982  EC8D  F015         	call	_portDAsInput	;wreg free
  7930                           
  7931                           ;SysRiego.c: 464: PORTCbits.RC0 = 0;
  7932  002986  9082               	bcf	3970,0,c	;volatile
  7933                           
  7934                           ;SysRiego.c: 465: PORTCbits.RC1 = 1;
  7935  002988  8282               	bsf	3970,1,c	;volatile
  7936                           
  7937                           ;SysRiego.c: 467: while(PORTDbits.RD7 == 1){
  7938  00298A  D004               	goto	l4852
  7939  00298C                     l314:
  7940                           
  7941                           ;SysRiego.c: 468: PORTCbits.RC2 = 1;
  7942  00298C  8482               	bsf	3970,2,c	;volatile
  7943                           
  7944                           ;SysRiego.c: 469: shortDelay();
  7945  00298E  EC52  F015         	call	_shortDelay	;wreg free
  7946                           
  7947                           ;SysRiego.c: 470: PORTCbits.RC2 = 0;
  7948  002992  9482               	bcf	3970,2,c	;volatile
  7949  002994                     l4852:
  7950  002994  BE83               	btfsc	3971,7,c	;volatile
  7951  002996  D7FA               	goto	l314
  7952                           
  7953                           ;SysRiego.c: 471: }
  7954                           ;SysRiego.c: 472: portDAsOutput();
  7955  002998  EC8A  F015         	call	_portDAsOutput	;wreg free
  7956  00299C  0012               	return		;funcret
  7957  00299E                     __end_of_isReady:
  7958                           	opt stack 0
  7959                           tblptru	equ	0xFF8
  7960                           tblptrh	equ	0xFF7
  7961                           tblptrl	equ	0xFF6
  7962                           tablat	equ	0xFF5
  7963                           prodh	equ	0xFF4
  7964                           prodl	equ	0xFF3
  7965                           intcon	equ	0xFF2
  7966                           intcon2	equ	0xFF1
  7967                           indf0	equ	0xFEF
  7968                           postinc0	equ	0xFEE
  7969                           fsr0h	equ	0xFEA
  7970                           fsr0l	equ	0xFE9
  7971                           wreg	equ	0xFE8
  7972                           indf1	equ	0xFE7
  7973                           postdec1	equ	0xFE5
  7974                           plusw1	equ	0xFE3
  7975                           fsr1h	equ	0xFE2
  7976                           fsr1l	equ	0xFE1
  7977                           indf2	equ	0xFDF
  7978                           postinc2	equ	0xFDE
  7979                           postdec2	equ	0xFDD
  7980                           plusw2	equ	0xFDB
  7981                           fsr2h	equ	0xFDA
  7982                           fsr2l	equ	0xFD9
  7983                           status	equ	0xFD8
  7984                           
  7985 ;; *************** function _portDAsOutput *****************
  7986 ;; Defined at:
  7987 ;;		line 417 in file "SysRiego.c"
  7988 ;; Parameters:    Size  Location     Type
  7989 ;;		None
  7990 ;; Auto vars:     Size  Location     Type
  7991 ;;		None
  7992 ;; Return value:  Size  Location     Type
  7993 ;;                  1    wreg      void 
  7994 ;; Registers used:
  7995 ;;		wreg, status,2
  7996 ;; Tracked objects:
  7997 ;;		On entry : 0/0
  7998 ;;		On exit  : 0/0
  7999 ;;		Unchanged: 0/0
  8000 ;; Data sizes:     COMRAM   BANK0   BANK1   BANK2   BANK3   BANK4   BANK5   BANK6   BANK7   BANK8   BANK9  BANK10  BANK1
      +1  BANK12
  8001 ;;      Params:         0       0       0       0       0       0       0       0       0       0       0       0       
      +0       0
  8002 ;;      Locals:         0       0       0       0       0       0       0       0       0       0       0       0       
      +0       0
  8003 ;;      Temps:          0       0       0       0       0       0       0       0       0       0       0       0       
      +0       0
  8004 ;;      Totals:         0       0       0       0       0       0       0       0       0       0       0       0       
      +0       0
  8005 ;;Total ram usage:        0 bytes
  8006 ;; Hardware stack levels used:    1
  8007 ;; Hardware stack levels required when called:    7
  8008 ;; This function calls:
  8009 ;;		Nothing
  8010 ;; This function is called by:
  8011 ;;		_main
  8012 ;;		_isReady
  8013 ;; This function uses a non-reentrant model
  8014 ;;
  8015                           
  8016                           	psect	text42
  8017  002B14                     __ptext42:
  8018                           	opt stack 0
  8019  002B14                     _portDAsOutput:
  8020                           	opt stack 20
  8021                           
  8022                           ;SysRiego.c: 418: TRISD = 0x00;
  8023                           
  8024                           ;incstack = 0
  8025  002B14  0E00               	movlw	0
  8026  002B16  6E95               	movwf	3989,c	;volatile
  8027  002B18  0012               	return		;funcret
  8028  002B1A                     __end_of_portDAsOutput:
  8029                           	opt stack 0
  8030                           tblptru	equ	0xFF8
  8031                           tblptrh	equ	0xFF7
  8032                           tblptrl	equ	0xFF6
  8033                           tablat	equ	0xFF5
  8034                           prodh	equ	0xFF4
  8035                           prodl	equ	0xFF3
  8036                           intcon	equ	0xFF2
  8037                           intcon2	equ	0xFF1
  8038                           indf0	equ	0xFEF
  8039                           postinc0	equ	0xFEE
  8040                           fsr0h	equ	0xFEA
  8041                           fsr0l	equ	0xFE9
  8042                           wreg	equ	0xFE8
  8043                           indf1	equ	0xFE7
  8044                           postdec1	equ	0xFE5
  8045                           plusw1	equ	0xFE3
  8046                           fsr1h	equ	0xFE2
  8047                           fsr1l	equ	0xFE1
  8048                           indf2	equ	0xFDF
  8049                           postinc2	equ	0xFDE
  8050                           postdec2	equ	0xFDD
  8051                           plusw2	equ	0xFDB
  8052                           fsr2h	equ	0xFDA
  8053                           fsr2l	equ	0xFD9
  8054                           status	equ	0xFD8
  8055                           
  8056 ;; *************** function _portDAsInput *****************
  8057 ;; Defined at:
  8058 ;;		line 413 in file "SysRiego.c"
  8059 ;; Parameters:    Size  Location     Type
  8060 ;;		None
  8061 ;; Auto vars:     Size  Location     Type
  8062 ;;		None
  8063 ;; Return value:  Size  Location     Type
  8064 ;;                  1    wreg      void 
  8065 ;; Registers used:
  8066 ;;		None
  8067 ;; Tracked objects:
  8068 ;;		On entry : 0/0
  8069 ;;		On exit  : 0/0
  8070 ;;		Unchanged: 0/0
  8071 ;; Data sizes:     COMRAM   BANK0   BANK1   BANK2   BANK3   BANK4   BANK5   BANK6   BANK7   BANK8   BANK9  BANK10  BANK1
      +1  BANK12
  8072 ;;      Params:         0       0       0       0       0       0       0       0       0       0       0       0       
      +0       0
  8073 ;;      Locals:         0       0       0       0       0       0       0       0       0       0       0       0       
      +0       0
  8074 ;;      Temps:          0       0       0       0       0       0       0       0       0       0       0       0       
      +0       0
  8075 ;;      Totals:         0       0       0       0       0       0       0       0       0       0       0       0       
      +0       0
  8076 ;;Total ram usage:        0 bytes
  8077 ;; Hardware stack levels used:    1
  8078 ;; Hardware stack levels required when called:    7
  8079 ;; This function calls:
  8080 ;;		Nothing
  8081 ;; This function is called by:
  8082 ;;		_isReady
  8083 ;; This function uses a non-reentrant model
  8084 ;;
  8085                           
  8086                           	psect	text43
  8087  002B1A                     __ptext43:
  8088                           	opt stack 0
  8089  002B1A                     _portDAsInput:
  8090                           	opt stack 20
  8091                           
  8092                           ;SysRiego.c: 414: TRISD = 0xFF;
  8093                           
  8094                           ;incstack = 0
  8095  002B1A  6895               	setf	3989,c	;volatile
  8096  002B1C  0012               	return		;funcret
  8097  002B1E                     __end_of_portDAsInput:
  8098                           	opt stack 0
  8099                           tblptru	equ	0xFF8
  8100                           tblptrh	equ	0xFF7
  8101                           tblptrl	equ	0xFF6
  8102                           tablat	equ	0xFF5
  8103                           prodh	equ	0xFF4
  8104                           prodl	equ	0xFF3
  8105                           intcon	equ	0xFF2
  8106                           intcon2	equ	0xFF1
  8107                           indf0	equ	0xFEF
  8108                           postinc0	equ	0xFEE
  8109                           fsr0h	equ	0xFEA
  8110                           fsr0l	equ	0xFE9
  8111                           wreg	equ	0xFE8
  8112                           indf1	equ	0xFE7
  8113                           postdec1	equ	0xFE5
  8114                           plusw1	equ	0xFE3
  8115                           fsr1h	equ	0xFE2
  8116                           fsr1l	equ	0xFE1
  8117                           indf2	equ	0xFDF
  8118                           postinc2	equ	0xFDE
  8119                           postdec2	equ	0xFDD
  8120                           plusw2	equ	0xFDB
  8121                           fsr2h	equ	0xFDA
  8122                           fsr2l	equ	0xFD9
  8123                           status	equ	0xFD8
  8124                           
  8125 ;; *************** function _command *****************
  8126 ;; Defined at:
  8127 ;;		line 453 in file "SysRiego.c"
  8128 ;; Parameters:    Size  Location     Type
  8129 ;;  x               1    wreg     unsigned char 
  8130 ;; Auto vars:     Size  Location     Type
  8131 ;;  x               1    1[BANK0 ] unsigned char 
  8132 ;; Return value:  Size  Location     Type
  8133 ;;                  1    wreg      void 
  8134 ;; Registers used:
  8135 ;;		wreg, status,2, status,0, cstack
  8136 ;; Tracked objects:
  8137 ;;		On entry : 0/0
  8138 ;;		On exit  : 0/0
  8139 ;;		Unchanged: 0/0
  8140 ;; Data sizes:     COMRAM   BANK0   BANK1   BANK2   BANK3   BANK4   BANK5   BANK6   BANK7   BANK8   BANK9  BANK10  BANK1
      +1  BANK12
  8141 ;;      Params:         0       0       0       0       0       0       0       0       0       0       0       0       
      +0       0
  8142 ;;      Locals:         0       1       0       0       0       0       0       0       0       0       0       0       
      +0       0
  8143 ;;      Temps:          0       0       0       0       0       0       0       0       0       0       0       0       
      +0       0
  8144 ;;      Totals:         0       1       0       0       0       0       0       0       0       0       0       0       
      +0       0
  8145 ;;Total ram usage:        1 bytes
  8146 ;; Hardware stack levels used:    1
  8147 ;; Hardware stack levels required when called:    8
  8148 ;; This function calls:
  8149 ;;		_shortDelay
  8150 ;; This function is called by:
  8151 ;;		_LCDSetup
  8152 ;;		_clearDisplay
  8153 ;;		_secondLine
  8154 ;;		_workingTimer
  8155 ;;		_moveCurH
  8156 ;;		_moveCurR
  8157 ;;		_moveCurL
  8158 ;; This function uses a non-reentrant model
  8159 ;;
  8160                           
  8161                           	psect	text44
  8162  002A50                     __ptext44:
  8163                           	opt stack 0
  8164  002A50                     _command:
  8165                           	opt stack 21
  8166                           
  8167                           ;incstack = 0
  8168                           ;command@x stored from wreg
  8169  002A50  0100               	movlb	0	; () banked
  8170  002A52  6FED               	movwf	command@x& (0+255),b
  8171                           
  8172                           ;SysRiego.c: 454: PORTD = x;
  8173  002A54  C0ED  FF83         	movff	command@x,3971	;volatile
  8174                           
  8175                           ;SysRiego.c: 455: PORTCbits.RC0 = 0;
  8176  002A58  9082               	bcf	3970,0,c	;volatile
  8177                           
  8178                           ;SysRiego.c: 456: PORTCbits.RC1 = 0;
  8179  002A5A  9282               	bcf	3970,1,c	;volatile
  8180                           
  8181                           ;SysRiego.c: 457: PORTCbits.RC2 = 1;
  8182  002A5C  8482               	bsf	3970,2,c	;volatile
  8183                           
  8184                           ;SysRiego.c: 458: shortDelay();
  8185  002A5E  EC52  F015         	call	_shortDelay	;wreg free
  8186                           
  8187                           ;SysRiego.c: 459: PORTCbits.RC2 = 0;
  8188  002A62  9482               	bcf	3970,2,c	;volatile
  8189  002A64  0012               	return		;funcret
  8190  002A66                     __end_of_command:
  8191                           	opt stack 0
  8192                           tblptru	equ	0xFF8
  8193                           tblptrh	equ	0xFF7
  8194                           tblptrl	equ	0xFF6
  8195                           tablat	equ	0xFF5
  8196                           prodh	equ	0xFF4
  8197                           prodl	equ	0xFF3
  8198                           intcon	equ	0xFF2
  8199                           intcon2	equ	0xFF1
  8200                           indf0	equ	0xFEF
  8201                           postinc0	equ	0xFEE
  8202                           fsr0h	equ	0xFEA
  8203                           fsr0l	equ	0xFE9
  8204                           wreg	equ	0xFE8
  8205                           indf1	equ	0xFE7
  8206                           postdec1	equ	0xFE5
  8207                           plusw1	equ	0xFE3
  8208                           fsr1h	equ	0xFE2
  8209                           fsr1l	equ	0xFE1
  8210                           indf2	equ	0xFDF
  8211                           postinc2	equ	0xFDE
  8212                           postdec2	equ	0xFDD
  8213                           plusw2	equ	0xFDB
  8214                           fsr2h	equ	0xFDA
  8215                           fsr2l	equ	0xFD9
  8216                           status	equ	0xFD8
  8217                           
  8218 ;; *************** function _shortDelay *****************
  8219 ;; Defined at:
  8220 ;;		line 433 in file "SysRiego.c"
  8221 ;; Parameters:    Size  Location     Type
  8222 ;;		None
  8223 ;; Auto vars:     Size  Location     Type
  8224 ;;  L1REG           1    0[BANK0 ] unsigned char 
  8225 ;; Return value:  Size  Location     Type
  8226 ;;                  1    wreg      void 
  8227 ;; Registers used:
  8228 ;;		wreg, status,2, status,0
  8229 ;; Tracked objects:
  8230 ;;		On entry : 0/0
  8231 ;;		On exit  : 0/0
  8232 ;;		Unchanged: 0/0
  8233 ;; Data sizes:     COMRAM   BANK0   BANK1   BANK2   BANK3   BANK4   BANK5   BANK6   BANK7   BANK8   BANK9  BANK10  BANK1
      +1  BANK12
  8234 ;;      Params:         0       0       0       0       0       0       0       0       0       0       0       0       
      +0       0
  8235 ;;      Locals:         0       1       0       0       0       0       0       0       0       0       0       0       
      +0       0
  8236 ;;      Temps:          0       0       0       0       0       0       0       0       0       0       0       0       
      +0       0
  8237 ;;      Totals:         0       1       0       0       0       0       0       0       0       0       0       0       
      +0       0
  8238 ;;Total ram usage:        1 bytes
  8239 ;; Hardware stack levels used:    1
  8240 ;; Hardware stack levels required when called:    7
  8241 ;; This function calls:
  8242 ;;		Nothing
  8243 ;; This function is called by:
  8244 ;;		_command
  8245 ;;		_isReady
  8246 ;;		_displayCharOnLCD
  8247 ;;		_clearDisplay
  8248 ;;		_secondLine
  8249 ;;		_moveCurR
  8250 ;;		_moveCurL
  8251 ;; This function uses a non-reentrant model
  8252 ;;
  8253                           
  8254                           	psect	text45
  8255  002AA4                     __ptext45:
  8256                           	opt stack 0
  8257  002AA4                     _shortDelay:
  8258                           	opt stack 20
  8259                           
  8260                           ;SysRiego.c: 434: unsigned char L1REG = 2;
  8261                           
  8262                           ;incstack = 0
  8263  002AA4  0E02               	movlw	2
  8264  002AA6  0100               	movlb	0	; () banked
  8265  002AA8  6FEC               	movwf	shortDelay@L1REG& (0+255),b
  8266  002AAA                     l4806:
  8267                           
  8268                           ; BSR set to: 0
  8269  002AAA  0100               	movlb	0	; () banked
  8270  002AAC  07EC               	decf	shortDelay@L1REG& (0+255),f,b
  8271  002AAE  0100               	movlb	0	; () banked
  8272  002AB0  29EC               	incf	shortDelay@L1REG& (0+255),w,b
  8273  002AB2  B4D8               	btfsc	status,2,c
  8274  002AB4  0012               	return	
  8275  002AB6  D7F9               	goto	l4806
  8276  002AB8                     __end_of_shortDelay:
  8277                           	opt stack 0
  8278                           tblptru	equ	0xFF8
  8279                           tblptrh	equ	0xFF7
  8280                           tblptrl	equ	0xFF6
  8281                           tablat	equ	0xFF5
  8282                           prodh	equ	0xFF4
  8283                           prodl	equ	0xFF3
  8284                           intcon	equ	0xFF2
  8285                           intcon2	equ	0xFF1
  8286                           indf0	equ	0xFEF
  8287                           postinc0	equ	0xFEE
  8288                           fsr0h	equ	0xFEA
  8289                           fsr0l	equ	0xFE9
  8290                           wreg	equ	0xFE8
  8291                           indf1	equ	0xFE7
  8292                           postdec1	equ	0xFE5
  8293                           plusw1	equ	0xFE3
  8294                           fsr1h	equ	0xFE2
  8295                           fsr1l	equ	0xFE1
  8296                           indf2	equ	0xFDF
  8297                           postinc2	equ	0xFDE
  8298                           postdec2	equ	0xFDD
  8299                           plusw2	equ	0xFDB
  8300                           fsr2h	equ	0xFDA
  8301                           fsr2l	equ	0xFD9
  8302                           status	equ	0xFD8
  8303                           
  8304 ;; *************** function _ISRL *****************
  8305 ;; Defined at:
  8306 ;;		line 888 in file "SysRiego.c"
  8307 ;; Parameters:    Size  Location     Type
  8308 ;;		None
  8309 ;; Auto vars:     Size  Location     Type
  8310 ;;		None
  8311 ;; Return value:  Size  Location     Type
  8312 ;;                  1    wreg      void 
  8313 ;; Registers used:
  8314 ;;		None
  8315 ;; Tracked objects:
  8316 ;;		On entry : 0/0
  8317 ;;		On exit  : 0/0
  8318 ;;		Unchanged: 0/0
  8319 ;; Data sizes:     COMRAM   BANK0   BANK1   BANK2   BANK3   BANK4   BANK5   BANK6   BANK7   BANK8   BANK9  BANK10  BANK1
      +1  BANK12
  8320 ;;      Params:         0       0       0       0       0       0       0       0       0       0       0       0       
      +0       0
  8321 ;;      Locals:         0       0       0       0       0       0       0       0       0       0       0       0       
      +0       0
  8322 ;;      Temps:         17       0       0       0       0       0       0       0       0       0       0       0       
      +0       0
  8323 ;;      Totals:        17       0       0       0       0       0       0       0       0       0       0       0       
      +0       0
  8324 ;;Total ram usage:       17 bytes
  8325 ;; Hardware stack levels used:    1
  8326 ;; Hardware stack levels required when called:    6
  8327 ;; This function calls:
  8328 ;;		Nothing
  8329 ;; This function is called by:
  8330 ;;		Interrupt level 1
  8331 ;; This function uses a non-reentrant model
  8332 ;;
  8333                           
  8334                           	psect	intcodelo
  8335  000018                     __pintcodelo:
  8336                           	opt stack 0
  8337  000018                     _ISRL:
  8338                           	opt stack 18
  8339                           
  8340                           ; BSR set to: 0
  8341                           ;incstack = 0
  8342  000018  8044               	bsf	btemp,0,c	;set compiler interrupt flag (level 1)
  8343  00001A  CFD8 F012          	movff	status,??_ISRL
  8344  00001E  CFE8 F013          	movff	wreg,??_ISRL+1
  8345  000022  CFE0 F014          	movff	bsr,??_ISRL+2
  8346  000026  CFFA F015          	movff	pclath,??_ISRL+3
  8347  00002A  CFFB F016          	movff	pclatu,??_ISRL+4
  8348  00002E  CFE9 F017          	movff	fsr0l,??_ISRL+5
  8349  000032  CFEA F018          	movff	fsr0h,??_ISRL+6
  8350  000036  CFE1 F019          	movff	fsr1l,??_ISRL+7
  8351  00003A  CFE2 F01A          	movff	fsr1h,??_ISRL+8
  8352  00003E  CFD9 F01B          	movff	fsr2l,??_ISRL+9
  8353  000042  CFDA F01C          	movff	fsr2h,??_ISRL+10
  8354  000046  CFF3 F01D          	movff	prodl,??_ISRL+11
  8355  00004A  CFF4 F01E          	movff	prodh,??_ISRL+12
  8356  00004E  CFF6 F01F          	movff	tblptrl,??_ISRL+13
  8357  000052  CFF7 F020          	movff	tblptrh,??_ISRL+14
  8358  000056  CFF8 F021          	movff	tblptru,??_ISRL+15
  8359  00005A  CFF5 F022          	movff	tablat,??_ISRL+16
  8360  00005E  C022  FFF5         	movff	??_ISRL+16,tablat
  8361  000062  C021  FFF8         	movff	??_ISRL+15,tblptru
  8362  000066  C020  FFF7         	movff	??_ISRL+14,tblptrh
  8363  00006A  C01F  FFF6         	movff	??_ISRL+13,tblptrl
  8364  00006E  C01E  FFF4         	movff	??_ISRL+12,prodh
  8365  000072  C01D  FFF3         	movff	??_ISRL+11,prodl
  8366  000076  C01C  FFDA         	movff	??_ISRL+10,fsr2h
  8367  00007A  C01B  FFD9         	movff	??_ISRL+9,fsr2l
  8368  00007E  C01A  FFE2         	movff	??_ISRL+8,fsr1h
  8369  000082  C019  FFE1         	movff	??_ISRL+7,fsr1l
  8370  000086  C018  FFEA         	movff	??_ISRL+6,fsr0h
  8371  00008A  C017  FFE9         	movff	??_ISRL+5,fsr0l
  8372  00008E  C016  FFFB         	movff	??_ISRL+4,pclatu
  8373  000092  C015  FFFA         	movff	??_ISRL+3,pclath
  8374  000096  C014  FFE0         	movff	??_ISRL+2,bsr
  8375  00009A  C013  FFE8         	movff	??_ISRL+1,wreg
  8376  00009E  C012  FFD8         	movff	??_ISRL,status
  8377  0000A2  9044               	bcf	btemp,0,c	;clear compiler interrupt flag (level 1)
  8378  0000A4  0010               	retfie	
  8379  0000A6                     __end_of_ISRL:
  8380                           	opt stack 0
  8381                           pclatu	equ	0xFFB
  8382                           pclath	equ	0xFFA
  8383                           tblptru	equ	0xFF8
  8384                           tblptrh	equ	0xFF7
  8385                           tblptrl	equ	0xFF6
  8386                           tablat	equ	0xFF5
  8387                           prodh	equ	0xFF4
  8388                           prodl	equ	0xFF3
  8389                           intcon	equ	0xFF2
  8390                           intcon2	equ	0xFF1
  8391                           indf0	equ	0xFEF
  8392                           postinc0	equ	0xFEE
  8393                           fsr0h	equ	0xFEA
  8394                           fsr0l	equ	0xFE9
  8395                           wreg	equ	0xFE8
  8396                           indf1	equ	0xFE7
  8397                           postdec1	equ	0xFE5
  8398                           plusw1	equ	0xFE3
  8399                           fsr1h	equ	0xFE2
  8400                           fsr1l	equ	0xFE1
  8401                           bsr	equ	0xFE0
  8402                           indf2	equ	0xFDF
  8403                           postinc2	equ	0xFDE
  8404                           postdec2	equ	0xFDD
  8405                           plusw2	equ	0xFDB
  8406                           fsr2h	equ	0xFDA
  8407                           fsr2l	equ	0xFD9
  8408                           status	equ	0xFD8
  8409                           
  8410 ;; *************** function _ISRH *****************
  8411 ;; Defined at:
  8412 ;;		line 893 in file "SysRiego.c"
  8413 ;; Parameters:    Size  Location     Type
  8414 ;;		None
  8415 ;; Auto vars:     Size  Location     Type
  8416 ;;		None
  8417 ;; Return value:  Size  Location     Type
  8418 ;;                  1    wreg      void 
  8419 ;; Registers used:
  8420 ;;		wreg, status,2, status,0, cstack
  8421 ;; Tracked objects:
  8422 ;;		On entry : 0/0
  8423 ;;		On exit  : 0/0
  8424 ;;		Unchanged: 0/0
  8425 ;; Data sizes:     COMRAM   BANK0   BANK1   BANK2   BANK3   BANK4   BANK5   BANK6   BANK7   BANK8   BANK9  BANK10  BANK1
      +1  BANK12
  8426 ;;      Params:         0       0       0       0       0       0       0       0       0       0       0       0       
      +0       0
  8427 ;;      Locals:         0       0       0       0       0       0       0       0       0       0       0       0       
      +0       0
  8428 ;;      Temps:         14       0       0       0       0       0       0       0       0       0       0       0       
      +0       0
  8429 ;;      Totals:        14       0       0       0       0       0       0       0       0       0       0       0       
      +0       0
  8430 ;;Total ram usage:       14 bytes
  8431 ;; Hardware stack levels used:    1
  8432 ;; Hardware stack levels required when called:    5
  8433 ;; This function calls:
  8434 ;;		_oneShot
  8435 ;;		_resetOneShot
  8436 ;;		i2_groundAllRows
  8437 ;; This function is called by:
  8438 ;;		Interrupt level 2
  8439 ;; This function uses a non-reentrant model
  8440 ;;
  8441                           
  8442                           	psect	intcode
  8443  000008                     __pintcode:
  8444                           	opt stack 0
  8445  000008                     _ISRH:
  8446                           	opt stack 18
  8447                           
  8448                           ;incstack = 0
  8449  000008  8244               	bsf	btemp,1,c	;set compiler interrupt flag (level 2)
  8450  00000A  CFFA F004          	movff	pclath,??_ISRH
  8451  00000E  CFFB F005          	movff	pclatu,??_ISRH+1
  8452  000012  ED0F  F00C         	call	int_func,f	;refresh shadow registers
  8453                           pclatu	equ	0xFFB
  8454                           pclath	equ	0xFFA
  8455                           tblptru	equ	0xFF8
  8456                           tblptrh	equ	0xFF7
  8457                           tblptrl	equ	0xFF6
  8458                           tablat	equ	0xFF5
  8459                           prodh	equ	0xFF4
  8460                           prodl	equ	0xFF3
  8461                           intcon	equ	0xFF2
  8462                           intcon2	equ	0xFF1
  8463                           indf0	equ	0xFEF
  8464                           postinc0	equ	0xFEE
  8465                           fsr0h	equ	0xFEA
  8466                           fsr0l	equ	0xFE9
  8467                           wreg	equ	0xFE8
  8468                           indf1	equ	0xFE7
  8469                           postdec1	equ	0xFE5
  8470                           plusw1	equ	0xFE3
  8471                           fsr1h	equ	0xFE2
  8472                           fsr1l	equ	0xFE1
  8473                           bsr	equ	0xFE0
  8474                           indf2	equ	0xFDF
  8475                           postinc2	equ	0xFDE
  8476                           postdec2	equ	0xFDD
  8477                           plusw2	equ	0xFDB
  8478                           fsr2h	equ	0xFDA
  8479                           fsr2l	equ	0xFD9
  8480                           status	equ	0xFD8
  8481                           
  8482                           	psect	intcode_body
  8483  00181E                     __pintcode_body:
  8484                           	opt stack 18
  8485  00181E                     int_func:
  8486                           	opt stack 18
  8487  00181E  0006               	pop		; remove dummy address from shadow register refresh
  8488  001820  CFE9 F006          	movff	fsr0l,??_ISRH+2
  8489  001824  CFEA F007          	movff	fsr0h,??_ISRH+3
  8490  001828  CFE1 F008          	movff	fsr1l,??_ISRH+4
  8491  00182C  CFE2 F009          	movff	fsr1h,??_ISRH+5
  8492  001830  CFD9 F00A          	movff	fsr2l,??_ISRH+6
  8493  001834  CFDA F00B          	movff	fsr2h,??_ISRH+7
  8494  001838  CFF3 F00C          	movff	prodl,??_ISRH+8
  8495  00183C  CFF4 F00D          	movff	prodh,??_ISRH+9
  8496  001840  CFF6 F00E          	movff	tblptrl,??_ISRH+10
  8497  001844  CFF7 F00F          	movff	tblptrh,??_ISRH+11
  8498  001848  CFF8 F010          	movff	tblptru,??_ISRH+12
  8499  00184C  CFF5 F011          	movff	tablat,??_ISRH+13
  8500                           
  8501                           ;SysRiego.c: 895: if(INTCONbits.RBIF==1)
  8502  001850  B0F2               	btfsc	intcon,0,c	;volatile
  8503  001852  D00C               	goto	i2l4468
  8504  001854  D00E               	goto	i2l442
  8505  001856                     i2l4458:
  8506                           
  8507                           ;SysRiego.c: 899: groundAllRows();
  8508  001856  EC80  F015         	call	i2_groundAllRows	;wreg free
  8509                           
  8510                           ;SysRiego.c: 901: if(PORTB != 0xF0){
  8511  00185A  0EF0               	movlw	240
  8512  00185C  1881               	xorwf	3969,w,c	;volatile
  8513  00185E  A4D8               	btfss	status,2,c
  8514                           
  8515                           ;SysRiego.c: 902: oneShot();
  8516  001860  ECDD  F014         	call	_oneShot	;wreg free
  8517                           
  8518                           ;SysRiego.c: 903: }
  8519                           ;SysRiego.c: 904: if(oneShotFlag == 1){
  8520  001864  0441               	decf	_oneShotFlag,w,c
  8521  001866  B4D8               	btfsc	status,2,c
  8522                           
  8523                           ;SysRiego.c: 905: resetOneShot();
  8524  001868  ECCF  F014         	call	_resetOneShot	;wreg free
  8525  00186C                     i2l4468:
  8526  00186C  A0F2               	btfss	intcon,0,c	;volatile
  8527  00186E  D065               	goto	i2l448
  8528  001870  D7F2               	goto	i2l4458
  8529  001872                     i2l442:
  8530                           
  8531                           ;SysRiego.c: 911: }
  8532                           ;SysRiego.c: 914: if(TMR0IE && TMR0IF)
  8533  001872  BAF2               	btfsc	intcon,5,c	;volatile
  8534  001874  A4F2               	btfss	intcon,2,c	;volatile
  8535  001876  D05F               	goto	i2l449
  8536                           
  8537                           ;SysRiego.c: 915: {
  8538                           ;SysRiego.c: 916: counterSEC++;
  8539  001878  2A24               	incf	_counterSEC,f,c
  8540                           
  8541                           ;SysRiego.c: 917: if(counterSEC=='5')
  8542  00187A  0E35               	movlw	53
  8543  00187C  1824               	xorwf	_counterSEC,w,c
  8544  00187E  A4D8               	btfss	status,2,c
  8545  001880  D054               	goto	i2l4514
  8546                           
  8547                           ;SysRiego.c: 918: {
  8548                           ;SysRiego.c: 919: counterSEC='0';
  8549  001882  0E30               	movlw	48
  8550  001884  6E24               	movwf	_counterSEC,c
  8551                           
  8552                           ;SysRiego.c: 920: counterMIN[1]++;
  8553  001886  0100               	movlb	0	; () banked
  8554  001888  2BE1               	incf	(_counterMIN+1)& (0+255),f,b
  8555                           
  8556                           ; BSR set to: 0
  8557                           ;SysRiego.c: 921: if(counterMIN[1]==':')
  8558  00188A  0E3A               	movlw	58
  8559  00188C  0100               	movlb	0	; () banked
  8560  00188E  19E1               	xorwf	(_counterMIN+1)& (0+255),w,b
  8561  001890  A4D8               	btfss	status,2,c
  8562  001892  D04B               	goto	i2l4514
  8563                           
  8564                           ; BSR set to: 0
  8565                           ;SysRiego.c: 922: {
  8566                           ;SysRiego.c: 923: counterMIN[1]='0';
  8567  001894  0E30               	movlw	48
  8568  001896  0100               	movlb	0	; () banked
  8569  001898  6FE1               	movwf	(_counterMIN+1)& (0+255),b
  8570                           
  8571                           ; BSR set to: 0
  8572                           ;SysRiego.c: 924: counterMIN[0]++;
  8573  00189A  0100               	movlb	0	; () banked
  8574  00189C  2BE0               	incf	_counterMIN& (0+255),f,b
  8575                           
  8576                           ; BSR set to: 0
  8577                           ;SysRiego.c: 925: if(counterMIN[0]=='6')
  8578  00189E  0E36               	movlw	54
  8579  0018A0  0100               	movlb	0	; () banked
  8580  0018A2  19E0               	xorwf	_counterMIN& (0+255),w,b
  8581  0018A4  A4D8               	btfss	status,2,c
  8582  0018A6  D041               	goto	i2l4514
  8583                           
  8584                           ; BSR set to: 0
  8585                           ;SysRiego.c: 926: {
  8586                           ;SysRiego.c: 928: if(counterHOUR[0] < '2') {
  8587  0018A8  0E32               	movlw	50
  8588  0018AA  0100               	movlb	0	; () banked
  8589  0018AC  61DD               	cpfslt	_counterHOUR& (0+255),b
  8590  0018AE  D010               	goto	i2l4500
  8591                           
  8592                           ; BSR set to: 0
  8593                           ;SysRiego.c: 930: counterMIN[0]='0';
  8594  0018B0  0E30               	movlw	48
  8595  0018B2  0100               	movlb	0	; () banked
  8596  0018B4  6FE0               	movwf	_counterMIN& (0+255),b
  8597                           
  8598                           ; BSR set to: 0
  8599                           ;SysRiego.c: 931: counterHOUR[1]++;
  8600  0018B6  0100               	movlb	0	; () banked
  8601  0018B8  2BDE               	incf	(_counterHOUR+1)& (0+255),f,b
  8602                           
  8603                           ; BSR set to: 0
  8604                           ;SysRiego.c: 933: if(counterHOUR[1] == ':') {
  8605  0018BA  0E3A               	movlw	58
  8606  0018BC  0100               	movlb	0	; () banked
  8607  0018BE  19DE               	xorwf	(_counterHOUR+1)& (0+255),w,b
  8608  0018C0  A4D8               	btfss	status,2,c
  8609  0018C2  D033               	goto	i2l4514
  8610                           
  8611                           ; BSR set to: 0
  8612                           ;SysRiego.c: 934: counterHOUR[1] = '0';
  8613  0018C4  0E30               	movlw	48
  8614  0018C6  0100               	movlb	0	; () banked
  8615  0018C8  6FDE               	movwf	(_counterHOUR+1)& (0+255),b
  8616                           
  8617                           ; BSR set to: 0
  8618                           ;SysRiego.c: 935: counterHOUR[0]++;
  8619  0018CA  0100               	movlb	0	; () banked
  8620  0018CC  2BDD               	incf	_counterHOUR& (0+255),f,b
  8621                           
  8622                           ; BSR set to: 0
  8623                           ;SysRiego.c: 936: }
  8624                           ;SysRiego.c: 938: }
  8625  0018CE  D02D               	goto	i2l4514
  8626  0018D0                     i2l4500:
  8627                           
  8628                           ; BSR set to: 0
  8629                           ;SysRiego.c: 940: else if( counterHOUR[1] < '3')
  8630  0018D0  0E33               	movlw	51
  8631  0018D2  0100               	movlb	0	; () banked
  8632  0018D4  61DE               	cpfslt	(_counterHOUR+1)& (0+255),b
  8633  0018D6  D006               	goto	i2l4506
  8634                           
  8635                           ; BSR set to: 0
  8636                           ;SysRiego.c: 941: {
  8637                           ;SysRiego.c: 942: counterMIN[0]='0';
  8638  0018D8  0E30               	movlw	48
  8639  0018DA  0100               	movlb	0	; () banked
  8640  0018DC  6FE0               	movwf	_counterMIN& (0+255),b
  8641                           
  8642                           ; BSR set to: 0
  8643                           ;SysRiego.c: 943: counterHOUR[1]++;
  8644  0018DE  0100               	movlb	0	; () banked
  8645  0018E0  2BDE               	incf	(_counterHOUR+1)& (0+255),f,b
  8646                           
  8647                           ;SysRiego.c: 944: }
  8648  0018E2  D023               	goto	i2l4514
  8649  0018E4                     i2l4506:
  8650                           
  8651                           ; BSR set to: 0
  8652                           ;SysRiego.c: 946: else {
  8653                           ;SysRiego.c: 948: counterSEC = '0';
  8654  0018E4  0E30               	movlw	48
  8655  0018E6  6E24               	movwf	_counterSEC,c
  8656                           
  8657                           ;SysRiego.c: 949: counterMIN[0] = '0';
  8658  0018E8  0E30               	movlw	48
  8659  0018EA  0100               	movlb	0	; () banked
  8660  0018EC  6FE0               	movwf	_counterMIN& (0+255),b
  8661                           
  8662                           ;SysRiego.c: 950: counterMIN[1] = '0';
  8663  0018EE  0E30               	movlw	48
  8664  0018F0  0100               	movlb	0	; () banked
  8665  0018F2  6FE1               	movwf	(_counterMIN+1)& (0+255),b
  8666                           
  8667                           ;SysRiego.c: 951: counterHOUR[0] = '0';
  8668  0018F4  0E30               	movlw	48
  8669  0018F6  0100               	movlb	0	; () banked
  8670  0018F8  6FDD               	movwf	_counterHOUR& (0+255),b
  8671                           
  8672                           ;SysRiego.c: 952: counterHOUR[1] = '0';
  8673  0018FA  0E30               	movlw	48
  8674  0018FC  0100               	movlb	0	; () banked
  8675  0018FE  6FDE               	movwf	(_counterHOUR+1)& (0+255),b
  8676                           
  8677                           ; BSR set to: 0
  8678                           ;SysRiego.c: 953: counterDAYS++;
  8679  001900  2A23               	incf	_counterDAYS,f,c
  8680                           
  8681                           ; BSR set to: 0
  8682                           ;SysRiego.c: 955: if (counterDAYS == '7') {
  8683  001902  0E37               	movlw	55
  8684  001904  1823               	xorwf	_counterDAYS,w,c
  8685  001906  A4D8               	btfss	status,2,c
  8686  001908  D010               	goto	i2l4514
  8687                           
  8688                           ; BSR set to: 0
  8689                           ;SysRiego.c: 957: counterSEC = '0';
  8690  00190A  0E30               	movlw	48
  8691  00190C  6E24               	movwf	_counterSEC,c
  8692                           
  8693                           ;SysRiego.c: 958: counterMIN[0] = '0';
  8694  00190E  0E30               	movlw	48
  8695  001910  0100               	movlb	0	; () banked
  8696  001912  6FE0               	movwf	_counterMIN& (0+255),b
  8697                           
  8698                           ;SysRiego.c: 959: counterMIN[1] = '0';
  8699  001914  0E30               	movlw	48
  8700  001916  0100               	movlb	0	; () banked
  8701  001918  6FE1               	movwf	(_counterMIN+1)& (0+255),b
  8702                           
  8703                           ;SysRiego.c: 960: counterHOUR[0] = '0';
  8704  00191A  0E30               	movlw	48
  8705  00191C  0100               	movlb	0	; () banked
  8706  00191E  6FDD               	movwf	_counterHOUR& (0+255),b
  8707                           
  8708                           ;SysRiego.c: 961: counterHOUR[1] = '0';
  8709  001920  0E30               	movlw	48
  8710  001922  0100               	movlb	0	; () banked
  8711  001924  6FDE               	movwf	(_counterHOUR+1)& (0+255),b
  8712                           
  8713                           ;SysRiego.c: 962: counterDAYS = '0';
  8714  001926  0E30               	movlw	48
  8715  001928  6E23               	movwf	_counterDAYS,c
  8716  00192A                     i2l4514:
  8717                           
  8718                           ;SysRiego.c: 963: }
  8719                           ;SysRiego.c: 964: }
  8720                           ;SysRiego.c: 965: }
  8721                           ;SysRiego.c: 966: }
  8722                           ;SysRiego.c: 967: }
  8723                           ;SysRiego.c: 969: INTCONbits.TMR0IF = 0;
  8724  00192A  94F2               	bcf	intcon,2,c	;volatile
  8725                           
  8726                           ;SysRiego.c: 970: TMR0 = 0x3A98;
  8727  00192C  0E3A               	movlw	58
  8728  00192E  6ED7               	movwf	4055,c	;volatile
  8729  001930  0E98               	movlw	152
  8730  001932  6ED6               	movwf	4054,c	;volatile
  8731                           
  8732                           ;SysRiego.c: 971: return;
  8733  001934  D002               	goto	i2l448
  8734  001936                     i2l449:
  8735                           
  8736                           ;SysRiego.c: 972: }
  8737                           ;SysRiego.c: 974: if(PIR1bits.ADIF == 1) {
  8738  001936  BC9E               	btfsc	3998,6,c	;volatile
  8739                           
  8740                           ;SysRiego.c: 976: PIR1bits.ADIF=0;
  8741  001938  9C9E               	bcf	3998,6,c	;volatile
  8742  00193A                     i2l448:
  8743  00193A  C011  FFF5         	movff	??_ISRH+13,tablat
  8744  00193E  C010  FFF8         	movff	??_ISRH+12,tblptru
  8745  001942  C00F  FFF7         	movff	??_ISRH+11,tblptrh
  8746  001946  C00E  FFF6         	movff	??_ISRH+10,tblptrl
  8747  00194A  C00D  FFF4         	movff	??_ISRH+9,prodh
  8748  00194E  C00C  FFF3         	movff	??_ISRH+8,prodl
  8749  001952  C00B  FFDA         	movff	??_ISRH+7,fsr2h
  8750  001956  C00A  FFD9         	movff	??_ISRH+6,fsr2l
  8751  00195A  C009  FFE2         	movff	??_ISRH+5,fsr1h
  8752  00195E  C008  FFE1         	movff	??_ISRH+4,fsr1l
  8753  001962  C007  FFEA         	movff	??_ISRH+3,fsr0h
  8754  001966  C006  FFE9         	movff	??_ISRH+2,fsr0l
  8755  00196A  C005  FFFB         	movff	??_ISRH+1,pclatu
  8756  00196E  C004  FFFA         	movff	??_ISRH,pclath
  8757  001972  9244               	bcf	btemp,1,c	;clear compiler interrupt flag (level 2)
  8758  001974  0011               	retfie		f
  8759  001976                     __end_of_ISRH:
  8760                           	opt stack 0
  8761                           pclatu	equ	0xFFB
  8762                           pclath	equ	0xFFA
  8763                           tblptru	equ	0xFF8
  8764                           tblptrh	equ	0xFF7
  8765                           tblptrl	equ	0xFF6
  8766                           tablat	equ	0xFF5
  8767                           prodh	equ	0xFF4
  8768                           prodl	equ	0xFF3
  8769                           intcon	equ	0xFF2
  8770                           intcon2	equ	0xFF1
  8771                           indf0	equ	0xFEF
  8772                           postinc0	equ	0xFEE
  8773                           fsr0h	equ	0xFEA
  8774                           fsr0l	equ	0xFE9
  8775                           wreg	equ	0xFE8
  8776                           indf1	equ	0xFE7
  8777                           postdec1	equ	0xFE5
  8778                           plusw1	equ	0xFE3
  8779                           fsr1h	equ	0xFE2
  8780                           fsr1l	equ	0xFE1
  8781                           bsr	equ	0xFE0
  8782                           indf2	equ	0xFDF
  8783                           postinc2	equ	0xFDE
  8784                           postdec2	equ	0xFDD
  8785                           plusw2	equ	0xFDB
  8786                           fsr2h	equ	0xFDA
  8787                           fsr2l	equ	0xFD9
  8788                           status	equ	0xFD8
  8789                           
  8790 ;; *************** function i2_groundAllRows *****************
  8791 ;; Defined at:
  8792 ;;		line 1015 in file "SysRiego.c"
  8793 ;; Parameters:    Size  Location     Type
  8794 ;;		None
  8795 ;; Auto vars:     Size  Location     Type
  8796 ;;		None
  8797 ;; Return value:  Size  Location     Type
  8798 ;;                  1    wreg      void 
  8799 ;; Registers used:
  8800 ;;		None
  8801 ;; Tracked objects:
  8802 ;;		On entry : 0/0
  8803 ;;		On exit  : 0/0
  8804 ;;		Unchanged: 0/0
  8805 ;; Data sizes:     COMRAM   BANK0   BANK1   BANK2   BANK3   BANK4   BANK5   BANK6   BANK7   BANK8   BANK9  BANK10  BANK1
      +1  BANK12
  8806 ;;      Params:         0       0       0       0       0       0       0       0       0       0       0       0       
      +0       0
  8807 ;;      Locals:         0       0       0       0       0       0       0       0       0       0       0       0       
      +0       0
  8808 ;;      Temps:          0       0       0       0       0       0       0       0       0       0       0       0       
      +0       0
  8809 ;;      Totals:         0       0       0       0       0       0       0       0       0       0       0       0       
      +0       0
  8810 ;;Total ram usage:        0 bytes
  8811 ;; Hardware stack levels used:    1
  8812 ;; This function calls:
  8813 ;;		Nothing
  8814 ;; This function is called by:
  8815 ;;		_ISRH
  8816 ;; This function uses a non-reentrant model
  8817 ;;
  8818                           
  8819                           	psect	text48
  8820  002B00                     __ptext48:
  8821                           	opt stack 0
  8822  002B00                     i2_groundAllRows:
  8823                           	opt stack 22
  8824                           
  8825                           ;SysRiego.c: 1016: PORTBbits.RB0 = 0;
  8826                           
  8827                           ;incstack = 0
  8828  002B00  9081               	bcf	3969,0,c	;volatile
  8829                           
  8830                           ;SysRiego.c: 1017: PORTBbits.RB1 = 0;
  8831  002B02  9281               	bcf	3969,1,c	;volatile
  8832                           
  8833                           ;SysRiego.c: 1018: PORTBbits.RB2 = 0;
  8834  002B04  9481               	bcf	3969,2,c	;volatile
  8835                           
  8836                           ;SysRiego.c: 1019: PORTBbits.RB3 = 0;
  8837  002B06  9681               	bcf	3969,3,c	;volatile
  8838  002B08  0012               	return		;funcret
  8839  002B0A                     __end_ofi2_groundAllRows:
  8840                           	opt stack 0
  8841                           pclatu	equ	0xFFB
  8842                           pclath	equ	0xFFA
  8843                           tblptru	equ	0xFF8
  8844                           tblptrh	equ	0xFF7
  8845                           tblptrl	equ	0xFF6
  8846                           tablat	equ	0xFF5
  8847                           prodh	equ	0xFF4
  8848                           prodl	equ	0xFF3
  8849                           intcon	equ	0xFF2
  8850                           intcon2	equ	0xFF1
  8851                           indf0	equ	0xFEF
  8852                           postinc0	equ	0xFEE
  8853                           fsr0h	equ	0xFEA
  8854                           fsr0l	equ	0xFE9
  8855                           wreg	equ	0xFE8
  8856                           indf1	equ	0xFE7
  8857                           postdec1	equ	0xFE5
  8858                           plusw1	equ	0xFE3
  8859                           fsr1h	equ	0xFE2
  8860                           fsr1l	equ	0xFE1
  8861                           bsr	equ	0xFE0
  8862                           indf2	equ	0xFDF
  8863                           postinc2	equ	0xFDE
  8864                           postdec2	equ	0xFDD
  8865                           plusw2	equ	0xFDB
  8866                           fsr2h	equ	0xFDA
  8867                           fsr2l	equ	0xFD9
  8868                           status	equ	0xFD8
  8869                           
  8870 ;; *************** function _resetOneShot *****************
  8871 ;; Defined at:
  8872 ;;		line 1042 in file "SysRiego.c"
  8873 ;; Parameters:    Size  Location     Type
  8874 ;;		None
  8875 ;; Auto vars:     Size  Location     Type
  8876 ;;		None
  8877 ;; Return value:  Size  Location     Type
  8878 ;;                  1    wreg      void 
  8879 ;; Registers used:
  8880 ;;		wreg, status,2, status,0, cstack
  8881 ;; Tracked objects:
  8882 ;;		On entry : 0/0
  8883 ;;		On exit  : 0/0
  8884 ;;		Unchanged: 0/0
  8885 ;; Data sizes:     COMRAM   BANK0   BANK1   BANK2   BANK3   BANK4   BANK5   BANK6   BANK7   BANK8   BANK9  BANK10  BANK1
      +1  BANK12
  8886 ;;      Params:         0       0       0       0       0       0       0       0       0       0       0       0       
      +0       0
  8887 ;;      Locals:         0       0       0       0       0       0       0       0       0       0       0       0       
      +0       0
  8888 ;;      Temps:          0       0       0       0       0       0       0       0       0       0       0       0       
      +0       0
  8889 ;;      Totals:         0       0       0       0       0       0       0       0       0       0       0       0       
      +0       0
  8890 ;;Total ram usage:        0 bytes
  8891 ;; Hardware stack levels used:    1
  8892 ;; Hardware stack levels required when called:    1
  8893 ;; This function calls:
  8894 ;;		i2_delay
  8895 ;; This function is called by:
  8896 ;;		_ISRH
  8897 ;; This function uses a non-reentrant model
  8898 ;;
  8899                           
  8900                           	psect	text49
  8901  00299E                     __ptext49:
  8902                           	opt stack 0
  8903  00299E                     _resetOneShot:
  8904                           	opt stack 21
  8905                           
  8906                           ;SysRiego.c: 1043: if (PORTB == 0xF0)
  8907                           
  8908                           ;incstack = 0
  8909  00299E  0EF0               	movlw	240
  8910  0029A0  1881               	xorwf	3969,w,c	;volatile
  8911  0029A2  A4D8               	btfss	status,2,c
  8912  0029A4  0012               	return	
  8913                           
  8914                           ;SysRiego.c: 1044: delay();
  8915  0029A6  ECEB  F014         	call	i2_delay	;wreg free
  8916                           
  8917                           ;SysRiego.c: 1047: if (PORTB == 0XF0){
  8918                           
  8919                           ;SysRiego.c: 1045: else
  8920                           ;SysRiego.c: 1046: return;
  8921  0029AA  0EF0               	movlw	240
  8922  0029AC  1881               	xorwf	3969,w,c	;volatile
  8923  0029AE  A4D8               	btfss	status,2,c
  8924  0029B0  0012               	return	
  8925                           
  8926                           ;SysRiego.c: 1048: INTCONbits.RBIF=0;
  8927  0029B2  90F2               	bcf	intcon,0,c	;volatile
  8928                           
  8929                           ;SysRiego.c: 1049: oneShotFlag = 0;
  8930  0029B4  0E00               	movlw	0
  8931  0029B6  6E41               	movwf	_oneShotFlag,c
  8932  0029B8  0012               	return	
  8933  0029BA                     __end_of_resetOneShot:
  8934                           	opt stack 0
  8935                           pclatu	equ	0xFFB
  8936                           pclath	equ	0xFFA
  8937                           tblptru	equ	0xFF8
  8938                           tblptrh	equ	0xFF7
  8939                           tblptrl	equ	0xFF6
  8940                           tablat	equ	0xFF5
  8941                           prodh	equ	0xFF4
  8942                           prodl	equ	0xFF3
  8943                           intcon	equ	0xFF2
  8944                           intcon2	equ	0xFF1
  8945                           indf0	equ	0xFEF
  8946                           postinc0	equ	0xFEE
  8947                           fsr0h	equ	0xFEA
  8948                           fsr0l	equ	0xFE9
  8949                           wreg	equ	0xFE8
  8950                           indf1	equ	0xFE7
  8951                           postdec1	equ	0xFE5
  8952                           plusw1	equ	0xFE3
  8953                           fsr1h	equ	0xFE2
  8954                           fsr1l	equ	0xFE1
  8955                           bsr	equ	0xFE0
  8956                           indf2	equ	0xFDF
  8957                           postinc2	equ	0xFDE
  8958                           postdec2	equ	0xFDD
  8959                           plusw2	equ	0xFDB
  8960                           fsr2h	equ	0xFDA
  8961                           fsr2l	equ	0xFD9
  8962                           status	equ	0xFD8
  8963                           
  8964 ;; *************** function _oneShot *****************
  8965 ;; Defined at:
  8966 ;;		line 1022 in file "SysRiego.c"
  8967 ;; Parameters:    Size  Location     Type
  8968 ;;		None
  8969 ;; Auto vars:     Size  Location     Type
  8970 ;;		None
  8971 ;; Return value:  Size  Location     Type
  8972 ;;                  1    wreg      void 
  8973 ;; Registers used:
  8974 ;;		wreg, status,2, status,0, cstack
  8975 ;; Tracked objects:
  8976 ;;		On entry : 0/0
  8977 ;;		On exit  : 0/0
  8978 ;;		Unchanged: 0/0
  8979 ;; Data sizes:     COMRAM   BANK0   BANK1   BANK2   BANK3   BANK4   BANK5   BANK6   BANK7   BANK8   BANK9  BANK10  BANK1
      +1  BANK12
  8980 ;;      Params:         0       0       0       0       0       0       0       0       0       0       0       0       
      +0       0
  8981 ;;      Locals:         0       0       0       0       0       0       0       0       0       0       0       0       
      +0       0
  8982 ;;      Temps:          0       0       0       0       0       0       0       0       0       0       0       0       
      +0       0
  8983 ;;      Totals:         0       0       0       0       0       0       0       0       0       0       0       0       
      +0       0
  8984 ;;Total ram usage:        0 bytes
  8985 ;; Hardware stack levels used:    1
  8986 ;; Hardware stack levels required when called:    4
  8987 ;; This function calls:
  8988 ;;		_pressedKey
  8989 ;;		i2_delay
  8990 ;; This function is called by:
  8991 ;;		_ISRH
  8992 ;; This function uses a non-reentrant model
  8993 ;;
  8994                           
  8995                           	psect	text50
  8996  0029BA                     __ptext50:
  8997                           	opt stack 0
  8998  0029BA                     _oneShot:
  8999                           	opt stack 18
  9000                           
  9001                           ;SysRiego.c: 1023: if (oneShotFlag == 1)
  9002                           
  9003                           ;incstack = 0
  9004  0029BA  0441               	decf	_oneShotFlag,w,c
  9005  0029BC  B4D8               	btfsc	status,2,c
  9006  0029BE  0012               	return	
  9007                           
  9008                           ;SysRiego.c: 1025: delay();
  9009                           
  9010                           ;SysRiego.c: 1024: return;
  9011  0029C0  ECEB  F014         	call	i2_delay	;wreg free
  9012                           
  9013                           ;SysRiego.c: 1026: if (PORTB != 0xF0){
  9014  0029C4  0EF0               	movlw	240
  9015  0029C6  1881               	xorwf	3969,w,c	;volatile
  9016  0029C8  B4D8               	btfsc	status,2,c
  9017  0029CA  0012               	return	
  9018                           
  9019                           ;SysRiego.c: 1027: pressedKey();
  9020  0029CC  EC04  F013         	call	_pressedKey	;wreg free
  9021                           
  9022                           ;SysRiego.c: 1028: oneShotFlag = 1;
  9023  0029D0  0E01               	movlw	1
  9024  0029D2  6E41               	movwf	_oneShotFlag,c
  9025  0029D4  0012               	return	
  9026  0029D6                     __end_of_oneShot:
  9027                           	opt stack 0
  9028                           pclatu	equ	0xFFB
  9029                           pclath	equ	0xFFA
  9030                           tblptru	equ	0xFF8
  9031                           tblptrh	equ	0xFF7
  9032                           tblptrl	equ	0xFF6
  9033                           tablat	equ	0xFF5
  9034                           prodh	equ	0xFF4
  9035                           prodl	equ	0xFF3
  9036                           intcon	equ	0xFF2
  9037                           intcon2	equ	0xFF1
  9038                           indf0	equ	0xFEF
  9039                           postinc0	equ	0xFEE
  9040                           fsr0h	equ	0xFEA
  9041                           fsr0l	equ	0xFE9
  9042                           wreg	equ	0xFE8
  9043                           indf1	equ	0xFE7
  9044                           postdec1	equ	0xFE5
  9045                           plusw1	equ	0xFE3
  9046                           fsr1h	equ	0xFE2
  9047                           fsr1l	equ	0xFE1
  9048                           bsr	equ	0xFE0
  9049                           indf2	equ	0xFDF
  9050                           postinc2	equ	0xFDE
  9051                           postdec2	equ	0xFDD
  9052                           plusw2	equ	0xFDB
  9053                           fsr2h	equ	0xFDA
  9054                           fsr2l	equ	0xFD9
  9055                           status	equ	0xFD8
  9056                           
  9057 ;; *************** function i2_delay *****************
  9058 ;; Defined at:
  9059 ;;		line 1033 in file "SysRiego.c"
  9060 ;; Parameters:    Size  Location     Type
  9061 ;;		None
  9062 ;; Auto vars:     Size  Location     Type
  9063 ;;  delay           1    2[COMRAM] unsigned char 
  9064 ;;  delay           1    1[COMRAM] unsigned char 
  9065 ;; Return value:  Size  Location     Type
  9066 ;;                  1    wreg      void 
  9067 ;; Registers used:
  9068 ;;		wreg, status,2, status,0
  9069 ;; Tracked objects:
  9070 ;;		On entry : 0/0
  9071 ;;		On exit  : 0/0
  9072 ;;		Unchanged: 0/0
  9073 ;; Data sizes:     COMRAM   BANK0   BANK1   BANK2   BANK3   BANK4   BANK5   BANK6   BANK7   BANK8   BANK9  BANK10  BANK1
      +1  BANK12
  9074 ;;      Params:         0       0       0       0       0       0       0       0       0       0       0       0       
      +0       0
  9075 ;;      Locals:         2       0       0       0       0       0       0       0       0       0       0       0       
      +0       0
  9076 ;;      Temps:          1       0       0       0       0       0       0       0       0       0       0       0       
      +0       0
  9077 ;;      Totals:         3       0       0       0       0       0       0       0       0       0       0       0       
      +0       0
  9078 ;;Total ram usage:        3 bytes
  9079 ;; Hardware stack levels used:    1
  9080 ;; This function calls:
  9081 ;;		Nothing
  9082 ;; This function is called by:
  9083 ;;		_oneShot
  9084 ;;		_resetOneShot
  9085 ;; This function uses a non-reentrant model
  9086 ;;
  9087                           
  9088                           	psect	text51
  9089  0029D6                     __ptext51:
  9090                           	opt stack 0
  9091  0029D6                     i2_delay:
  9092                           	opt stack 21
  9093                           
  9094                           ;SysRiego.c: 1034: unsigned char L1REG = 0;
  9095                           
  9096                           ;incstack = 0
  9097  0029D6  0E00               	movlw	0
  9098  0029D8  6E02               	movwf	i2delay@L1REG,c
  9099                           
  9100                           ;SysRiego.c: 1035: unsigned char L2REG;
  9101                           ;SysRiego.c: 1036: while(L1REG++ < 13){
  9102  0029DA  D004               	goto	i2l3984
  9103  0029DC                     i2l3982:
  9104                           
  9105                           ;SysRiego.c: 1037: L2REG = 0;
  9106  0029DC  0E00               	movlw	0
  9107  0029DE  6E03               	movwf	i2delay@L2REG,c
  9108  0029E0                     i2l480:
  9109  0029E0  3E03               	incfsz	i2delay@L2REG,f,c
  9110  0029E2  D7FE               	goto	i2l480
  9111  0029E4                     i2l3984:
  9112  0029E4  2A02               	incf	i2delay@L1REG,f,c
  9113  0029E6  0402               	decf	i2delay@L1REG,w,c
  9114  0029E8  6E01               	movwf	??i2_delay& (0+255),c
  9115  0029EA  0E0C               	movlw	12
  9116  0029EC  6401               	cpfsgt	??i2_delay,c
  9117  0029EE  D7F6               	goto	i2l3982
  9118  0029F0  0012               	return	
  9119  0029F2                     __end_ofi2_delay:
  9120                           	opt stack 0
  9121                           pclatu	equ	0xFFB
  9122                           pclath	equ	0xFFA
  9123                           tblptru	equ	0xFF8
  9124                           tblptrh	equ	0xFF7
  9125                           tblptrl	equ	0xFF6
  9126                           tablat	equ	0xFF5
  9127                           prodh	equ	0xFF4
  9128                           prodl	equ	0xFF3
  9129                           intcon	equ	0xFF2
  9130                           intcon2	equ	0xFF1
  9131                           indf0	equ	0xFEF
  9132                           postinc0	equ	0xFEE
  9133                           fsr0h	equ	0xFEA
  9134                           fsr0l	equ	0xFE9
  9135                           wreg	equ	0xFE8
  9136                           indf1	equ	0xFE7
  9137                           postdec1	equ	0xFE5
  9138                           plusw1	equ	0xFE3
  9139                           fsr1h	equ	0xFE2
  9140                           fsr1l	equ	0xFE1
  9141                           bsr	equ	0xFE0
  9142                           indf2	equ	0xFDF
  9143                           postinc2	equ	0xFDE
  9144                           postdec2	equ	0xFDD
  9145                           plusw2	equ	0xFDB
  9146                           fsr2h	equ	0xFDA
  9147                           fsr2l	equ	0xFD9
  9148                           status	equ	0xFD8
  9149                           
  9150 ;; *************** function _pressedKey *****************
  9151 ;; Defined at:
  9152 ;;		line 1053 in file "SysRiego.c"
  9153 ;; Parameters:    Size  Location     Type
  9154 ;;		None
  9155 ;; Auto vars:     Size  Location     Type
  9156 ;;		None
  9157 ;; Return value:  Size  Location     Type
  9158 ;;                  1    wreg      void 
  9159 ;; Registers used:
  9160 ;;		wreg, status,2, status,0, cstack
  9161 ;; Tracked objects:
  9162 ;;		On entry : 0/0
  9163 ;;		On exit  : 0/0
  9164 ;;		Unchanged: 0/0
  9165 ;; Data sizes:     COMRAM   BANK0   BANK1   BANK2   BANK3   BANK4   BANK5   BANK6   BANK7   BANK8   BANK9  BANK10  BANK1
      +1  BANK12
  9166 ;;      Params:         0       0       0       0       0       0       0       0       0       0       0       0       
      +0       0
  9167 ;;      Locals:         0       0       0       0       0       0       0       0       0       0       0       0       
      +0       0
  9168 ;;      Temps:          0       0       0       0       0       0       0       0       0       0       0       0       
      +0       0
  9169 ;;      Totals:         0       0       0       0       0       0       0       0       0       0       0       0       
      +0       0
  9170 ;;Total ram usage:        0 bytes
  9171 ;; Hardware stack levels used:    1
  9172 ;; Hardware stack levels required when called:    3
  9173 ;; This function calls:
  9174 ;;		_pressedKeyAction
  9175 ;;		i2_determinePressedRow
  9176 ;;		i2_getKeyCode
  9177 ;; This function is called by:
  9178 ;;		_oneShot
  9179 ;; This function uses a non-reentrant model
  9180 ;;
  9181                           
  9182                           	psect	text52
  9183  002608                     __ptext52:
  9184                           	opt stack 0
  9185  002608                     _pressedKey:
  9186                           	opt stack 18
  9187                           
  9188                           ;SysRiego.c: 1055: switch(PORTB){
  9189                           
  9190                           ;incstack = 0
  9191  002608  D00B               	goto	i2l3902
  9192  00260A                     i2l3892:
  9193  00260A  0E01               	movlw	1
  9194  00260C  D007               	goto	L11
  9195  00260E                     i2l3894:
  9196  00260E  0E02               	movlw	2
  9197  002610  D005               	goto	L11
  9198  002612                     i2l3896:
  9199  002612  0E03               	movlw	3
  9200  002614  D003               	goto	L11
  9201  002616                     i2l3898:
  9202  002616  0E04               	movlw	4
  9203  002618  D001               	goto	L11
  9204  00261A                     i2l3900:
  9205  00261A  0E64               	movlw	100
  9206  00261C                     L11:
  9207  00261C  6E3C               	movwf	_columnSelected,c
  9208                           
  9209                           ;SysRiego.c: 1061: }
  9210  00261E  D00E               	goto	i2l3904
  9211  002620                     i2l3902:
  9212  002620  5081               	movf	3969,w,c	;volatile
  9213                           
  9214                           ; Switch size 1, requested type "space"
  9215                           ; Number of cases is 4, Range of values is 112 to 224
  9216                           ; switch strategies available:
  9217                           ; Name         Instructions Cycles
  9218                           ; simple_byte           13     7 (average)
  9219                           ;	Chosen strategy is simple_byte
  9220  002622  0A70               	xorlw	112	; case 112
  9221  002624  B4D8               	btfsc	status,2,c
  9222  002626  D7F7               	goto	i2l3898
  9223  002628  0AC0               	xorlw	192	; case 176
  9224  00262A  B4D8               	btfsc	status,2,c
  9225  00262C  D7F2               	goto	i2l3896
  9226  00262E  0A60               	xorlw	96	; case 208
  9227  002630  B4D8               	btfsc	status,2,c
  9228  002632  D7ED               	goto	i2l3894
  9229  002634  0A30               	xorlw	48	; case 224
  9230  002636  B4D8               	btfsc	status,2,c
  9231  002638  D7E8               	goto	i2l3892
  9232  00263A  D7EF               	goto	i2l3900
  9233  00263C                     i2l3904:
  9234                           
  9235                           ;SysRiego.c: 1062: determinePressedRow();
  9236  00263C  EC54  F00D         	call	i2_determinePressedRow	;wreg free
  9237                           
  9238                           ;SysRiego.c: 1063: keyCode = getKeyCode();
  9239  002640  EC37  F010         	call	i2_getKeyCode	;wreg free
  9240  002644  6E3F               	movwf	_keyCode,c
  9241                           
  9242                           ;SysRiego.c: 1064: pressedKeyAction(keyCode);
  9243  002646  503F               	movf	_keyCode,w,c
  9244  002648  ECAA  F00A         	call	_pressedKeyAction
  9245  00264C  0012               	return		;funcret
  9246  00264E                     __end_of_pressedKey:
  9247                           	opt stack 0
  9248                           pclatu	equ	0xFFB
  9249                           pclath	equ	0xFFA
  9250                           tblptru	equ	0xFF8
  9251                           tblptrh	equ	0xFF7
  9252                           tblptrl	equ	0xFF6
  9253                           tablat	equ	0xFF5
  9254                           prodh	equ	0xFF4
  9255                           prodl	equ	0xFF3
  9256                           intcon	equ	0xFF2
  9257                           intcon2	equ	0xFF1
  9258                           indf0	equ	0xFEF
  9259                           postinc0	equ	0xFEE
  9260                           fsr0h	equ	0xFEA
  9261                           fsr0l	equ	0xFE9
  9262                           wreg	equ	0xFE8
  9263                           indf1	equ	0xFE7
  9264                           postdec1	equ	0xFE5
  9265                           plusw1	equ	0xFE3
  9266                           fsr1h	equ	0xFE2
  9267                           fsr1l	equ	0xFE1
  9268                           bsr	equ	0xFE0
  9269                           indf2	equ	0xFDF
  9270                           postinc2	equ	0xFDE
  9271                           postdec2	equ	0xFDD
  9272                           plusw2	equ	0xFDB
  9273                           fsr2h	equ	0xFDA
  9274                           fsr2l	equ	0xFD9
  9275                           status	equ	0xFD8
  9276                           
  9277 ;; *************** function i2_getKeyCode *****************
  9278 ;; Defined at:
  9279 ;;		line 1157 in file "SysRiego.c"
  9280 ;; Parameters:    Size  Location     Type
  9281 ;;		None
  9282 ;; Auto vars:     Size  Location     Type
  9283 ;;		None
  9284 ;; Return value:  Size  Location     Type
  9285 ;;                  1    wreg      unsigned char 
  9286 ;; Registers used:
  9287 ;;		wreg, status,2, status,0
  9288 ;; Tracked objects:
  9289 ;;		On entry : 0/0
  9290 ;;		On exit  : 0/0
  9291 ;;		Unchanged: 0/0
  9292 ;; Data sizes:     COMRAM   BANK0   BANK1   BANK2   BANK3   BANK4   BANK5   BANK6   BANK7   BANK8   BANK9  BANK10  BANK1
      +1  BANK12
  9293 ;;      Params:         0       0       0       0       0       0       0       0       0       0       0       0       
      +0       0
  9294 ;;      Locals:         0       0       0       0       0       0       0       0       0       0       0       0       
      +0       0
  9295 ;;      Temps:          0       0       0       0       0       0       0       0       0       0       0       0       
      +0       0
  9296 ;;      Totals:         0       0       0       0       0       0       0       0       0       0       0       0       
      +0       0
  9297 ;;Total ram usage:        0 bytes
  9298 ;; Hardware stack levels used:    1
  9299 ;; This function calls:
  9300 ;;		Nothing
  9301 ;; This function is called by:
  9302 ;;		_pressedKey
  9303 ;; This function uses a non-reentrant model
  9304 ;;
  9305                           
  9306                           	psect	text53
  9307  00206E                     __ptext53:
  9308                           	opt stack 0
  9309  00206E                     i2_getKeyCode:
  9310                           	opt stack 20
  9311                           
  9312                           ;SysRiego.c: 1158: if(rowSelected == 1){
  9313                           
  9314                           ;incstack = 0
  9315  00206E  0442               	decf	_rowSelected,w,c
  9316  002070  B4D8               	btfsc	status,2,c
  9317  002072  D009               	goto	i2l3632
  9318  002074  D016               	goto	i2l3634
  9319  002076                     i2l3614:
  9320  002076  0E31               	movlw	49
  9321  002078  0012               	return	
  9322  00207A                     i2l3618:
  9323  00207A  0E32               	movlw	50
  9324  00207C  0012               	return	
  9325  00207E                     i2l3622:
  9326  00207E  0E33               	movlw	51
  9327  002080  0012               	return	
  9328  002082                     i2l3626:
  9329  002082  0E41               	movlw	65
  9330  002084  0012               	return	
  9331  002086                     i2l3632:
  9332  002086  503C               	movf	_columnSelected,w,c
  9333                           
  9334                           ; Switch size 1, requested type "space"
  9335                           ; Number of cases is 4, Range of values is 1 to 4
  9336                           ; switch strategies available:
  9337                           ; Name         Instructions Cycles
  9338                           ; simple_byte           13     7 (average)
  9339                           ;	Chosen strategy is simple_byte
  9340  002088  0A01               	xorlw	1	; case 1
  9341  00208A  B4D8               	btfsc	status,2,c
  9342  00208C  D7F4               	goto	i2l3614
  9343  00208E  0A03               	xorlw	3	; case 2
  9344  002090  B4D8               	btfsc	status,2,c
  9345  002092  D7F3               	goto	i2l3618
  9346  002094  0A01               	xorlw	1	; case 3
  9347  002096  B4D8               	btfsc	status,2,c
  9348  002098  D7F2               	goto	i2l3622
  9349  00209A  0A07               	xorlw	7	; case 4
  9350  00209C  B4D8               	btfsc	status,2,c
  9351  00209E  D7F1               	goto	i2l3626
  9352                           
  9353                           ;SysRiego.c: 1165: }
  9354  0020A0  D050               	goto	i2l3706
  9355  0020A2                     i2l3634:
  9356                           
  9357                           ;SysRiego.c: 1166: else if(rowSelected == 2){
  9358  0020A2  0E02               	movlw	2
  9359  0020A4  1842               	xorwf	_rowSelected,w,c
  9360  0020A6  B4D8               	btfsc	status,2,c
  9361  0020A8  D009               	goto	i2l3656
  9362  0020AA  D016               	goto	i2l3658
  9363  0020AC                     i2l3638:
  9364  0020AC  0E34               	movlw	52
  9365  0020AE  0012               	return	
  9366  0020B0                     i2l3642:
  9367  0020B0  0E35               	movlw	53
  9368  0020B2  0012               	return	
  9369  0020B4                     i2l3646:
  9370  0020B4  0E36               	movlw	54
  9371  0020B6  0012               	return	
  9372  0020B8                     i2l3650:
  9373  0020B8  0E42               	movlw	66
  9374  0020BA  0012               	return	
  9375  0020BC                     i2l3656:
  9376  0020BC  503C               	movf	_columnSelected,w,c
  9377                           
  9378                           ; Switch size 1, requested type "space"
  9379                           ; Number of cases is 4, Range of values is 1 to 4
  9380                           ; switch strategies available:
  9381                           ; Name         Instructions Cycles
  9382                           ; simple_byte           13     7 (average)
  9383                           ;	Chosen strategy is simple_byte
  9384  0020BE  0A01               	xorlw	1	; case 1
  9385  0020C0  B4D8               	btfsc	status,2,c
  9386  0020C2  D7F4               	goto	i2l3638
  9387  0020C4  0A03               	xorlw	3	; case 2
  9388  0020C6  B4D8               	btfsc	status,2,c
  9389  0020C8  D7F3               	goto	i2l3642
  9390  0020CA  0A01               	xorlw	1	; case 3
  9391  0020CC  B4D8               	btfsc	status,2,c
  9392  0020CE  D7F2               	goto	i2l3646
  9393  0020D0  0A07               	xorlw	7	; case 4
  9394  0020D2  B4D8               	btfsc	status,2,c
  9395  0020D4  D7F1               	goto	i2l3650
  9396                           
  9397                           ;SysRiego.c: 1173: }
  9398  0020D6  D035               	goto	i2l3706
  9399  0020D8                     i2l3658:
  9400                           
  9401                           ;SysRiego.c: 1174: else if(rowSelected == 3){
  9402  0020D8  0E03               	movlw	3
  9403  0020DA  1842               	xorwf	_rowSelected,w,c
  9404  0020DC  B4D8               	btfsc	status,2,c
  9405  0020DE  D009               	goto	i2l3680
  9406  0020E0  D016               	goto	i2l3682
  9407  0020E2                     i2l3662:
  9408  0020E2  0E37               	movlw	55
  9409  0020E4  0012               	return	
  9410  0020E6                     i2l3666:
  9411  0020E6  0E38               	movlw	56
  9412  0020E8  0012               	return	
  9413  0020EA                     i2l3670:
  9414  0020EA  0E39               	movlw	57
  9415  0020EC  0012               	return	
  9416  0020EE                     i2l3674:
  9417  0020EE  0E43               	movlw	67
  9418  0020F0  0012               	return	
  9419  0020F2                     i2l3680:
  9420  0020F2  503C               	movf	_columnSelected,w,c
  9421                           
  9422                           ; Switch size 1, requested type "space"
  9423                           ; Number of cases is 4, Range of values is 1 to 4
  9424                           ; switch strategies available:
  9425                           ; Name         Instructions Cycles
  9426                           ; simple_byte           13     7 (average)
  9427                           ;	Chosen strategy is simple_byte
  9428  0020F4  0A01               	xorlw	1	; case 1
  9429  0020F6  B4D8               	btfsc	status,2,c
  9430  0020F8  D7F4               	goto	i2l3662
  9431  0020FA  0A03               	xorlw	3	; case 2
  9432  0020FC  B4D8               	btfsc	status,2,c
  9433  0020FE  D7F3               	goto	i2l3666
  9434  002100  0A01               	xorlw	1	; case 3
  9435  002102  B4D8               	btfsc	status,2,c
  9436  002104  D7F2               	goto	i2l3670
  9437  002106  0A07               	xorlw	7	; case 4
  9438  002108  B4D8               	btfsc	status,2,c
  9439  00210A  D7F1               	goto	i2l3674
  9440                           
  9441                           ;SysRiego.c: 1181: }
  9442  00210C  D01A               	goto	i2l3706
  9443  00210E                     i2l3682:
  9444                           
  9445                           ;SysRiego.c: 1182: else if(rowSelected == 4){
  9446  00210E  0E04               	movlw	4
  9447  002110  1842               	xorwf	_rowSelected,w,c
  9448  002112  B4D8               	btfsc	status,2,c
  9449  002114  D009               	goto	i2l3704
  9450  002116  D015               	goto	i2l3706
  9451  002118                     i2l3686:
  9452  002118  0E2A               	movlw	42
  9453  00211A  0012               	return	
  9454  00211C                     i2l3690:
  9455  00211C  0E30               	movlw	48
  9456  00211E  0012               	return	
  9457  002120                     i2l3694:
  9458  002120  0E23               	movlw	35
  9459  002122  0012               	return	
  9460  002124                     i2l3698:
  9461  002124  0E44               	movlw	68
  9462  002126  0012               	return	
  9463  002128                     i2l3704:
  9464  002128  503C               	movf	_columnSelected,w,c
  9465                           
  9466                           ; Switch size 1, requested type "space"
  9467                           ; Number of cases is 4, Range of values is 1 to 4
  9468                           ; switch strategies available:
  9469                           ; Name         Instructions Cycles
  9470                           ; simple_byte           13     7 (average)
  9471                           ;	Chosen strategy is simple_byte
  9472  00212A  0A01               	xorlw	1	; case 1
  9473  00212C  B4D8               	btfsc	status,2,c
  9474  00212E  D7F4               	goto	i2l3686
  9475  002130  0A03               	xorlw	3	; case 2
  9476  002132  B4D8               	btfsc	status,2,c
  9477  002134  D7F3               	goto	i2l3690
  9478  002136  0A01               	xorlw	1	; case 3
  9479  002138  B4D8               	btfsc	status,2,c
  9480  00213A  D7F2               	goto	i2l3694
  9481  00213C  0A07               	xorlw	7	; case 4
  9482  00213E  B4D8               	btfsc	status,2,c
  9483  002140  D7F1               	goto	i2l3698
  9484  002142                     i2l3706:
  9485                           
  9486                           ;SysRiego.c: 1189: }
  9487                           ;SysRiego.c: 1190: return -1;
  9488  002142  0EFF               	movlw	255
  9489  002144  0012               	return	
  9490  002146                     __end_ofi2_getKeyCode:
  9491                           	opt stack 0
  9492                           pclatu	equ	0xFFB
  9493                           pclath	equ	0xFFA
  9494                           tblptru	equ	0xFF8
  9495                           tblptrh	equ	0xFF7
  9496                           tblptrl	equ	0xFF6
  9497                           tablat	equ	0xFF5
  9498                           prodh	equ	0xFF4
  9499                           prodl	equ	0xFF3
  9500                           intcon	equ	0xFF2
  9501                           intcon2	equ	0xFF1
  9502                           indf0	equ	0xFEF
  9503                           postinc0	equ	0xFEE
  9504                           fsr0h	equ	0xFEA
  9505                           fsr0l	equ	0xFE9
  9506                           wreg	equ	0xFE8
  9507                           indf1	equ	0xFE7
  9508                           postdec1	equ	0xFE5
  9509                           plusw1	equ	0xFE3
  9510                           fsr1h	equ	0xFE2
  9511                           fsr1l	equ	0xFE1
  9512                           bsr	equ	0xFE0
  9513                           indf2	equ	0xFDF
  9514                           postinc2	equ	0xFDE
  9515                           postdec2	equ	0xFDD
  9516                           plusw2	equ	0xFDB
  9517                           fsr2h	equ	0xFDA
  9518                           fsr2l	equ	0xFD9
  9519                           status	equ	0xFD8
  9520                           
  9521 ;; *************** function i2_determinePressedRow *****************
  9522 ;; Defined at:
  9523 ;;		line 1068 in file "SysRiego.c"
  9524 ;; Parameters:    Size  Location     Type
  9525 ;;		None
  9526 ;; Auto vars:     Size  Location     Type
  9527 ;;  determinePre    1    0[COMRAM] unsigned char 
  9528 ;; Return value:  Size  Location     Type
  9529 ;;                  1    wreg      void 
  9530 ;; Registers used:
  9531 ;;		wreg, status,2, status,0, cstack
  9532 ;; Tracked objects:
  9533 ;;		On entry : 0/0
  9534 ;;		On exit  : 0/0
  9535 ;;		Unchanged: 0/0
  9536 ;; Data sizes:     COMRAM   BANK0   BANK1   BANK2   BANK3   BANK4   BANK5   BANK6   BANK7   BANK8   BANK9  BANK10  BANK1
      +1  BANK12
  9537 ;;      Params:         0       0       0       0       0       0       0       0       0       0       0       0       
      +0       0
  9538 ;;      Locals:         1       0       0       0       0       0       0       0       0       0       0       0       
      +0       0
  9539 ;;      Temps:          0       0       0       0       0       0       0       0       0       0       0       0       
      +0       0
  9540 ;;      Totals:         1       0       0       0       0       0       0       0       0       0       0       0       
      +0       0
  9541 ;;Total ram usage:        1 bytes
  9542 ;; Hardware stack levels used:    1
  9543 ;; Hardware stack levels required when called:    1
  9544 ;; This function calls:
  9545 ;;		i2_turnOnAllRows
  9546 ;; This function is called by:
  9547 ;;		_pressedKey
  9548 ;; This function uses a non-reentrant model
  9549 ;;
  9550                           
  9551                           	psect	text54
  9552  001AA8                     __ptext54:
  9553                           	opt stack 0
  9554  001AA8                     i2_determinePressedRow:
  9555                           	opt stack 19
  9556                           
  9557                           ;SysRiego.c: 1069: char i;
  9558                           ;SysRiego.c: 1070: for(i=0; i<4; i++){
  9559                           
  9560                           ;incstack = 0
  9561  001AA8  0E00               	movlw	0
  9562  001AAA  6E01               	movwf	i2determinePressedRow@i,c
  9563  001AAC                     i2l3468:
  9564  001AAC  0E03               	movlw	3
  9565  001AAE  6401               	cpfsgt	i2determinePressedRow@i,c
  9566  001AB0  D001               	goto	i2l3472
  9567  001AB2  0012               	return	
  9568  001AB4                     i2l3472:
  9569                           
  9570                           ;SysRiego.c: 1071: turnOnAllRows();
  9571  001AB4  EC85  F015         	call	i2_turnOnAllRows	;wreg free
  9572                           
  9573                           ;SysRiego.c: 1072: switch(i){
  9574  001AB8  D07D               	goto	i2l3604
  9575  001ABA                     i2l506:
  9576                           
  9577                           ;SysRiego.c: 1075: PORTBbits.RB0 = 0;
  9578  001ABA  9081               	bcf	3969,0,c	;volatile
  9579                           
  9580                           ;SysRiego.c: 1077: if( (columnSelected == 1) && (PORTBbits.RB4 == 0)){
  9581  001ABC  043C               	decf	_columnSelected,w,c
  9582  001ABE  B4D8               	btfsc	status,2,c
  9583  001AC0  B881               	btfsc	3969,4,c	;volatile
  9584  001AC2  D003               	goto	i2l3482
  9585                           
  9586                           ;SysRiego.c: 1078: rowSelected = 1;
  9587  001AC4  0E01               	movlw	1
  9588  001AC6  6E42               	movwf	_rowSelected,c
  9589                           
  9590                           ;SysRiego.c: 1079: return;
  9591  001AC8  0012               	return	
  9592  001ACA                     i2l3482:
  9593                           
  9594                           ;SysRiego.c: 1080: }
  9595                           ;SysRiego.c: 1081: if( (columnSelected == 2) && (PORTBbits.RB5 == 0)){
  9596  001ACA  0E02               	movlw	2
  9597  001ACC  183C               	xorwf	_columnSelected,w,c
  9598  001ACE  B4D8               	btfsc	status,2,c
  9599  001AD0  BA81               	btfsc	3969,5,c	;volatile
  9600  001AD2  D003               	goto	i2l3490
  9601                           
  9602                           ;SysRiego.c: 1082: rowSelected = 1;
  9603  001AD4  0E01               	movlw	1
  9604  001AD6  6E42               	movwf	_rowSelected,c
  9605                           
  9606                           ;SysRiego.c: 1083: return;
  9607  001AD8  0012               	return	
  9608  001ADA                     i2l3490:
  9609                           
  9610                           ;SysRiego.c: 1084: }
  9611                           ;SysRiego.c: 1085: if( (columnSelected == 3) && (PORTBbits.RB6 == 0)){
  9612  001ADA  0E03               	movlw	3
  9613  001ADC  183C               	xorwf	_columnSelected,w,c
  9614  001ADE  B4D8               	btfsc	status,2,c
  9615  001AE0  BC81               	btfsc	3969,6,c	;volatile
  9616  001AE2  D003               	goto	i2l3498
  9617                           
  9618                           ;SysRiego.c: 1086: rowSelected = 1;
  9619  001AE4  0E01               	movlw	1
  9620  001AE6  6E42               	movwf	_rowSelected,c
  9621                           
  9622                           ;SysRiego.c: 1087: return;
  9623  001AE8  0012               	return	
  9624  001AEA                     i2l3498:
  9625                           
  9626                           ;SysRiego.c: 1088: }
  9627                           ;SysRiego.c: 1089: if( (columnSelected == 4) && (PORTBbits.RB7 == 0)){
  9628  001AEA  0E04               	movlw	4
  9629  001AEC  183C               	xorwf	_columnSelected,w,c
  9630  001AEE  B4D8               	btfsc	status,2,c
  9631  001AF0  BE81               	btfsc	3969,7,c	;volatile
  9632  001AF2  D06D               	goto	i2l3606
  9633                           
  9634                           ;SysRiego.c: 1090: rowSelected = 1;
  9635  001AF4  0E01               	movlw	1
  9636  001AF6                     L12:
  9637  001AF6  6E42               	movwf	_rowSelected,c
  9638                           
  9639                           ;SysRiego.c: 1091: return;
  9640  001AF8  0012               	return	
  9641  001AFA                     i2l513:
  9642                           
  9643                           ;SysRiego.c: 1095: PORTBbits.RB1 = 0;
  9644  001AFA  9281               	bcf	3969,1,c	;volatile
  9645                           
  9646                           ;SysRiego.c: 1096: if( (columnSelected == 1) && (PORTBbits.RB4 == 0)){
  9647  001AFC  043C               	decf	_columnSelected,w,c
  9648  001AFE  B4D8               	btfsc	status,2,c
  9649  001B00  B881               	btfsc	3969,4,c	;volatile
  9650  001B02  D003               	goto	i2l3514
  9651                           
  9652                           ;SysRiego.c: 1097: rowSelected = 2;
  9653  001B04  0E02               	movlw	2
  9654  001B06  6E42               	movwf	_rowSelected,c
  9655                           
  9656                           ;SysRiego.c: 1098: return;
  9657  001B08  0012               	return	
  9658  001B0A                     i2l3514:
  9659                           
  9660                           ;SysRiego.c: 1099: }
  9661                           ;SysRiego.c: 1100: if( (columnSelected == 2) && (PORTBbits.RB5 == 0)){
  9662  001B0A  0E02               	movlw	2
  9663  001B0C  183C               	xorwf	_columnSelected,w,c
  9664  001B0E  B4D8               	btfsc	status,2,c
  9665  001B10  BA81               	btfsc	3969,5,c	;volatile
  9666  001B12  D003               	goto	i2l3522
  9667                           
  9668                           ;SysRiego.c: 1101: rowSelected = 2;
  9669  001B14  0E02               	movlw	2
  9670  001B16  6E42               	movwf	_rowSelected,c
  9671                           
  9672                           ;SysRiego.c: 1102: return;
  9673  001B18  0012               	return	
  9674  001B1A                     i2l3522:
  9675                           
  9676                           ;SysRiego.c: 1103: }
  9677                           ;SysRiego.c: 1104: if( (columnSelected == 3) && (PORTBbits.RB6 == 0)){
  9678  001B1A  0E03               	movlw	3
  9679  001B1C  183C               	xorwf	_columnSelected,w,c
  9680  001B1E  B4D8               	btfsc	status,2,c
  9681  001B20  BC81               	btfsc	3969,6,c	;volatile
  9682  001B22  D003               	goto	i2l3530
  9683                           
  9684                           ;SysRiego.c: 1105: rowSelected = 2;
  9685  001B24  0E02               	movlw	2
  9686  001B26  6E42               	movwf	_rowSelected,c
  9687                           
  9688                           ;SysRiego.c: 1106: return;
  9689  001B28  0012               	return	
  9690  001B2A                     i2l3530:
  9691                           
  9692                           ;SysRiego.c: 1107: }
  9693                           ;SysRiego.c: 1108: if( (columnSelected == 4) && (PORTBbits.RB7 == 0)){
  9694  001B2A  0E04               	movlw	4
  9695  001B2C  183C               	xorwf	_columnSelected,w,c
  9696  001B2E  B4D8               	btfsc	status,2,c
  9697  001B30  BE81               	btfsc	3969,7,c	;volatile
  9698  001B32  D04D               	goto	i2l3606
  9699                           
  9700                           ;SysRiego.c: 1109: rowSelected = 2;
  9701  001B34  0E02               	movlw	2
  9702  001B36  D7DF               	goto	L12
  9703  001B38                     i2l518:
  9704                           
  9705                           ;SysRiego.c: 1114: PORTBbits.RB2 = 0;
  9706  001B38  9481               	bcf	3969,2,c	;volatile
  9707                           
  9708                           ;SysRiego.c: 1115: if( (columnSelected == 1) && (PORTBbits.RB4 == 0)){
  9709  001B3A  043C               	decf	_columnSelected,w,c
  9710  001B3C  B4D8               	btfsc	status,2,c
  9711  001B3E  B881               	btfsc	3969,4,c	;volatile
  9712  001B40  D003               	goto	i2l3546
  9713                           
  9714                           ;SysRiego.c: 1116: rowSelected = 3;
  9715  001B42  0E03               	movlw	3
  9716  001B44  6E42               	movwf	_rowSelected,c
  9717                           
  9718                           ;SysRiego.c: 1117: return;
  9719  001B46  0012               	return	
  9720  001B48                     i2l3546:
  9721                           
  9722                           ;SysRiego.c: 1118: }
  9723                           ;SysRiego.c: 1119: if( (columnSelected == 2) && (PORTBbits.RB5 == 0)){
  9724  001B48  0E02               	movlw	2
  9725  001B4A  183C               	xorwf	_columnSelected,w,c
  9726  001B4C  B4D8               	btfsc	status,2,c
  9727  001B4E  BA81               	btfsc	3969,5,c	;volatile
  9728  001B50  D003               	goto	i2l3554
  9729                           
  9730                           ;SysRiego.c: 1120: rowSelected = 3;
  9731  001B52  0E03               	movlw	3
  9732  001B54  6E42               	movwf	_rowSelected,c
  9733                           
  9734                           ;SysRiego.c: 1121: return;
  9735  001B56  0012               	return	
  9736  001B58                     i2l3554:
  9737                           
  9738                           ;SysRiego.c: 1122: }
  9739                           ;SysRiego.c: 1123: if( (columnSelected == 3) && (PORTBbits.RB6 == 0)){
  9740  001B58  0E03               	movlw	3
  9741  001B5A  183C               	xorwf	_columnSelected,w,c
  9742  001B5C  B4D8               	btfsc	status,2,c
  9743  001B5E  BC81               	btfsc	3969,6,c	;volatile
  9744  001B60  D003               	goto	i2l3562
  9745                           
  9746                           ;SysRiego.c: 1124: rowSelected = 3;
  9747  001B62  0E03               	movlw	3
  9748  001B64  6E42               	movwf	_rowSelected,c
  9749                           
  9750                           ;SysRiego.c: 1125: return;
  9751  001B66  0012               	return	
  9752  001B68                     i2l3562:
  9753                           
  9754                           ;SysRiego.c: 1126: }
  9755                           ;SysRiego.c: 1127: if( (columnSelected == 4) && (PORTBbits.RB7 == 0)){
  9756  001B68  0E04               	movlw	4
  9757  001B6A  183C               	xorwf	_columnSelected,w,c
  9758  001B6C  B4D8               	btfsc	status,2,c
  9759  001B6E  BE81               	btfsc	3969,7,c	;volatile
  9760  001B70  D02E               	goto	i2l3606
  9761                           
  9762                           ;SysRiego.c: 1128: rowSelected = 3;
  9763  001B72  0E03               	movlw	3
  9764  001B74  D7C0               	goto	L12
  9765  001B76                     i2l523:
  9766                           
  9767                           ;SysRiego.c: 1134: PORTBbits.RB3 = 0;
  9768  001B76  9681               	bcf	3969,3,c	;volatile
  9769                           
  9770                           ;SysRiego.c: 1135: if( (columnSelected == 1) && (PORTBbits.RB4 == 0)){
  9771  001B78  043C               	decf	_columnSelected,w,c
  9772  001B7A  B4D8               	btfsc	status,2,c
  9773  001B7C  B881               	btfsc	3969,4,c	;volatile
  9774  001B7E  D003               	goto	i2l3578
  9775                           
  9776                           ;SysRiego.c: 1136: rowSelected = 4;
  9777  001B80  0E04               	movlw	4
  9778  001B82  6E42               	movwf	_rowSelected,c
  9779                           
  9780                           ;SysRiego.c: 1137: return;
  9781  001B84  0012               	return	
  9782  001B86                     i2l3578:
  9783                           
  9784                           ;SysRiego.c: 1138: }
  9785                           ;SysRiego.c: 1139: if( (columnSelected == 2) && (PORTBbits.RB5 == 0)){
  9786  001B86  0E02               	movlw	2
  9787  001B88  183C               	xorwf	_columnSelected,w,c
  9788  001B8A  B4D8               	btfsc	status,2,c
  9789  001B8C  BA81               	btfsc	3969,5,c	;volatile
  9790  001B8E  D003               	goto	i2l3586
  9791                           
  9792                           ;SysRiego.c: 1140: rowSelected = 4;
  9793  001B90  0E04               	movlw	4
  9794  001B92  6E42               	movwf	_rowSelected,c
  9795                           
  9796                           ;SysRiego.c: 1141: return;
  9797  001B94  0012               	return	
  9798  001B96                     i2l3586:
  9799                           
  9800                           ;SysRiego.c: 1142: }
  9801                           ;SysRiego.c: 1143: if( (columnSelected == 3) && (PORTBbits.RB6 == 0)){
  9802  001B96  0E03               	movlw	3
  9803  001B98  183C               	xorwf	_columnSelected,w,c
  9804  001B9A  B4D8               	btfsc	status,2,c
  9805  001B9C  BC81               	btfsc	3969,6,c	;volatile
  9806  001B9E  D003               	goto	i2l3594
  9807                           
  9808                           ;SysRiego.c: 1144: rowSelected = 4;
  9809  001BA0  0E04               	movlw	4
  9810  001BA2  6E42               	movwf	_rowSelected,c
  9811                           
  9812                           ;SysRiego.c: 1145: return;
  9813  001BA4  0012               	return	
  9814  001BA6                     i2l3594:
  9815                           
  9816                           ;SysRiego.c: 1146: }
  9817                           ;SysRiego.c: 1147: if( (columnSelected == 4) && (PORTBbits.RB7 == 0)){
  9818  001BA6  0E04               	movlw	4
  9819  001BA8  183C               	xorwf	_columnSelected,w,c
  9820  001BAA  B4D8               	btfsc	status,2,c
  9821  001BAC  BE81               	btfsc	3969,7,c	;volatile
  9822  001BAE  D00F               	goto	i2l3606
  9823                           
  9824                           ;SysRiego.c: 1148: rowSelected = 4;
  9825  001BB0  0E04               	movlw	4
  9826  001BB2  D7A1               	goto	L12
  9827  001BB4                     i2l3604:
  9828  001BB4  5001               	movf	i2determinePressedRow@i,w,c
  9829                           
  9830                           ; Switch size 1, requested type "space"
  9831                           ; Number of cases is 4, Range of values is 0 to 3
  9832                           ; switch strategies available:
  9833                           ; Name         Instructions Cycles
  9834                           ; simple_byte           13     7 (average)
  9835                           ;	Chosen strategy is simple_byte
  9836  001BB6  0A00               	xorlw	0	; case 0
  9837  001BB8  B4D8               	btfsc	status,2,c
  9838  001BBA  D77F               	goto	i2l506
  9839  001BBC  0A01               	xorlw	1	; case 1
  9840  001BBE  B4D8               	btfsc	status,2,c
  9841  001BC0  D79C               	goto	i2l513
  9842  001BC2  0A03               	xorlw	3	; case 2
  9843  001BC4  B4D8               	btfsc	status,2,c
  9844  001BC6  D7B8               	goto	i2l518
  9845  001BC8  0A01               	xorlw	1	; case 3
  9846  001BCA  B4D8               	btfsc	status,2,c
  9847  001BCC  D7D4               	goto	i2l523
  9848  001BCE                     i2l3606:
  9849  001BCE  2A01               	incf	i2determinePressedRow@i,f,c
  9850  001BD0  D76D               	goto	i2l3468
  9851  001BD2                     __end_ofi2_determinePressedRow:
  9852                           	opt stack 0
  9853                           pclatu	equ	0xFFB
  9854                           pclath	equ	0xFFA
  9855                           tblptru	equ	0xFF8
  9856                           tblptrh	equ	0xFF7
  9857                           tblptrl	equ	0xFF6
  9858                           tablat	equ	0xFF5
  9859                           prodh	equ	0xFF4
  9860                           prodl	equ	0xFF3
  9861                           intcon	equ	0xFF2
  9862                           intcon2	equ	0xFF1
  9863                           indf0	equ	0xFEF
  9864                           postinc0	equ	0xFEE
  9865                           fsr0h	equ	0xFEA
  9866                           fsr0l	equ	0xFE9
  9867                           wreg	equ	0xFE8
  9868                           indf1	equ	0xFE7
  9869                           postdec1	equ	0xFE5
  9870                           plusw1	equ	0xFE3
  9871                           fsr1h	equ	0xFE2
  9872                           fsr1l	equ	0xFE1
  9873                           bsr	equ	0xFE0
  9874                           indf2	equ	0xFDF
  9875                           postinc2	equ	0xFDE
  9876                           postdec2	equ	0xFDD
  9877                           plusw2	equ	0xFDB
  9878                           fsr2h	equ	0xFDA
  9879                           fsr2l	equ	0xFD9
  9880                           status	equ	0xFD8
  9881                           
  9882 ;; *************** function i2_turnOnAllRows *****************
  9883 ;; Defined at:
  9884 ;;		line 1362 in file "SysRiego.c"
  9885 ;; Parameters:    Size  Location     Type
  9886 ;;		None
  9887 ;; Auto vars:     Size  Location     Type
  9888 ;;		None
  9889 ;; Return value:  Size  Location     Type
  9890 ;;                  1    wreg      void 
  9891 ;; Registers used:
  9892 ;;		None
  9893 ;; Tracked objects:
  9894 ;;		On entry : 0/0
  9895 ;;		On exit  : 0/0
  9896 ;;		Unchanged: 0/0
  9897 ;; Data sizes:     COMRAM   BANK0   BANK1   BANK2   BANK3   BANK4   BANK5   BANK6   BANK7   BANK8   BANK9  BANK10  BANK1
      +1  BANK12
  9898 ;;      Params:         0       0       0       0       0       0       0       0       0       0       0       0       
      +0       0
  9899 ;;      Locals:         0       0       0       0       0       0       0       0       0       0       0       0       
      +0       0
  9900 ;;      Temps:          0       0       0       0       0       0       0       0       0       0       0       0       
      +0       0
  9901 ;;      Totals:         0       0       0       0       0       0       0       0       0       0       0       0       
      +0       0
  9902 ;;Total ram usage:        0 bytes
  9903 ;; Hardware stack levels used:    1
  9904 ;; This function calls:
  9905 ;;		Nothing
  9906 ;; This function is called by:
  9907 ;;		i2_determinePressedRow
  9908 ;; This function uses a non-reentrant model
  9909 ;;
  9910                           
  9911                           	psect	text55
  9912  002B0A                     __ptext55:
  9913                           	opt stack 0
  9914  002B0A                     i2_turnOnAllRows:
  9915                           	opt stack 19
  9916                           
  9917                           ;SysRiego.c: 1363: PORTBbits.RB0 = 1;
  9918                           
  9919                           ;incstack = 0
  9920  002B0A  8081               	bsf	3969,0,c	;volatile
  9921                           
  9922                           ;SysRiego.c: 1364: PORTBbits.RB1 = 1;
  9923  002B0C  8281               	bsf	3969,1,c	;volatile
  9924                           
  9925                           ;SysRiego.c: 1365: PORTBbits.RB2 = 1;
  9926  002B0E  8481               	bsf	3969,2,c	;volatile
  9927                           
  9928                           ;SysRiego.c: 1366: PORTBbits.RB3 = 1;
  9929  002B10  8681               	bsf	3969,3,c	;volatile
  9930  002B12  0012               	return		;funcret
  9931  002B14                     __end_ofi2_turnOnAllRows:
  9932                           	opt stack 0
  9933                           pclatu	equ	0xFFB
  9934                           pclath	equ	0xFFA
  9935                           tblptru	equ	0xFF8
  9936                           tblptrh	equ	0xFF7
  9937                           tblptrl	equ	0xFF6
  9938                           tablat	equ	0xFF5
  9939                           prodh	equ	0xFF4
  9940                           prodl	equ	0xFF3
  9941                           intcon	equ	0xFF2
  9942                           intcon2	equ	0xFF1
  9943                           indf0	equ	0xFEF
  9944                           postinc0	equ	0xFEE
  9945                           fsr0h	equ	0xFEA
  9946                           fsr0l	equ	0xFE9
  9947                           wreg	equ	0xFE8
  9948                           indf1	equ	0xFE7
  9949                           postdec1	equ	0xFE5
  9950                           plusw1	equ	0xFE3
  9951                           fsr1h	equ	0xFE2
  9952                           fsr1l	equ	0xFE1
  9953                           bsr	equ	0xFE0
  9954                           indf2	equ	0xFDF
  9955                           postinc2	equ	0xFDE
  9956                           postdec2	equ	0xFDD
  9957                           plusw2	equ	0xFDB
  9958                           fsr2h	equ	0xFDA
  9959                           fsr2l	equ	0xFD9
  9960                           status	equ	0xFD8
  9961                           
  9962 ;; *************** function _pressedKeyAction *****************
  9963 ;; Defined at:
  9964 ;;		line 1193 in file "SysRiego.c"
  9965 ;; Parameters:    Size  Location     Type
  9966 ;;  keyCode         1    wreg     unsigned char 
  9967 ;; Auto vars:     Size  Location     Type
  9968 ;;  keyCode         1    1[COMRAM] unsigned char 
  9969 ;; Return value:  Size  Location     Type
  9970 ;;                  1    wreg      void 
  9971 ;; Registers used:
  9972 ;;		wreg, status,2, status,0, cstack
  9973 ;; Tracked objects:
  9974 ;;		On entry : 0/0
  9975 ;;		On exit  : 0/0
  9976 ;;		Unchanged: 0/0
  9977 ;; Data sizes:     COMRAM   BANK0   BANK1   BANK2   BANK3   BANK4   BANK5   BANK6   BANK7   BANK8   BANK9  BANK10  BANK1
      +1  BANK12
  9978 ;;      Params:         0       0       0       0       0       0       0       0       0       0       0       0       
      +0       0
  9979 ;;      Locals:         1       0       0       0       0       0       0       0       0       0       0       0       
      +0       0
  9980 ;;      Temps:          0       0       0       0       0       0       0       0       0       0       0       0       
      +0       0
  9981 ;;      Totals:         1       0       0       0       0       0       0       0       0       0       0       0       
      +0       0
  9982 ;;Total ram usage:        1 bytes
  9983 ;; Hardware stack levels used:    1
  9984 ;; Hardware stack levels required when called:    2
  9985 ;; This function calls:
  9986 ;;		_irrigateManual
  9987 ;;		i2_stopIrrigateManual
  9988 ;; This function is called by:
  9989 ;;		_pressedKey
  9990 ;; This function uses a non-reentrant model
  9991 ;;
  9992                           
  9993                           	psect	text56
  9994  001554                     __ptext56:
  9995                           	opt stack 0
  9996  001554                     _pressedKeyAction:
  9997                           	opt stack 18
  9998                           
  9999                           ;incstack = 0
 10000                           ;pressedKeyAction@keyCode stored from wreg
 10001  001554  6E02               	movwf	pressedKeyAction@keyCode,c
 10002                           
 10003                           ;SysRiego.c: 1195: switch(keyCode){
 10004  001556  D084               	goto	i2l3392
 10005  001558                     i2l3332:
 10006                           
 10007                           ;SysRiego.c: 1204: if (modeSelected == 0) {
 10008  001558  5040               	movf	_modeSelected,w,c
 10009  00155A  A4D8               	btfss	status,2,c
 10010  00155C  D008               	goto	i2l568
 10011                           
 10012                           ;SysRiego.c: 1205: zoneSelected = humidityZn1Val;
 10013  00155E  0E29               	movlw	low _humidityZn1Val
 10014  001560  6E3A               	movwf	_zoneSelected,c
 10015  001562  0E00               	movlw	high _humidityZn1Val
 10016  001564  6E3B               	movwf	_zoneSelected+1,c
 10017                           
 10018                           ;SysRiego.c: 1206: humidityZnValInt = &humidityZn1ValInt;
 10019  001566  0EE9               	movlw	low _humidityZn1ValInt
 10020  001568  6E38               	movwf	_humidityZnValInt,c
 10021  00156A  0E00               	movlw	high _humidityZn1ValInt
 10022  00156C  6E39               	movwf	_humidityZnValInt+1,c
 10023  00156E                     i2l568:
 10024                           
 10025                           ;SysRiego.c: 1207: }
 10026                           ;SysRiego.c: 1209: if (modeSelected == 1) {
 10027  00156E  0440               	decf	_modeSelected,w,c
 10028  001570  A4D8               	btfss	status,2,c
 10029  001572  D009               	goto	i2l3340
 10030                           
 10031                           ;SysRiego.c: 1210: offSetZoneTimes = 0;
 10032  001574  0E00               	movlw	0
 10033  001576  0100               	movlb	0	; () banked
 10034  001578  6FFF               	movwf	_offSetZoneTimes& (0+255),b
 10035                           
 10036                           ; BSR set to: 0
 10037                           ;SysRiego.c: 1211: irrigateTime = irrigateTimeZn1;
 10038  00157A  0E2C               	movlw	low _irrigateTimeZn1
 10039  00157C  0100               	movlb	0	; () banked
 10040  00157E  6FFC               	movwf	_irrigateTime& (0+255),b
 10041  001580  0E00               	movlw	high _irrigateTimeZn1
 10042  001582  0100               	movlb	0	; () banked
 10043  001584  6FFD               	movwf	(_irrigateTime+1)& (0+255),b
 10044  001586                     i2l3340:
 10045                           
 10046                           ;SysRiego.c: 1212: }
 10047                           ;SysRiego.c: 1214: if (modeSelected == 2) {
 10048  001586  0E02               	movlw	2
 10049  001588  1840               	xorwf	_modeSelected,w,c
 10050  00158A  A4D8               	btfss	status,2,c
 10051  00158C  D004               	goto	i2l3344
 10052                           
 10053                           ;SysRiego.c: 1215: zoneSelected = &manualZn1Val;
 10054  00158E  0E35               	movlw	low _manualZn1Val
 10055  001590  6E3A               	movwf	_zoneSelected,c
 10056  001592  0E00               	movlw	high _manualZn1Val
 10057  001594  6E3B               	movwf	_zoneSelected+1,c
 10058  001596                     i2l3344:
 10059                           
 10060                           ;SysRiego.c: 1216: }
 10061                           ;SysRiego.c: 1218: statusConfiguration = 1;
 10062  001596  0E01               	movlw	1
 10063  001598  6E43               	movwf	_statusConfiguration,c
 10064                           
 10065                           ;SysRiego.c: 1220: break;
 10066  00159A  0012               	return	
 10067  00159C                     i2l3346:
 10068                           
 10069                           ;SysRiego.c: 1225: if (modeSelected == 0) {
 10070  00159C  5040               	movf	_modeSelected,w,c
 10071  00159E  A4D8               	btfss	status,2,c
 10072  0015A0  D008               	goto	i2l572
 10073                           
 10074                           ;SysRiego.c: 1226: zoneSelected = humidityZn2Val;
 10075  0015A2  0EE3               	movlw	low _humidityZn2Val
 10076  0015A4  6E3A               	movwf	_zoneSelected,c
 10077  0015A6  0E00               	movlw	high _humidityZn2Val
 10078  0015A8  6E3B               	movwf	_zoneSelected+1,c
 10079                           
 10080                           ;SysRiego.c: 1227: humidityZnValInt = &humidityZn2ValInt;
 10081  0015AA  0EEA               	movlw	low _humidityZn2ValInt
 10082  0015AC  6E38               	movwf	_humidityZnValInt,c
 10083  0015AE  0E00               	movlw	high _humidityZn2ValInt
 10084  0015B0  6E39               	movwf	_humidityZnValInt+1,c
 10085  0015B2                     i2l572:
 10086                           
 10087                           ;SysRiego.c: 1228: }
 10088                           ;SysRiego.c: 1230: if (modeSelected == 1) {
 10089  0015B2  0440               	decf	_modeSelected,w,c
 10090  0015B4  A4D8               	btfss	status,2,c
 10091  0015B6  D009               	goto	i2l3354
 10092                           
 10093                           ;SysRiego.c: 1231: offSetZoneTimes = 3;
 10094  0015B8  0E03               	movlw	3
 10095  0015BA  0100               	movlb	0	; () banked
 10096  0015BC  6FFF               	movwf	_offSetZoneTimes& (0+255),b
 10097                           
 10098                           ; BSR set to: 0
 10099                           ;SysRiego.c: 1232: irrigateTime = irrigateTimeZn2;
 10100  0015BE  0E2F               	movlw	low _irrigateTimeZn2
 10101  0015C0  0100               	movlb	0	; () banked
 10102  0015C2  6FFC               	movwf	_irrigateTime& (0+255),b
 10103  0015C4  0E00               	movlw	high _irrigateTimeZn2
 10104  0015C6  0100               	movlb	0	; () banked
 10105  0015C8  6FFD               	movwf	(_irrigateTime+1)& (0+255),b
 10106  0015CA                     i2l3354:
 10107                           
 10108                           ;SysRiego.c: 1233: }
 10109                           ;SysRiego.c: 1235: if (modeSelected == 2) {
 10110  0015CA  0E02               	movlw	2
 10111  0015CC  1840               	xorwf	_modeSelected,w,c
 10112  0015CE  A4D8               	btfss	status,2,c
 10113  0015D0  D004               	goto	i2l3358
 10114                           
 10115                           ;SysRiego.c: 1236: zoneSelected = &manualZn2Val;
 10116  0015D2  0E36               	movlw	low _manualZn2Val
 10117  0015D4  6E3A               	movwf	_zoneSelected,c
 10118  0015D6  0E00               	movlw	high _manualZn2Val
 10119  0015D8  6E3B               	movwf	_zoneSelected+1,c
 10120  0015DA                     i2l3358:
 10121                           
 10122                           ;SysRiego.c: 1237: }
 10123                           ;SysRiego.c: 1239: statusConfiguration = 1;
 10124  0015DA  0E01               	movlw	1
 10125  0015DC  6E43               	movwf	_statusConfiguration,c
 10126                           
 10127                           ;SysRiego.c: 1241: break;
 10128  0015DE  0012               	return	
 10129  0015E0                     i2l3360:
 10130                           
 10131                           ;SysRiego.c: 1246: if (modeSelected == 0) {
 10132  0015E0  5040               	movf	_modeSelected,w,c
 10133  0015E2  A4D8               	btfss	status,2,c
 10134  0015E4  D008               	goto	i2l576
 10135                           
 10136                           ;SysRiego.c: 1247: zoneSelected = humidityZn3Val;
 10137  0015E6  0EE6               	movlw	low _humidityZn3Val
 10138  0015E8  6E3A               	movwf	_zoneSelected,c
 10139  0015EA  0E00               	movlw	high _humidityZn3Val
 10140  0015EC  6E3B               	movwf	_zoneSelected+1,c
 10141                           
 10142                           ;SysRiego.c: 1248: humidityZnValInt = &humidityZn3ValInt;
 10143  0015EE  0EEB               	movlw	low _humidityZn3ValInt
 10144  0015F0  6E38               	movwf	_humidityZnValInt,c
 10145  0015F2  0E00               	movlw	high _humidityZn3ValInt
 10146  0015F4  6E39               	movwf	_humidityZnValInt+1,c
 10147  0015F6                     i2l576:
 10148                           
 10149                           ;SysRiego.c: 1249: }
 10150                           ;SysRiego.c: 1251: if (modeSelected == 1) {
 10151  0015F6  0440               	decf	_modeSelected,w,c
 10152  0015F8  A4D8               	btfss	status,2,c
 10153  0015FA  D009               	goto	i2l3368
 10154                           
 10155                           ;SysRiego.c: 1252: offSetZoneTimes = 6;
 10156  0015FC  0E06               	movlw	6
 10157  0015FE  0100               	movlb	0	; () banked
 10158  001600  6FFF               	movwf	_offSetZoneTimes& (0+255),b
 10159                           
 10160                           ; BSR set to: 0
 10161                           ;SysRiego.c: 1253: irrigateTime = irrigateTimeZn3;
 10162  001602  0E32               	movlw	low _irrigateTimeZn3
 10163  001604  0100               	movlb	0	; () banked
 10164  001606  6FFC               	movwf	_irrigateTime& (0+255),b
 10165  001608  0E00               	movlw	high _irrigateTimeZn3
 10166  00160A  0100               	movlb	0	; () banked
 10167  00160C  6FFD               	movwf	(_irrigateTime+1)& (0+255),b
 10168  00160E                     i2l3368:
 10169                           
 10170                           ;SysRiego.c: 1254: }
 10171                           ;SysRiego.c: 1256: if (modeSelected == 2) {
 10172  00160E  0E02               	movlw	2
 10173  001610  1840               	xorwf	_modeSelected,w,c
 10174  001612  A4D8               	btfss	status,2,c
 10175  001614  D004               	goto	i2l3372
 10176                           
 10177                           ;SysRiego.c: 1257: zoneSelected = &manualZn3Val;
 10178  001616  0E37               	movlw	low _manualZn3Val
 10179  001618  6E3A               	movwf	_zoneSelected,c
 10180  00161A  0E00               	movlw	high _manualZn3Val
 10181  00161C  6E3B               	movwf	_zoneSelected+1,c
 10182  00161E                     i2l3372:
 10183                           
 10184                           ;SysRiego.c: 1258: }
 10185                           ;SysRiego.c: 1260: statusConfiguration = 1;
 10186  00161E  0E01               	movlw	1
 10187  001620  6E43               	movwf	_statusConfiguration,c
 10188                           
 10189                           ;SysRiego.c: 1293: break;
 10190                           
 10191                           ;SysRiego.c: 1291: case '9':
 10192                           
 10193                           ;SysRiego.c: 1288: break;
 10194                           
 10195                           ;SysRiego.c: 1286: case '8':
 10196                           
 10197                           ;SysRiego.c: 1283: break;
 10198                           
 10199                           ;SysRiego.c: 1281: case '7':
 10200                           
 10201                           ;SysRiego.c: 1278: break;
 10202                           
 10203                           ;SysRiego.c: 1276: case '6':
 10204                           
 10205                           ;SysRiego.c: 1273: break;
 10206                           
 10207                           ;SysRiego.c: 1270: case '5':
 10208                           
 10209                           ;SysRiego.c: 1267: break;
 10210                           
 10211                           ;SysRiego.c: 1265: case '4':
 10212                           
 10213                           ;SysRiego.c: 1262: break;
 10214  001622  0012               	return	
 10215  001624                     i2l3374:
 10216                           
 10217                           ;SysRiego.c: 1298: modeSelected = 0;
 10218  001624  0E00               	movlw	0
 10219  001626  6E40               	movwf	_modeSelected,c
 10220                           
 10221                           ;SysRiego.c: 1300: break;
 10222  001628  0012               	return	
 10223  00162A                     i2l3376:
 10224                           
 10225                           ;SysRiego.c: 1305: modeSelected = 1;
 10226  00162A  0E01               	movlw	1
 10227  00162C  6E40               	movwf	_modeSelected,c
 10228                           
 10229                           ;SysRiego.c: 1307: break;
 10230  00162E  0012               	return	
 10231  001630                     i2l3378:
 10232                           
 10233                           ;SysRiego.c: 1312: modeSelected = 2;
 10234  001630  0E02               	movlw	2
 10235  001632  6E40               	movwf	_modeSelected,c
 10236                           
 10237                           ;SysRiego.c: 1325: break;
 10238                           
 10239                           ;SysRiego.c: 1322: case '*':
 10240                           
 10241                           ;SysRiego.c: 1319: break;
 10242                           
 10243                           ;SysRiego.c: 1317: case 'D':
 10244                           
 10245                           ;SysRiego.c: 1314: break;
 10246  001634  0012               	return	
 10247  001636                     i2l3380:
 10248                           
 10249                           ;SysRiego.c: 1330: if(modeSelected == 1) {
 10250  001636  0440               	decf	_modeSelected,w,c
 10251  001638  A4D8               	btfss	status,2,c
 10252  00163A  D005               	goto	i2l3384
 10253                           
 10254                           ;SysRiego.c: 1331: hourConfiguration = 1;
 10255  00163C  0E01               	movlw	1
 10256  00163E  0100               	movlb	0	; () banked
 10257  001640  6FFE               	movwf	_hourConfiguration& (0+255),b
 10258                           
 10259                           ;SysRiego.c: 1332: statusConfiguration = 1;
 10260  001642  0E01               	movlw	1
 10261  001644  6E43               	movwf	_statusConfiguration,c
 10262  001646                     i2l3384:
 10263                           
 10264                           ;SysRiego.c: 1333: }
 10265                           ;SysRiego.c: 1335: if(modeSelected == 2) {
 10266  001646  0E02               	movlw	2
 10267  001648  1840               	xorwf	_modeSelected,w,c
 10268  00164A  A4D8               	btfss	status,2,c
 10269  00164C  0012               	return	
 10270                           
 10271                           ;SysRiego.c: 1337: if(irrigateManualStatus == 0) {
 10272  00164E  503E               	movf	_irrigateManualStatus,w,c
 10273  001650  A4D8               	btfss	status,2,c
 10274  001652  D003               	goto	i2l3390
 10275                           
 10276                           ;SysRiego.c: 1338: irrigateManual();
 10277  001654  ECBD  F013         	call	_irrigateManual	;wreg free
 10278                           
 10279                           ;SysRiego.c: 1339: }
 10280  001658  0012               	return	
 10281  00165A                     i2l3390:
 10282                           
 10283                           ;SysRiego.c: 1341: else {
 10284                           ;SysRiego.c: 1342: stopIrrigateManual();
 10285  00165A  EC11  F015         	call	i2_stopIrrigateManual	;wreg free
 10286                           
 10287                           ;SysRiego.c: 1359: }
 10288                           
 10289                           ;SysRiego.c: 1350: default: ;
 10290                           
 10291                           ;SysRiego.c: 1343: }
 10292                           ;SysRiego.c: 1345: }
 10293                           ;SysRiego.c: 1347: break;
 10294  00165E  0012               	return	
 10295  001660                     i2l3392:
 10296  001660  5002               	movf	pressedKeyAction@keyCode,w,c
 10297                           
 10298                           ; Switch size 1, requested type "space"
 10299                           ; Number of cases is 16, Range of values is 35 to 68
 10300                           ; switch strategies available:
 10301                           ; Name         Instructions Cycles
 10302                           ; simple_byte           49    25 (average)
 10303                           ;	Chosen strategy is simple_byte
 10304  001662  0A23               	xorlw	35	; case 35
 10305  001664  B4D8               	btfsc	status,2,c
 10306  001666  D7E7               	goto	i2l3380
 10307  001668  0A09               	xorlw	9	; case 42
 10308  00166A  B4D8               	btfsc	status,2,c
 10309  00166C  0012               	return	
 10310  00166E  0A1A               	xorlw	26	; case 48
 10311  001670  B4D8               	btfsc	status,2,c
 10312  001672  0012               	return	
 10313  001674  0A01               	xorlw	1	; case 49
 10314  001676  B4D8               	btfsc	status,2,c
 10315  001678  D76F               	goto	i2l3332
 10316  00167A  0A03               	xorlw	3	; case 50
 10317  00167C  B4D8               	btfsc	status,2,c
 10318  00167E  D78E               	goto	i2l3346
 10319  001680  0A01               	xorlw	1	; case 51
 10320  001682  B4D8               	btfsc	status,2,c
 10321  001684  D7AD               	goto	i2l3360
 10322  001686  0A07               	xorlw	7	; case 52
 10323  001688  B4D8               	btfsc	status,2,c
 10324  00168A  0012               	return	
 10325  00168C  0A01               	xorlw	1	; case 53
 10326  00168E  B4D8               	btfsc	status,2,c
 10327  001690  0012               	return	
 10328  001692  0A03               	xorlw	3	; case 54
 10329  001694  B4D8               	btfsc	status,2,c
 10330  001696  0012               	return	
 10331  001698  0A01               	xorlw	1	; case 55
 10332  00169A  B4D8               	btfsc	status,2,c
 10333  00169C  0012               	return	
 10334  00169E  0A0F               	xorlw	15	; case 56
 10335  0016A0  B4D8               	btfsc	status,2,c
 10336  0016A2  0012               	return	
 10337  0016A4  0A01               	xorlw	1	; case 57
 10338  0016A6  B4D8               	btfsc	status,2,c
 10339  0016A8  0012               	return	
 10340  0016AA  0A78               	xorlw	120	; case 65
 10341  0016AC  B4D8               	btfsc	status,2,c
 10342  0016AE  D7BA               	goto	i2l3374
 10343  0016B0  0A03               	xorlw	3	; case 66
 10344  0016B2  B4D8               	btfsc	status,2,c
 10345  0016B4  D7BA               	goto	i2l3376
 10346  0016B6  0A01               	xorlw	1	; case 67
 10347  0016B8  B4D8               	btfsc	status,2,c
 10348  0016BA  D7BA               	goto	i2l3378
 10349  0016BC  0A07               	xorlw	7	; case 68
 10350  0016BE  0012               	return	
 10351  0016C0                     __end_of_pressedKeyAction:
 10352                           	opt stack 0
 10353                           pclatu	equ	0xFFB
 10354                           pclath	equ	0xFFA
 10355                           tblptru	equ	0xFF8
 10356                           tblptrh	equ	0xFF7
 10357                           tblptrl	equ	0xFF6
 10358                           tablat	equ	0xFF5
 10359                           prodh	equ	0xFF4
 10360                           prodl	equ	0xFF3
 10361                           intcon	equ	0xFF2
 10362                           intcon2	equ	0xFF1
 10363                           indf0	equ	0xFEF
 10364                           postinc0	equ	0xFEE
 10365                           fsr0h	equ	0xFEA
 10366                           fsr0l	equ	0xFE9
 10367                           wreg	equ	0xFE8
 10368                           indf1	equ	0xFE7
 10369                           postdec1	equ	0xFE5
 10370                           plusw1	equ	0xFE3
 10371                           fsr1h	equ	0xFE2
 10372                           fsr1l	equ	0xFE1
 10373                           bsr	equ	0xFE0
 10374                           indf2	equ	0xFDF
 10375                           postinc2	equ	0xFDE
 10376                           postdec2	equ	0xFDD
 10377                           plusw2	equ	0xFDB
 10378                           fsr2h	equ	0xFDA
 10379                           fsr2l	equ	0xFD9
 10380                           status	equ	0xFD8
 10381                           
 10382 ;; *************** function i2_stopIrrigateManual *****************
 10383 ;; Defined at:
 10384 ;;		line 1587 in file "SysRiego.c"
 10385 ;; Parameters:    Size  Location     Type
 10386 ;;		None
 10387 ;; Auto vars:     Size  Location     Type
 10388 ;;		None
 10389 ;; Return value:  Size  Location     Type
 10390 ;;                  1    wreg      void 
 10391 ;; Registers used:
 10392 ;;		wreg, status,2, status,0, cstack
 10393 ;; Tracked objects:
 10394 ;;		On entry : 0/0
 10395 ;;		On exit  : 0/0
 10396 ;;		Unchanged: 0/0
 10397 ;; Data sizes:     COMRAM   BANK0   BANK1   BANK2   BANK3   BANK4   BANK5   BANK6   BANK7   BANK8   BANK9  BANK10  BANK1
      +1  BANK12
 10398 ;;      Params:         0       0       0       0       0       0       0       0       0       0       0       0       
      +0       0
 10399 ;;      Locals:         0       0       0       0       0       0       0       0       0       0       0       0       
      +0       0
 10400 ;;      Temps:          0       0       0       0       0       0       0       0       0       0       0       0       
      +0       0
 10401 ;;      Totals:         0       0       0       0       0       0       0       0       0       0       0       0       
      +0       0
 10402 ;;Total ram usage:        0 bytes
 10403 ;; Hardware stack levels used:    1
 10404 ;; Hardware stack levels required when called:    1
 10405 ;; This function calls:
 10406 ;;		i2_stopIrrigation
 10407 ;; This function is called by:
 10408 ;;		_pressedKeyAction
 10409 ;; This function uses a non-reentrant model
 10410 ;;
 10411                           
 10412                           	psect	text57
 10413  002A22                     __ptext57:
 10414                           	opt stack 0
 10415  002A22                     i2_stopIrrigateManual:
 10416                           	opt stack 18
 10417                           
 10418                           ;SysRiego.c: 1589: stopIrrigation(1);
 10419                           
 10420                           ;incstack = 0
 10421  002A22  0E01               	movlw	1
 10422  002A24  EC7E  F014         	call	i2_stopIrrigation
 10423                           
 10424                           ;SysRiego.c: 1590: stopIrrigation(2);
 10425  002A28  0E02               	movlw	2
 10426  002A2A  EC7E  F014         	call	i2_stopIrrigation
 10427                           
 10428                           ;SysRiego.c: 1591: stopIrrigation(3);
 10429  002A2E  0E03               	movlw	3
 10430  002A30  EC7E  F014         	call	i2_stopIrrigation
 10431                           
 10432                           ;SysRiego.c: 1593: irrigateManualStatus = 0;
 10433  002A34  0E00               	movlw	0
 10434  002A36  6E3E               	movwf	_irrigateManualStatus,c
 10435  002A38  0012               	return		;funcret
 10436  002A3A                     __end_ofi2_stopIrrigateManual:
 10437                           	opt stack 0
 10438                           pclatu	equ	0xFFB
 10439                           pclath	equ	0xFFA
 10440                           tblptru	equ	0xFF8
 10441                           tblptrh	equ	0xFF7
 10442                           tblptrl	equ	0xFF6
 10443                           tablat	equ	0xFF5
 10444                           prodh	equ	0xFF4
 10445                           prodl	equ	0xFF3
 10446                           intcon	equ	0xFF2
 10447                           intcon2	equ	0xFF1
 10448                           indf0	equ	0xFEF
 10449                           postinc0	equ	0xFEE
 10450                           fsr0h	equ	0xFEA
 10451                           fsr0l	equ	0xFE9
 10452                           wreg	equ	0xFE8
 10453                           indf1	equ	0xFE7
 10454                           postdec1	equ	0xFE5
 10455                           plusw1	equ	0xFE3
 10456                           fsr1h	equ	0xFE2
 10457                           fsr1l	equ	0xFE1
 10458                           bsr	equ	0xFE0
 10459                           indf2	equ	0xFDF
 10460                           postinc2	equ	0xFDE
 10461                           postdec2	equ	0xFDD
 10462                           plusw2	equ	0xFDB
 10463                           fsr2h	equ	0xFDA
 10464                           fsr2l	equ	0xFD9
 10465                           status	equ	0xFD8
 10466                           
 10467 ;; *************** function i2_stopIrrigation *****************
 10468 ;; Defined at:
 10469 ;;		line 1549 in file "SysRiego.c"
 10470 ;; Parameters:    Size  Location     Type
 10471 ;;  zone            1    wreg     unsigned char 
 10472 ;; Auto vars:     Size  Location     Type
 10473 ;;  zone            1    0[COMRAM] unsigned char 
 10474 ;; Return value:  Size  Location     Type
 10475 ;;                  1    wreg      void 
 10476 ;; Registers used:
 10477 ;;		wreg, status,2, status,0
 10478 ;; Tracked objects:
 10479 ;;		On entry : 0/0
 10480 ;;		On exit  : 0/0
 10481 ;;		Unchanged: 0/0
 10482 ;; Data sizes:     COMRAM   BANK0   BANK1   BANK2   BANK3   BANK4   BANK5   BANK6   BANK7   BANK8   BANK9  BANK10  BANK1
      +1  BANK12
 10483 ;;      Params:         0       0       0       0       0       0       0       0       0       0       0       0       
      +0       0
 10484 ;;      Locals:         1       0       0       0       0       0       0       0       0       0       0       0       
      +0       0
 10485 ;;      Temps:          0       0       0       0       0       0       0       0       0       0       0       0       
      +0       0
 10486 ;;      Totals:         1       0       0       0       0       0       0       0       0       0       0       0       
      +0       0
 10487 ;;Total ram usage:        1 bytes
 10488 ;; Hardware stack levels used:    1
 10489 ;; This function calls:
 10490 ;;		Nothing
 10491 ;; This function is called by:
 10492 ;;		i2_stopIrrigateManual
 10493 ;; This function uses a non-reentrant model
 10494 ;;
 10495                           
 10496                           	psect	text58
 10497  0028FC                     __ptext58:
 10498                           	opt stack 0
 10499  0028FC                     i2_stopIrrigation:
 10500                           	opt stack 18
 10501                           
 10502                           ;incstack = 0
 10503                           ;i2stopIrrigation@zone stored from wreg
 10504  0028FC  6E01               	movwf	i2stopIrrigation@zone,c
 10505                           
 10506                           ;SysRiego.c: 1551: switch(zone) {
 10507  0028FE  D006               	goto	i2l3212
 10508  002900                     i2l663:
 10509                           
 10510                           ;SysRiego.c: 1554: PORTEbits.RE0 = 0;
 10511  002900  9084               	bcf	3972,0,c	;volatile
 10512                           
 10513                           ;SysRiego.c: 1555: break;
 10514  002902  0012               	return	
 10515  002904                     i2l665:
 10516                           
 10517                           ;SysRiego.c: 1558: PORTEbits.RE1 = 0;
 10518  002904  9284               	bcf	3972,1,c	;volatile
 10519                           
 10520                           ;SysRiego.c: 1559: break;
 10521  002906  0012               	return	
 10522  002908                     i2l666:
 10523                           
 10524                           ;SysRiego.c: 1562: PORTEbits.RE2 = 0;
 10525  002908  9484               	bcf	3972,2,c	;volatile
 10526                           
 10527                           ;SysRiego.c: 1565: }
 10528                           
 10529                           ;SysRiego.c: 1563: break;
 10530  00290A  0012               	return	
 10531  00290C                     i2l3212:
 10532  00290C  5001               	movf	i2stopIrrigation@zone,w,c
 10533                           
 10534                           ; Switch size 1, requested type "space"
 10535                           ; Number of cases is 3, Range of values is 1 to 3
 10536                           ; switch strategies available:
 10537                           ; Name         Instructions Cycles
 10538                           ; simple_byte           10     6 (average)
 10539                           ;	Chosen strategy is simple_byte
 10540  00290E  0A01               	xorlw	1	; case 1
 10541  002910  B4D8               	btfsc	status,2,c
 10542  002912  D7F6               	goto	i2l663
 10543  002914  0A03               	xorlw	3	; case 2
 10544  002916  B4D8               	btfsc	status,2,c
 10545  002918  D7F5               	goto	i2l665
 10546  00291A  0A01               	xorlw	1	; case 3
 10547  00291C  A4D8               	btfss	status,2,c
 10548  00291E  0012               	return	
 10549  002920  D7F3               	goto	i2l666
 10550  002922                     __end_ofi2_stopIrrigation:
 10551                           	opt stack 0
 10552                           pclatu	equ	0xFFB
 10553                           pclath	equ	0xFFA
 10554                           tblptru	equ	0xFF8
 10555                           tblptrh	equ	0xFF7
 10556                           tblptrl	equ	0xFF6
 10557                           tablat	equ	0xFF5
 10558                           prodh	equ	0xFF4
 10559                           prodl	equ	0xFF3
 10560                           intcon	equ	0xFF2
 10561                           intcon2	equ	0xFF1
 10562                           indf0	equ	0xFEF
 10563                           postinc0	equ	0xFEE
 10564                           fsr0h	equ	0xFEA
 10565                           fsr0l	equ	0xFE9
 10566                           wreg	equ	0xFE8
 10567                           indf1	equ	0xFE7
 10568                           postdec1	equ	0xFE5
 10569                           plusw1	equ	0xFE3
 10570                           fsr1h	equ	0xFE2
 10571                           fsr1l	equ	0xFE1
 10572                           bsr	equ	0xFE0
 10573                           indf2	equ	0xFDF
 10574                           postinc2	equ	0xFDE
 10575                           postdec2	equ	0xFDD
 10576                           plusw2	equ	0xFDB
 10577                           fsr2h	equ	0xFDA
 10578                           fsr2l	equ	0xFD9
 10579                           status	equ	0xFD8
 10580                           
 10581 ;; *************** function _irrigateManual *****************
 10582 ;; Defined at:
 10583 ;;		line 1569 in file "SysRiego.c"
 10584 ;; Parameters:    Size  Location     Type
 10585 ;;		None
 10586 ;; Auto vars:     Size  Location     Type
 10587 ;;		None
 10588 ;; Return value:  Size  Location     Type
 10589 ;;                  1    wreg      void 
 10590 ;; Registers used:
 10591 ;;		wreg, status,2, status,0, cstack
 10592 ;; Tracked objects:
 10593 ;;		On entry : 0/0
 10594 ;;		On exit  : 0/0
 10595 ;;		Unchanged: 0/0
 10596 ;; Data sizes:     COMRAM   BANK0   BANK1   BANK2   BANK3   BANK4   BANK5   BANK6   BANK7   BANK8   BANK9  BANK10  BANK1
      +1  BANK12
 10597 ;;      Params:         0       0       0       0       0       0       0       0       0       0       0       0       
      +0       0
 10598 ;;      Locals:         0       0       0       0       0       0       0       0       0       0       0       0       
      +0       0
 10599 ;;      Temps:          0       0       0       0       0       0       0       0       0       0       0       0       
      +0       0
 10600 ;;      Totals:         0       0       0       0       0       0       0       0       0       0       0       0       
      +0       0
 10601 ;;Total ram usage:        0 bytes
 10602 ;; Hardware stack levels used:    1
 10603 ;; Hardware stack levels required when called:    1
 10604 ;; This function calls:
 10605 ;;		i2_startIrrigation
 10606 ;; This function is called by:
 10607 ;;		_pressedKeyAction
 10608 ;; This function uses a non-reentrant model
 10609 ;;
 10610                           
 10611                           	psect	text59
 10612  00277A                     __ptext59:
 10613                           	opt stack 0
 10614  00277A                     _irrigateManual:
 10615                           	opt stack 18
 10616                           
 10617                           ;SysRiego.c: 1571: if(manualZn1Val == '1') {
 10618                           
 10619                           ;incstack = 0
 10620  00277A  0E31               	movlw	49
 10621  00277C  1835               	xorwf	_manualZn1Val,w,c
 10622  00277E  A4D8               	btfss	status,2,c
 10623  002780  D003               	goto	i2l3232
 10624                           
 10625                           ;SysRiego.c: 1572: startIrrigation(1);
 10626  002782  0E01               	movlw	1
 10627  002784  EC91  F014         	call	i2_startIrrigation
 10628  002788                     i2l3232:
 10629                           
 10630                           ;SysRiego.c: 1573: }
 10631                           ;SysRiego.c: 1575: if(manualZn2Val == '1') {
 10632  002788  0E31               	movlw	49
 10633  00278A  1836               	xorwf	_manualZn2Val,w,c
 10634  00278C  A4D8               	btfss	status,2,c
 10635  00278E  D003               	goto	i2l3236
 10636                           
 10637                           ;SysRiego.c: 1576: startIrrigation(2);
 10638  002790  0E02               	movlw	2
 10639  002792  EC91  F014         	call	i2_startIrrigation
 10640  002796                     i2l3236:
 10641                           
 10642                           ;SysRiego.c: 1577: }
 10643                           ;SysRiego.c: 1579: if(manualZn3Val == '1') {
 10644  002796  0E31               	movlw	49
 10645  002798  1837               	xorwf	_manualZn3Val,w,c
 10646  00279A  A4D8               	btfss	status,2,c
 10647  00279C  D003               	goto	i2l3240
 10648                           
 10649                           ;SysRiego.c: 1580: startIrrigation(3);
 10650  00279E  0E03               	movlw	3
 10651  0027A0  EC91  F014         	call	i2_startIrrigation
 10652  0027A4                     i2l3240:
 10653                           
 10654                           ;SysRiego.c: 1581: }
 10655                           ;SysRiego.c: 1583: irrigateManualStatus = 1;
 10656  0027A4  0E01               	movlw	1
 10657  0027A6  6E3E               	movwf	_irrigateManualStatus,c
 10658  0027A8  0012               	return		;funcret
 10659  0027AA                     __end_of_irrigateManual:
 10660                           	opt stack 0
 10661                           pclatu	equ	0xFFB
 10662                           pclath	equ	0xFFA
 10663                           tblptru	equ	0xFF8
 10664                           tblptrh	equ	0xFF7
 10665                           tblptrl	equ	0xFF6
 10666                           tablat	equ	0xFF5
 10667                           prodh	equ	0xFF4
 10668                           prodl	equ	0xFF3
 10669                           intcon	equ	0xFF2
 10670                           intcon2	equ	0xFF1
 10671                           indf0	equ	0xFEF
 10672                           postinc0	equ	0xFEE
 10673                           fsr0h	equ	0xFEA
 10674                           fsr0l	equ	0xFE9
 10675                           wreg	equ	0xFE8
 10676                           indf1	equ	0xFE7
 10677                           postdec1	equ	0xFE5
 10678                           plusw1	equ	0xFE3
 10679                           fsr1h	equ	0xFE2
 10680                           fsr1l	equ	0xFE1
 10681                           bsr	equ	0xFE0
 10682                           indf2	equ	0xFDF
 10683                           postinc2	equ	0xFDE
 10684                           postdec2	equ	0xFDD
 10685                           plusw2	equ	0xFDB
 10686                           fsr2h	equ	0xFDA
 10687                           fsr2l	equ	0xFD9
 10688                           status	equ	0xFD8
 10689                           
 10690 ;; *************** function i2_startIrrigation *****************
 10691 ;; Defined at:
 10692 ;;		line 1529 in file "SysRiego.c"
 10693 ;; Parameters:    Size  Location     Type
 10694 ;;  zone            1    wreg     unsigned char 
 10695 ;; Auto vars:     Size  Location     Type
 10696 ;;  zone            1    0[COMRAM] unsigned char 
 10697 ;; Return value:  Size  Location     Type
 10698 ;;                  1    wreg      void 
 10699 ;; Registers used:
 10700 ;;		wreg, status,2, status,0
 10701 ;; Tracked objects:
 10702 ;;		On entry : 0/0
 10703 ;;		On exit  : 0/0
 10704 ;;		Unchanged: 0/0
 10705 ;; Data sizes:     COMRAM   BANK0   BANK1   BANK2   BANK3   BANK4   BANK5   BANK6   BANK7   BANK8   BANK9  BANK10  BANK1
      +1  BANK12
 10706 ;;      Params:         0       0       0       0       0       0       0       0       0       0       0       0       
      +0       0
 10707 ;;      Locals:         1       0       0       0       0       0       0       0       0       0       0       0       
      +0       0
 10708 ;;      Temps:          0       0       0       0       0       0       0       0       0       0       0       0       
      +0       0
 10709 ;;      Totals:         1       0       0       0       0       0       0       0       0       0       0       0       
      +0       0
 10710 ;;Total ram usage:        1 bytes
 10711 ;; Hardware stack levels used:    1
 10712 ;; This function calls:
 10713 ;;		Nothing
 10714 ;; This function is called by:
 10715 ;;		_irrigateManual
 10716 ;; This function uses a non-reentrant model
 10717 ;;
 10718                           
 10719                           	psect	text60
 10720  002922                     __ptext60:
 10721                           	opt stack 0
 10722  002922                     i2_startIrrigation:
 10723                           	opt stack 18
 10724                           
 10725                           ;incstack = 0
 10726                           ;i2startIrrigation@zone stored from wreg
 10727  002922  6E01               	movwf	i2startIrrigation@zone,c
 10728                           
 10729                           ;SysRiego.c: 1531: switch(zone) {
 10730  002924  D006               	goto	i2l3206
 10731  002926                     i2l655:
 10732                           
 10733                           ;SysRiego.c: 1534: PORTEbits.RE0 = 1;
 10734  002926  8084               	bsf	3972,0,c	;volatile
 10735                           
 10736                           ;SysRiego.c: 1535: break;
 10737  002928  0012               	return	
 10738  00292A                     i2l657:
 10739                           
 10740                           ;SysRiego.c: 1538: PORTEbits.RE1 = 1;
 10741  00292A  8284               	bsf	3972,1,c	;volatile
 10742                           
 10743                           ;SysRiego.c: 1539: break;
 10744  00292C  0012               	return	
 10745  00292E                     i2l658:
 10746                           
 10747                           ;SysRiego.c: 1542: PORTEbits.RE2 = 1;
 10748  00292E  8484               	bsf	3972,2,c	;volatile
 10749                           
 10750                           ;SysRiego.c: 1545: }
 10751                           
 10752                           ;SysRiego.c: 1543: break;
 10753  002930  0012               	return	
 10754  002932                     i2l3206:
 10755  002932  5001               	movf	i2startIrrigation@zone,w,c
 10756                           
 10757                           ; Switch size 1, requested type "space"
 10758                           ; Number of cases is 3, Range of values is 1 to 3
 10759                           ; switch strategies available:
 10760                           ; Name         Instructions Cycles
 10761                           ; simple_byte           10     6 (average)
 10762                           ;	Chosen strategy is simple_byte
 10763  002934  0A01               	xorlw	1	; case 1
 10764  002936  B4D8               	btfsc	status,2,c
 10765  002938  D7F6               	goto	i2l655
 10766  00293A  0A03               	xorlw	3	; case 2
 10767  00293C  B4D8               	btfsc	status,2,c
 10768  00293E  D7F5               	goto	i2l657
 10769  002940  0A01               	xorlw	1	; case 3
 10770  002942  A4D8               	btfss	status,2,c
 10771  002944  0012               	return	
 10772  002946  D7F3               	goto	i2l658
 10773  002948                     __end_ofi2_startIrrigation:
 10774                           	opt stack 0
 10775                           pclatu	equ	0xFFB
 10776                           pclath	equ	0xFFA
 10777                           tblptru	equ	0xFF8
 10778                           tblptrh	equ	0xFF7
 10779                           tblptrl	equ	0xFF6
 10780                           tablat	equ	0xFF5
 10781                           prodh	equ	0xFF4
 10782                           prodl	equ	0xFF3
 10783                           intcon	equ	0xFF2
 10784                           intcon2	equ	0xFF1
 10785                           indf0	equ	0xFEF
 10786                           postinc0	equ	0xFEE
 10787                           fsr0h	equ	0xFEA
 10788                           fsr0l	equ	0xFE9
 10789                           wreg	equ	0xFE8
 10790                           indf1	equ	0xFE7
 10791                           postdec1	equ	0xFE5
 10792                           plusw1	equ	0xFE3
 10793                           fsr1h	equ	0xFE2
 10794                           fsr1l	equ	0xFE1
 10795                           bsr	equ	0xFE0
 10796                           indf2	equ	0xFDF
 10797                           postinc2	equ	0xFDE
 10798                           postdec2	equ	0xFDD
 10799                           plusw2	equ	0xFDB
 10800                           fsr2h	equ	0xFDA
 10801                           fsr2l	equ	0xFD9
 10802                           status	equ	0xFD8
 10803                           pclatu	equ	0xFFB
 10804                           pclath	equ	0xFFA
 10805                           tblptru	equ	0xFF8
 10806                           tblptrh	equ	0xFF7
 10807                           tblptrl	equ	0xFF6
 10808                           tablat	equ	0xFF5
 10809                           prodh	equ	0xFF4
 10810                           prodl	equ	0xFF3
 10811                           intcon	equ	0xFF2
 10812                           intcon2	equ	0xFF1
 10813                           indf0	equ	0xFEF
 10814                           postinc0	equ	0xFEE
 10815                           fsr0h	equ	0xFEA
 10816                           fsr0l	equ	0xFE9
 10817                           wreg	equ	0xFE8
 10818                           indf1	equ	0xFE7
 10819                           postdec1	equ	0xFE5
 10820                           plusw1	equ	0xFE3
 10821                           fsr1h	equ	0xFE2
 10822                           fsr1l	equ	0xFE1
 10823                           bsr	equ	0xFE0
 10824                           indf2	equ	0xFDF
 10825                           postinc2	equ	0xFDE
 10826                           postdec2	equ	0xFDD
 10827                           plusw2	equ	0xFDB
 10828                           fsr2h	equ	0xFDA
 10829                           fsr2l	equ	0xFD9
 10830                           status	equ	0xFD8
 10831                           
 10832                           	psect	rparam
 10833  0000                     pclatu	equ	0xFFB
 10834                           pclath	equ	0xFFA
 10835                           tblptru	equ	0xFF8
 10836                           tblptrh	equ	0xFF7
 10837                           tblptrl	equ	0xFF6
 10838                           tablat	equ	0xFF5
 10839                           prodh	equ	0xFF4
 10840                           prodl	equ	0xFF3
 10841                           intcon	equ	0xFF2
 10842                           intcon2	equ	0xFF1
 10843                           indf0	equ	0xFEF
 10844                           postinc0	equ	0xFEE
 10845                           fsr0h	equ	0xFEA
 10846                           fsr0l	equ	0xFE9
 10847                           wreg	equ	0xFE8
 10848                           indf1	equ	0xFE7
 10849                           postdec1	equ	0xFE5
 10850                           plusw1	equ	0xFE3
 10851                           fsr1h	equ	0xFE2
 10852                           fsr1l	equ	0xFE1
 10853                           bsr	equ	0xFE0
 10854                           indf2	equ	0xFDF
 10855                           postinc2	equ	0xFDE
 10856                           postdec2	equ	0xFDD
 10857                           plusw2	equ	0xFDB
 10858                           fsr2h	equ	0xFDA
 10859                           fsr2l	equ	0xFD9
 10860                           status	equ	0xFD8
 10861                           
 10862                           	psect	temp
 10863  000044                     btemp:
 10864                           	opt stack 0
 10865  000044                     	ds	1
 10866  0000                     int$flags	set	btemp
 10867                           pclatu	equ	0xFFB
 10868                           pclath	equ	0xFFA
 10869                           tblptru	equ	0xFF8
 10870                           tblptrh	equ	0xFF7
 10871                           tblptrl	equ	0xFF6
 10872                           tablat	equ	0xFF5
 10873                           prodh	equ	0xFF4
 10874                           prodl	equ	0xFF3
 10875                           intcon	equ	0xFF2
 10876                           intcon2	equ	0xFF1
 10877                           indf0	equ	0xFEF
 10878                           postinc0	equ	0xFEE
 10879                           fsr0h	equ	0xFEA
 10880                           fsr0l	equ	0xFE9
 10881                           wreg	equ	0xFE8
 10882                           indf1	equ	0xFE7
 10883                           postdec1	equ	0xFE5
 10884                           plusw1	equ	0xFE3
 10885                           fsr1h	equ	0xFE2
 10886                           fsr1l	equ	0xFE1
 10887                           bsr	equ	0xFE0
 10888                           indf2	equ	0xFDF
 10889                           postinc2	equ	0xFDE
 10890                           postdec2	equ	0xFDD
 10891                           plusw2	equ	0xFDB
 10892                           fsr2h	equ	0xFDA
 10893                           fsr2l	equ	0xFD9
 10894                           status	equ	0xFD8


Data Sizes:
    Strings     55
    Constant    0
    Data        222
    BSS         16
    Persistent  0
    Stack       0

Auto Spaces:
    Space          Size  Autos    Used
    COMRAM           94     34      67
    BANK0           160     16     160
    BANK1           256     23      84
    BANK2           256      0       0
    BANK3           256      0       0
    BANK4           256      0       0
    BANK5           256      0       0
    BANK6           256      0       0
    BANK7           256      0       0
    BANK8           256      0       0
    BANK9           256      0       0
    BANK10          256      0       0
    BANK11          256      0       0
    BANK12          256      0       0

Pointer List with Targets:

    clearUnConfigTimes@zone	PTR unsigned char  size(2) Largest target is 5
		 -> time3Zn3(BANK0[5]), time2Zn3(BANK0[5]), time1Zn3(BANK0[5]), time3Zn2(BANK0[5]), 
		 -> time2Zn2(BANK0[5]), time1Zn2(BANK0[5]), time3Zn1(BANK0[5]), time2Zn1(BANK0[5]), 
		 -> time1Zn1(BANK0[5]), 

    clearEndTimes@zoneEndTime	PTR unsigned char  size(2) Largest target is 5
		 -> endTimeZn3(BANK0[5]), endTimeZn2(BANK0[5]), endTimeZn1(BANK0[5]), 

    convertCharsToInt@humidityValue	PTR unsigned char  size(2) Largest target is 3
		 -> NULL(NULL[0]), manualZn3Val(COMRAM[1]), humidityZn3Val(BANK0[3]), manualZn2Val(COMRAM[1]), 
		 -> humidityZn2Val(BANK0[3]), manualZn1Val(COMRAM[1]), humidityZn1Val(COMRAM[3]), 

    updateEndTime@irrigateTimeZn	PTR unsigned char  size(2) Largest target is 3
		 -> irrigateTimeZn3(COMRAM[3]), irrigateTimeZn2(COMRAM[3]), irrigateTimeZn1(COMRAM[3]), 

    updateEndTime@zoneTime	PTR unsigned char  size(2) Largest target is 5
		 -> time3Zn3(BANK0[5]), time2Zn3(BANK0[5]), time1Zn3(BANK0[5]), time3Zn2(BANK0[5]), 
		 -> time2Zn2(BANK0[5]), time1Zn2(BANK0[5]), time3Zn1(BANK0[5]), time2Zn1(BANK0[5]), 
		 -> time1Zn1(BANK0[5]), 

    updateEndTime@endTimeZn	PTR unsigned char  size(2) Largest target is 5
		 -> endTimeZn3(BANK0[5]), endTimeZn2(BANK0[5]), endTimeZn1(BANK0[5]), 

    workingTimer@endTimeZn	PTR unsigned char  size(2) Largest target is 5
		 -> endTimeZn3(BANK0[5]), endTimeZn2(BANK0[5]), endTimeZn1(BANK0[5]), 

    workingTimer@zoneTime	PTR unsigned char  size(2) Largest target is 5
		 -> time3Zn3(BANK0[5]), time2Zn3(BANK0[5]), time1Zn3(BANK0[5]), time3Zn2(BANK0[5]), 
		 -> time2Zn2(BANK0[5]), time1Zn2(BANK0[5]), time3Zn1(BANK0[5]), time2Zn1(BANK0[5]), 
		 -> time1Zn1(BANK0[5]), 

    irrigateTime	PTR unsigned char  size(2) Largest target is 3
		 -> NULL(NULL[0]), irrigateTimeZn3(COMRAM[3]), irrigateTimeZn2(COMRAM[3]), irrigateTimeZn1(COMRAM[3]), 

    timerConfiguration@zoneTime	PTR unsigned char  size(2) Largest target is 5
		 -> time3Zn3(BANK0[5]), time2Zn3(BANK0[5]), time1Zn3(BANK0[5]), time3Zn2(BANK0[5]), 
		 -> time2Zn2(BANK0[5]), time1Zn2(BANK0[5]), time3Zn1(BANK0[5]), time2Zn1(BANK0[5]), 
		 -> time1Zn1(BANK0[5]), 

    humidityZnValInt	PTR unsigned char  size(2) Largest target is 1
		 -> NULL(NULL[0]), humidityZn3ValInt(BANK0[1]), humidityZn2ValInt(BANK0[1]), humidityZn1ValInt(BANK0[1]), 

    zoneSelected	PTR unsigned char  size(2) Largest target is 3
		 -> NULL(NULL[0]), manualZn3Val(COMRAM[1]), humidityZn3Val(BANK0[3]), manualZn2Val(COMRAM[1]), 
		 -> humidityZn2Val(BANK0[3]), manualZn1Val(COMRAM[1]), humidityZn1Val(COMRAM[3]), 

    displayLineOnLCD@array	PTR unsigned char  size(2) Largest target is 16
		 -> NULL(NULL[0]), dayName(COMRAM[4]), manualMessage(BANK1[12]), irrigateTimeZn3(COMRAM[3]), 
		 -> irrigateTimeZn2(COMRAM[3]), irrigateTimeZn1(COMRAM[3]), timerMessage(BANK0[11]), automaticMessage(BANK1[15]), 
		 -> manualInactiveMessage(BANK0[9]), manualActiveMessage(BANK0[7]), STR_5(CODE[6]), counterMIN(BANK0[3]), 
		 -> counterHOUR(BANK0[3]), STR_4(CODE[12]), timerConfiguration@newHour(BANK1[5]), STR_3(CODE[16]), 
		 -> STR_2(CODE[6]), STR_1(CODE[15]), configAutoMessage(BANK1[11]), time3Zn3(BANK0[5]), 
		 -> time2Zn3(BANK0[5]), time1Zn3(BANK0[5]), time3Zn2(BANK0[5]), time2Zn2(BANK0[5]), 
		 -> time1Zn2(BANK0[5]), time3Zn1(BANK0[5]), time2Zn1(BANK0[5]), time1Zn1(BANK0[5]), 

    zoneEndTimes	PTR unsigned char [3] size(2) Largest target is 5
		 -> endTimeZn3(BANK0[5]), endTimeZn2(BANK0[5]), endTimeZn1(BANK0[5]), 

    zoneTimes	PTR unsigned char [9] size(2) Largest target is 5
		 -> time3Zn3(BANK0[5]), time2Zn3(BANK0[5]), time1Zn3(BANK0[5]), time3Zn2(BANK0[5]), 
		 -> time2Zn2(BANK0[5]), time1Zn2(BANK0[5]), time3Zn1(BANK0[5]), time2Zn1(BANK0[5]), 
		 -> time1Zn1(BANK0[5]), 

    humidityZnValuesInt	PTR unsigned char [3] size(2) Largest target is 1
		 -> humidityZn3ValInt(BANK0[1]), humidityZn2ValInt(BANK0[1]), humidityZn1ValInt(BANK0[1]), 


Critical Paths under _main in COMRAM

    None.

Critical Paths under _ISRL in COMRAM

    None.

Critical Paths under _ISRH in COMRAM

    _resetOneShot->i2_delay
    _oneShot->i2_delay
    _pressedKey->_pressedKeyAction
    i2_stopIrrigateManual->i2_stopIrrigation
    _irrigateManual->i2_startIrrigation

Critical Paths under _main in BANK0

    _main->_automaticConfiguration
    _main->_workingAutomatic
    _workingTimer->_displayLineOnLCD
    _workingTimer->_updateEndTime
    _updateEndTime->___awmod
    _workingManual->_displayLineOnLCD
    _stopIrrigateManual->_stopIrrigation
    _workingAutomatic->___ftmul
    _stopAllIrrigation->_stopIrrigation
    ___lwtoft->___ftpack
    ___lbtoft->___ftpack
    ___ftmul->___lbtoft
    ___ftge->___ftmul
    _timerConfiguration->_displayLineOnLCD
    _secondLine->_command
    _manualConfiguration->_displayLineOnLCD
    _automaticConfiguration->_displayLineOnLCD
    _resetReadInput->_delay
    _readInput->_delay
    _readKey->_determinePressedRow
    _displayLineOnLCD->_displayCharOnLCD
    _displayCharOnLCD->_shortDelay
    _clearDisplay->_command
    _LCDSetup->_longDelay
    _isReady->_shortDelay
    _command->_shortDelay

Critical Paths under _ISRL in BANK0

    None.

Critical Paths under _ISRH in BANK0

    None.

Critical Paths under _main in BANK1

    _main->_workingAutomatic
    _workingAutomatic->___ftge
    ___ftge->___ftmul

Critical Paths under _ISRL in BANK1

    None.

Critical Paths under _ISRH in BANK1

    None.

Critical Paths under _main in BANK2

    None.

Critical Paths under _ISRL in BANK2

    None.

Critical Paths under _ISRH in BANK2

    None.

Critical Paths under _main in BANK3

    None.

Critical Paths under _ISRL in BANK3

    None.

Critical Paths under _ISRH in BANK3

    None.

Critical Paths under _main in BANK4

    None.

Critical Paths under _ISRL in BANK4

    None.

Critical Paths under _ISRH in BANK4

    None.

Critical Paths under _main in BANK5

    None.

Critical Paths under _ISRL in BANK5

    None.

Critical Paths under _ISRH in BANK5

    None.

Critical Paths under _main in BANK6

    None.

Critical Paths under _ISRL in BANK6

    None.

Critical Paths under _ISRH in BANK6

    None.

Critical Paths under _main in BANK7

    None.

Critical Paths under _ISRL in BANK7

    None.

Critical Paths under _ISRH in BANK7

    None.

Critical Paths under _main in BANK8

    None.

Critical Paths under _ISRL in BANK8

    None.

Critical Paths under _ISRH in BANK8

    None.

Critical Paths under _main in BANK9

    None.

Critical Paths under _ISRL in BANK9

    None.

Critical Paths under _ISRH in BANK9

    None.

Critical Paths under _main in BANK10

    None.

Critical Paths under _ISRL in BANK10

    None.

Critical Paths under _ISRH in BANK10

    None.

Critical Paths under _main in BANK11

    None.

Critical Paths under _ISRL in BANK11

    None.

Critical Paths under _ISRH in BANK11

    None.

Critical Paths under _main in BANK12

    None.

Critical Paths under _ISRL in BANK12

    None.

Critical Paths under _ISRH in BANK12

    None.

Call Graph Tables:

 ---------------------------------------------------------------------------------
 (Depth) Function   	        Calls       Base Space   Used Autos Params    Refs
 ---------------------------------------------------------------------------------
 (0) _main                                                 0     0      0   42290
                           _LCDSetup
             _automaticConfiguration
                _manualConfiguration
                      _portDAsOutput
                 _timerConfiguration
                   _workingAutomatic
                      _workingManual
                       _workingTimer
 ---------------------------------------------------------------------------------
 (1) _workingTimer                                         8     8      0    8533
                                             13 BANK0      1     1      0
                                              0 BANK1      7     7      0
                       _clearDisplay
                      _clearEndTimes
                            _command
                   _displayLineOnLCD
                    _startIrrigation
                  _stopAllIrrigation
                     _stopIrrigation
                      _updateEndTime
 ---------------------------------------------------------------------------------
 (2) _updateEndTime                                        7     1      6    3104
                                              6 BANK0      7     1      6
                            ___awmod
 ---------------------------------------------------------------------------------
 (2) _clearEndTimes                                        4     4      0     232
                                              0 BANK0      4     4      0
 ---------------------------------------------------------------------------------
 (1) _workingManual                                        0     0      0    4209
                       _clearDisplay
                   _displayLineOnLCD
                 _stopIrrigateManual
 ---------------------------------------------------------------------------------
 (2) _stopIrrigateManual                                   0     0      0      31
                     _stopIrrigation
 ---------------------------------------------------------------------------------
 (1) _workingAutomatic                                     3     3      0   12877
                                             15 BANK0      1     1      0
                                             21 BANK1      2     2      0
                             ___ftge
                            ___ftmul
                           ___lbtoft
                           ___lwtoft
                       _clearDisplay
                _disableACInterrupts
                   _displayLineOnLCD
                 _enableACInterrupts
                            _startAC
                    _startIrrigation
                  _stopAllIrrigation
                     _stopIrrigation
 ---------------------------------------------------------------------------------
 (2) _stopAllIrrigation                                    0     0      0      31
                     _stopIrrigation
 ---------------------------------------------------------------------------------
 (2) _stopIrrigation                                       1     1      0      31
                                              0 BANK0      1     1      0
 ---------------------------------------------------------------------------------
 (2) _startIrrigation                                      1     1      0      31
                                              0 BANK0      1     1      0
 ---------------------------------------------------------------------------------
 (2) _startAC                                              1     1      0      31
                                              0 BANK0      1     1      0
 ---------------------------------------------------------------------------------
 (2) _enableACInterrupts                                   0     0      0       0
 ---------------------------------------------------------------------------------
 (2) _disableACInterrupts                                  0     0      0       0
 ---------------------------------------------------------------------------------
 (2) ___lwtoft                                             3     0      3    2512
                                              8 BANK0      3     0      3
                           ___ftpack
 ---------------------------------------------------------------------------------
 (2) ___lbtoft                                             4     1      3    2435
                                              8 BANK0      4     1      3
                           ___ftpack
 ---------------------------------------------------------------------------------
 (2) ___ftmul                                             15     9      6    3122
                                             12 BANK0      3     3      0
                                              0 BANK1     12     6      6
                           ___ftpack
                           ___lbtoft (ARG)
 ---------------------------------------------------------------------------------
 (3) ___ftpack                                             8     3      5    2404
                                              0 BANK0      8     3      5
 ---------------------------------------------------------------------------------
 (2) ___ftge                                               9     3      6     314
                                             12 BANK1      9     3      6
                            ___ftmul (ARG)
                           ___lbtoft (ARG)
                           ___lwtoft (ARG)
 ---------------------------------------------------------------------------------
 (1) _timerConfiguration                                  15    15      0    7168
                                             13 BANK0      2     2      0
                                              0 BANK1     13    13      0
                            ___awmod
                       _clearDisplay
                 _clearUnConfigTimes
                     _disableIntRBIE
                   _displayCharOnLCD
                   _displayLineOnLCD
                      _enableIntRBIE
                           _getInput
                         _secondLine
 ---------------------------------------------------------------------------------
 (2) _secondLine                                           0     0      0     133
                            _command
                            _isReady
                         _shortDelay
 ---------------------------------------------------------------------------------
 (2) _clearUnConfigTimes                                   6     6      0     198
                                              0 BANK0      6     6      0
 ---------------------------------------------------------------------------------
 (3) ___awmod                                              6     2      4    1357
                                              0 BANK0      6     2      4
 ---------------------------------------------------------------------------------
 (1) _manualConfiguration                                  2     2      0    4512
                                             13 BANK0      2     2      0
                       _clearDisplay
                     _disableIntRBIE
                   _displayLineOnLCD
                      _enableIntRBIE
                           _getInput
 ---------------------------------------------------------------------------------
 (1) _automaticConfiguration                               3     3      0    4821
                                             13 BANK0      3     3      0
                       _clearDisplay
                  _convertCharsToInt
                     _disableIntRBIE
                   _displayCharOnLCD
                   _displayLineOnLCD
                      _enableIntRBIE
                           _getInput
 ---------------------------------------------------------------------------------
 (2) _getInput                                             0     0      0     235
                      _groundAllRows
                          _readInput
                     _resetReadInput
 ---------------------------------------------------------------------------------
 (3) _resetReadInput                                       0     0      0      68
                              _delay
 ---------------------------------------------------------------------------------
 (3) _readInput                                            0     0      0     167
                              _delay
                            _readKey
 ---------------------------------------------------------------------------------
 (4) _readKey                                              0     0      0      99
                _determinePressedRow
                         _getKeyCode
 ---------------------------------------------------------------------------------
 (5) _getKeyCode                                           0     0      0       0
 ---------------------------------------------------------------------------------
 (5) _determinePressedRow                                  1     1      0      99
                                              0 BANK0      1     1      0
                      _turnOnAllRows
 ---------------------------------------------------------------------------------
 (6) _turnOnAllRows                                        0     0      0       0
 ---------------------------------------------------------------------------------
 (4) _delay                                                3     3      0      68
                                              0 BANK0      3     3      0
 ---------------------------------------------------------------------------------
 (3) _groundAllRows                                        0     0      0       0
 ---------------------------------------------------------------------------------
 (2) _enableIntRBIE                                        0     0      0       0
 ---------------------------------------------------------------------------------
 (2) _displayLineOnLCD                                    11     8      3    4045
                                              2 BANK0     11     8      3
                   _displayCharOnLCD
 ---------------------------------------------------------------------------------
 (3) _displayCharOnLCD                                     1     1      0      65
                                              1 BANK0      1     1      0
                         _shortDelay
 ---------------------------------------------------------------------------------
 (2) _disableIntRBIE                                       0     0      0       0
 ---------------------------------------------------------------------------------
 (2) _convertCharsToInt                                    4     2      2     207
                                              0 BANK0      4     2      2
 ---------------------------------------------------------------------------------
 (2) _clearDisplay                                         0     0      0     133
                            _command
                            _isReady
                         _shortDelay
 ---------------------------------------------------------------------------------
 (1) _LCDSetup                                             0     0      0     170
                            _command
                            _isReady
                          _longDelay
 ---------------------------------------------------------------------------------
 (2) _longDelay                                            3     3      0      71
                                              0 BANK0      3     3      0
 ---------------------------------------------------------------------------------
 (3) _isReady                                              0     0      0      34
                       _portDAsInput
                      _portDAsOutput
                         _shortDelay
 ---------------------------------------------------------------------------------
 (4) _portDAsOutput                                        0     0      0       0
 ---------------------------------------------------------------------------------
 (4) _portDAsInput                                         0     0      0       0
 ---------------------------------------------------------------------------------
 (2) _command                                              1     1      0      65
                                              1 BANK0      1     1      0
                         _shortDelay
 ---------------------------------------------------------------------------------
 (4) _shortDelay                                           1     1      0      34
                                              0 BANK0      1     1      0
 ---------------------------------------------------------------------------------
 Estimated maximum stack depth 6
 ---------------------------------------------------------------------------------
 (Depth) Function   	        Calls       Base Space   Used Autos Params    Refs
 ---------------------------------------------------------------------------------
 (7) _ISRL                                                17    17      0       0
                                             17 COMRAM    17    17      0
 ---------------------------------------------------------------------------------
 Estimated maximum stack depth 7
 ---------------------------------------------------------------------------------
 (Depth) Function   	        Calls       Base Space   Used Autos Params    Refs
 ---------------------------------------------------------------------------------
 (8) _ISRH                                                14    14      0     226
                                              3 COMRAM    14    14      0
                            _oneShot
                       _resetOneShot
                    i2_groundAllRows
 ---------------------------------------------------------------------------------
 (9) i2_groundAllRows                                      0     0      0       0
 ---------------------------------------------------------------------------------
 (9) _resetOneShot                                         0     0      0      46
                            i2_delay
 ---------------------------------------------------------------------------------
 (9) _oneShot                                              0     0      0     180
                         _pressedKey
                            i2_delay
 ---------------------------------------------------------------------------------
 (10) i2_delay                                             3     3      0      46
                                              0 COMRAM     3     3      0
 ---------------------------------------------------------------------------------
 (10) _pressedKey                                          0     0      0     134
                   _pressedKeyAction
              i2_determinePressedRow
                       i2_getKeyCode
 ---------------------------------------------------------------------------------
 (11) i2_getKeyCode                                        0     0      0       0
 ---------------------------------------------------------------------------------
 (11) i2_determinePressedRow                               1     1      0      68
                                              0 COMRAM     1     1      0
                    i2_turnOnAllRows
 ---------------------------------------------------------------------------------
 (12) i2_turnOnAllRows                                     0     0      0       0
 ---------------------------------------------------------------------------------
 (11) _pressedKeyAction                                    1     1      0      66
                                              1 COMRAM     1     1      0
                     _irrigateManual
               i2_stopIrrigateManual
 ---------------------------------------------------------------------------------
 (12) i2_stopIrrigateManual                                0     0      0      22
                   i2_stopIrrigation
 ---------------------------------------------------------------------------------
 (13) i2_stopIrrigation                                    1     1      0      22
                                              0 COMRAM     1     1      0
 ---------------------------------------------------------------------------------
 (12) _irrigateManual                                      0     0      0      22
                  i2_startIrrigation
 ---------------------------------------------------------------------------------
 (13) i2_startIrrigation                                   1     1      0      22
                                              0 COMRAM     1     1      0
 ---------------------------------------------------------------------------------
 Estimated maximum stack depth 13
 ---------------------------------------------------------------------------------

 Call Graph Graphs:

 _main (ROOT)
   _LCDSetup
     _command
       _shortDelay
     _isReady
       _portDAsInput
       _portDAsOutput
       _shortDelay
     _longDelay
   _automaticConfiguration
     _clearDisplay
       _command
         _shortDelay
       _isReady
         _portDAsInput
         _portDAsOutput
         _shortDelay
       _shortDelay
     _convertCharsToInt
     _disableIntRBIE
     _displayCharOnLCD
       _shortDelay
     _displayLineOnLCD
       _displayCharOnLCD
         _shortDelay
     _enableIntRBIE
     _getInput
       _groundAllRows
       _readInput
         _delay
         _readKey
           _determinePressedRow
             _turnOnAllRows
           _getKeyCode
       _resetReadInput
         _delay
   _manualConfiguration
     _clearDisplay
       _command
         _shortDelay
       _isReady
         _portDAsInput
         _portDAsOutput
         _shortDelay
       _shortDelay
     _disableIntRBIE
     _displayLineOnLCD
       _displayCharOnLCD
         _shortDelay
     _enableIntRBIE
     _getInput
       _groundAllRows
       _readInput
         _delay
         _readKey
           _determinePressedRow
             _turnOnAllRows
           _getKeyCode
       _resetReadInput
         _delay
   _portDAsOutput
   _timerConfiguration
     ___awmod
     _clearDisplay
       _command
         _shortDelay
       _isReady
         _portDAsInput
         _portDAsOutput
         _shortDelay
       _shortDelay
     _clearUnConfigTimes
     _disableIntRBIE
     _displayCharOnLCD
       _shortDelay
     _displayLineOnLCD
       _displayCharOnLCD
         _shortDelay
     _enableIntRBIE
     _getInput
       _groundAllRows
       _readInput
         _delay
         _readKey
           _determinePressedRow
             _turnOnAllRows
           _getKeyCode
       _resetReadInput
         _delay
     _secondLine
       _command
         _shortDelay
       _isReady
         _portDAsInput
         _portDAsOutput
         _shortDelay
       _shortDelay
   _workingAutomatic
     ___ftge
       ___ftmul (ARG)
         ___ftpack
         ___lbtoft (ARG)
           ___ftpack
       ___lbtoft (ARG)
         ___ftpack
       ___lwtoft (ARG)
         ___ftpack
     ___ftmul
       ___ftpack
       ___lbtoft (ARG)
         ___ftpack
     ___lbtoft
       ___ftpack
     ___lwtoft
       ___ftpack
     _clearDisplay
       _command
         _shortDelay
       _isReady
         _portDAsInput
         _portDAsOutput
         _shortDelay
       _shortDelay
     _disableACInterrupts
     _displayLineOnLCD
       _displayCharOnLCD
         _shortDelay
     _enableACInterrupts
     _startAC
     _startIrrigation
     _stopAllIrrigation
       _stopIrrigation
     _stopIrrigation
   _workingManual
     _clearDisplay
       _command
         _shortDelay
       _isReady
         _portDAsInput
         _portDAsOutput
         _shortDelay
       _shortDelay
     _displayLineOnLCD
       _displayCharOnLCD
         _shortDelay
     _stopIrrigateManual
       _stopIrrigation
   _workingTimer
     _clearDisplay
       _command
         _shortDelay
       _isReady
         _portDAsInput
         _portDAsOutput
         _shortDelay
       _shortDelay
     _clearEndTimes
     _command
       _shortDelay
     _displayLineOnLCD
       _displayCharOnLCD
         _shortDelay
     _startIrrigation
     _stopAllIrrigation
       _stopIrrigation
     _stopIrrigation
     _updateEndTime
       ___awmod

 _ISRL (ROOT)

 _ISRH (ROOT)
   _oneShot
     _pressedKey
       _pressedKeyAction
         _irrigateManual
           i2_startIrrigation
         i2_stopIrrigateManual
           i2_stopIrrigation
       i2_determinePressedRow
         i2_turnOnAllRows
       i2_getKeyCode
     i2_delay
   _resetOneShot
     i2_delay
   i2_groundAllRows

 Address spaces:
Name               Size   Autos  Total    Cost      Usage
BIGRAM             CFF      0       0      31        0.0%
EEDATA             400      0       0       0        0.0%
BITBANK12          100      0       0      29        0.0%
BANK12             100      0       0      30        0.0%
BITBANK11          100      0       0      27        0.0%
BANK11             100      0       0      28        0.0%
BITBANK10          100      0       0      25        0.0%
BANK10             100      0       0      26        0.0%
BITBANK9           100      0       0      23        0.0%
BANK9              100      0       0      24        0.0%
BITBANK8           100      0       0      21        0.0%
BANK8              100      0       0      22        0.0%
BITBANK7           100      0       0      18        0.0%
BANK7              100      0       0      19        0.0%
BITBANK6           100      0       0      16        0.0%
BANK6              100      0       0      17        0.0%
BITBANK5           100      0       0      14        0.0%
BANK5              100      0       0      15        0.0%
BITBANK4           100      0       0      12        0.0%
BANK4              100      0       0      13        0.0%
BITBANK3           100      0       0      10        0.0%
BANK3              100      0       0      11        0.0%
BITBANK2           100      0       0       8        0.0%
BANK2              100      0       0       9        0.0%
BITBANK1           100      0       0       6        0.0%
BANK1              100     17      54       7       32.8%
BITBANK0            A0      0       0       4        0.0%
BANK0               A0     10      A0       5      100.0%
BITCOMRAM           5E      0       0       0        0.0%
COMRAM              5E     22      43       1       71.3%
BITSFR_3             0      0       0      40        0.0%
SFR_3                0      0       0      40        0.0%
BITSFR_2             0      0       0      40        0.0%
SFR_2                0      0       0      40        0.0%
BITSFR_1             0      0       0      40        0.0%
SFR_1                0      0       0      40        0.0%
BITSFR               0      0       0      40        0.0%
SFR                  0      0       0      40        0.0%
STACK                0      0       0       2        0.0%
NULL                 0      0       0       0        0.0%
ABS                  0      0     137      20        0.0%
DATA                 0      0     137       3        0.0%
CODE                 0      0       0       0        0.0%


Microchip Technology PIC18 Macro Assembler V1.36 build -262312587 
Symbol Table                                                                                   Sat May  7 18:17:33 2016

          __end_ofi2_startIrrigation 2948                 ??_stopIrrigateManual 00ED  
       __size_of_disableACInterrupts 0014                      shortDelay@L1REG 00EC  
       __size_of_manualConfiguration 0108            __size_ofi2_stopIrrigation 0026  
                                 bsr 000FE0               i2determinePressedRow@i 0001  
                _humidityZnValuesInt 0072                    workingAutomatic@i 00FB  
                                l301 2668                                  l314 298C  
                                l351 0D9A                                  l513 19CC  
                                l506 198C                                  l523 1A48  
                                l518 1A0A                                  l480 28BC  
                                l655 2836                                  l663 280C  
                                l657 283A                                  l665 2810  
                                l690 2740                                  l658 283E  
                                l666 2814                                  l687 273E  
                                l939 1CAA                    ??_startIrrigation 00EC  
                       ___awmod@sign 00F1                                  prod 000FF3  
                                wreg 000FE8                       _irrigateManual 277A  
                       __CFG_LVP$OFF 000000                         __CFG_WDT$OFF 000000  
                               l5000 288E                                 l5010 28A4  
                     ?_updateEndTime 00F2                                 l5040 257A  
                               l5032 2536                                 l5200 17DE  
                               l5122 1244                                 l5114 11D4  
                               l5106 113A                                 l5036 2570  
                               l5212 225A                                 l5046 259A  
                               l5222 22DE                                 l5142 25D8  
                               l5134 25AE                                 l5310 1434  
                               l5048 259E                                 l5216 229A  
                               l5064 271A                                 l5072 2728  
                               l5152 2602                                 l5128 12A4  
                               l5304 1400                                 l5320 146C  
                               l5066 271E                                 l5250 1EEE  
                               l5146 25E2                                 l5138 25B8  
                               l5322 1472                                 l4620 19FC  
                               l4612 19EC                                 l4604 19DC  
                               l5404 21F0                                 l5172 1734  
                               l5068 2722                                 l5244 1EDE  
                               l5316 1466                                 l5190 17A0  
                               l5166 16FA                                 l5078 2842  
                               l5246 1EE4                                 l5262 1F80  
                               l5342 150E                                 l5326 147C  
                               l4712 1FA6                                 l4704 1F9E  
                               l5256 1F72                                 l5360 154A  
                               l5352 1538                                 l4810 28B6  
                               l4562 1986                                 l4722 1FAE  
                               l5514 0F96                                 l5530 1016  
                               l5450 0E28                                 l5434 0DAC  
                               l5426 0D72                                 l5186 1782  
                               l5266 1F8C                                 l5258 1F7A  
                               l5346 1518                                 l5282 133E  
                               l5274 1306                                 l4812 28C2  
                               l4652 1A3A                                 l4644 1A2A  
                               l4636 1A1A                                 l4580 19AC  
                               l4572 199C                                 l4740 1FE0  
                               l4732 1FD8                                 l4716 1FAA  
                               l4708 1FA2                                 l4724 1FCA  
                               l4820 269C                                 l4900 1BEC  
                               l5196 17C0                                 l5372 27D2  
                               l5356 153E                                 l4806 2AAA  
                               l4558 197C                                 l4822 26A0  
                               l5462 0E76                                 l5286 1348  
                               l4760 2012                                 l4752 200A  
                               l4736 1FDC                                 l4728 1FD4  
                               l4824 26A4                                 l4816 2694  
                               l5528 0FFC                                 l4912 1C5E  
                               l4904 1C00                                 l5368 27C4  
                               l4770 201A                                 l4746 1FE4  
                               l4818 2698                                 l4826 26AA  
                               l5562 1D94                                 l5546 1D14  
                               l5482 0ED6                                 l5466 0E84  
                               l4922 1CB4                                 l4914 1C8E  
                               l4906 1C0E                                 l4852 2994  
                               l4684 1A78                                 l4676 1A68  
                               l4668 1A58                                 l4588 19BC  
                               l4780 2044                                 l4764 2016  
                               l4756 200E                                 l4772 2036  
                               l4748 2000                                 l4828 26C6  
                               l5388 2192                                 l5556 1D66  
                               l5548 1D2C                                 l4940 22FE  
                               l4916 1C9C                                 l4908 1C3E  
                               l5652 1E6E                                 l5660 1E80  
                               l4694 1A86                                 l5566 1DBC  
                               l4950 232E                                 l5494 0F30  
                               l5662 1E96                                 l5654 1E74  
                               l5670 1EA8                                 l4696 1AA2  
                               l4784 2048                                 l4776 2040  
                               l5568 1DD2                                 l4952 2334  
                               l4960 2366                                 l4944 230E  
                               l5496 0F3C                                 l4928 1CD0  
                               l4872 2818                                 l5664 1E9C  
                               l5656 1E7A                                 l5648 1E66  
                               l4794 2050                                 l5666 1EA2  
                               l4972 2660                                 l4788 204C  
                               l4796 206A                                 l4964 237A  
                               l4956 2358                                 l4948 2322  
                               l4974 266C                                 l4982 238C  
                               l4976 2678                                 l4978 2684  
                               l4986 23CE                                 STR_1 0D11  
                               STR_2 0D32                                 STR_3 0D01  
                               STR_4 0D20                                 STR_5 0D2C  
                               _LATA 000F89                                 _LATB 000F8A  
                               _LATC 000F8B                                 u5441 0F4C  
                               u4780 23C6                                 _ISRH 0008  
                               u4787 23BC                                 u4971 16D6  
                               _ISRL 0018                                 u4991 1710  
                               _TMR0 000FD6                                 _main 1DE6  
                       ___ftpack@arg 00EC                         ___ftpack@exp 00EF  
                               fsr0h 000FEA                                 fsr1h 000FE2  
                               indf0 000FEF                                 fsr0l 000FE9  
                               fsr2h 000FDA                                 indf1 000FE7  
                               fsr1l 000FE1                                 indf2 000FDF  
                               fsr2l 000FD9                                 btemp 0044  
                               pclat 000FFA                   _clearUnConfigTimes 2530  
                               prodh 000FF4                                 prodl 000FF3  
                    __end_ofi2_delay 29F2                                 start 00A6  
              displayLineOnLCD@array 00EE                        __CFG_MCLRE$ON 000000  
                       ___ftmul@cntr 0147                         ___param_bank 000010  
                       ___ftmul@sign 0148                 __end_of_clearDisplay 2AD8  
                     _columnSelected 003C                        workingTimer@i 0141  
                      workingTimer@j 013D                  ?_clearUnConfigTimes 0001  
                    _irrigateTimeZn1 002C                      _irrigateTimeZn2 002F  
                    _irrigateTimeZn3 0032                                ?_ISRH 0001  
                              ?_ISRL 0001                     __end_of_LCDSetup 28FC  
                     longDelay@L1REG 00EC                       longDelay@L2REG 00ED  
                     longDelay@L3REG 00EE                                ?_main 0001  
                              _ADRES 000FC3                      __end_of___awmod 2384  
                              _CMCON 000FB4                      __end_of___ftmul 181E  
                              _T0CON 000FD5                                i2l513 1AFA  
                              i2l506 1ABA                                i2l442 1872  
                              i2l523 1B76                                i2l518 1B38  
                              i2l480 29E0                                i2l448 193A  
                              i2l449 1936                                i2l572 15B2  
                              i2l655 2926                                i2l663 2900  
                              i2l576 15F6                                i2l568 156E  
                              i2l657 292A                                i2l665 2904  
                              i2l658 292E                                i2l666 2908  
                              _PORTA 000F80                                _PORTB 000F81  
                              _PORTC 000F82                                _PORTD 000F83  
             __end_of_irrigateManual 27AA                __size_ofi2_getKeyCode 00D8  
                              _TRISA 000F92                                _TRISB 000F93  
                              _TRISC 000F94                                _TRISD 000F95  
                   ?i2_groundAllRows 0001                    _convertCharsToInt 2748  
                    __end_of_command 2A66                      __end_of_isReady 299E  
                 ?_convertCharsToInt 00EC                                _delay 28AE  
               ??_clearUnConfigTimes 00EC                      __end_of_readKey 26D2  
                    __end_of_oneShot 29D6                        ___ftpack@sign 00F0  
                              tablat 000FF5                                plusw1 000FE3  
                              plusw2 000FDB                      __end_of_startAC 2748  
                              status 000FD8                  ??_convertCharsToInt 00EE  
        __end_of_determinePressedRow 1AA8                     _pressedKeyAction 1554  
                 _enableACInterrupts 2A0A                         __end_of_ISRH 1976  
                       __end_of_ISRL 00A6           __size_of_stopAllIrrigation 0014  
              __end_of_clearEndTimes 2608                      __initialization 24AC  
             clearUnConfigTimes@zone 00EE           __size_ofi2_startIrrigation 0026  
                       __end_of_main 1EBE                         i2_getKeyCode 206E  
                ?_enableACInterrupts 0001                               ??_ISRH 0004  
                             ??_ISRL 0012                  _statusConfiguration 0043  
              __size_of_workingTimer 026A                               ??_main 00FC  
          __end_of_convertCharsToInt 277A                        __activetblptr 000002  
            __size_of_resetReadInput 001E                      ?_irrigateManual 0001  
clearUnConfigTimes@numberIrrigations 00F0                         _zoneEndTimes 0078  
     __size_ofi2_determinePressedRow 012A        __end_ofi2_determinePressedRow 1BD2  
                    ??_updateEndTime 00F8                               ?_delay 0001  
                             _ADCON0 000FC2                               _ADCON1 000FC1  
                             _ADCON2 000FC0                     _workingAutomatic 1EBE  
            __size_of_stopIrrigation 002A                     __end_of___ftpack 1CDE  
                   __end_of___lbtoft 2806              ?_automaticConfiguration 0001  
               ??_enableACInterrupts 00EC                            ??i2_delay 0001  
                             i2l3212 290C                               i2l3206 2932  
                             i2l3240 27A4                               i2l3232 2788  
                             i2l3236 2796                               i2l3340 1586  
                             i2l3332 1558                               i2l3360 15E0  
                             i2l3344 1596                               i2l3354 15CA  
                             i2l3346 159C                               i2l3530 1B2A  
                             i2l3522 1B1A                               i2l3514 1B0A  
                             i2l3380 1636                               i2l3372 161E  
                             i2l3604 1BB4                               i2l4500 18D0  
                             i2l3390 165A                               i2l3374 1624  
                             i2l3358 15DA                               i2l3606 1BCE  
                             i2l3622 207E                               i2l3614 2076  
                             i2l3384 1646                               i2l3376 162A  
                             i2l3368 160E                               i2l3392 1660  
                             i2l3472 1AB4                               i2l3704 2128  
                             i2l3632 2086                               i2l3378 1630  
                             i2l3562 1B68                               i2l3554 1B58  
                             i2l3546 1B48                               i2l3490 1ADA  
                             i2l3482 1ACA                               i2l3650 20B8  
                             i2l3642 20B0                               i2l3706 2142  
                             i2l3626 2082                               i2l3618 207A  
                             i2l3634 20A2                               i2l4506 18E4  
                             i2l4514 192A                               i2l3468 1AAC  
                             i2l3900 261A                               i2l3670 20EA  
                             i2l3662 20E2                               i2l3646 20B4  
                             i2l3638 20AC                               i2l3902 2620  
                             i2l3680 20F2                               i2l3656 20BC  
                             i2l3904 263C                               i2l3594 1BA6  
                             i2l3586 1B96                               i2l3578 1B86  
                             i2l3498 1AEA                               i2l3690 211C  
                             i2l3674 20EE                               i2l3666 20E6  
                             i2l3682 210E                               i2l3658 20D8  
                             i2l4458 1856                               i2l4468 186C  
                             i2l3694 2120                               i2l3686 2118  
                             i2l3698 2124                               i2l3892 260A  
                             i2l3894 260E                               i2l3982 29DC  
                             i2l3896 2612                               i2l3984 29E4  
                             i2l3898 2616                     __end_of___lwtoft 2884  
                             _OSCCON 000FD3         __end_ofi2_stopIrrigateManual 2A3A  
                             _TMR0IE 007F95                               _TMR0IF 007F92  
timerConfiguration@numberIrrigations 0145               __size_of_turnOnAllRows 000A  
                       _zoneSelected 003A                     __end_of_getInput 28AE  
                       _workingTimer 12EA                               ___ftge 221A  
           clearEndTimes@zoneEndTime 00EC                            ??___awmod 00F0  
                          ??___ftmul 00F8                     i2_stopIrrigation 28FC  
                       i2delay@L1REG 0002                         i2delay@L2REG 0003  
                      _manualMessage 0126                               clear_0 24BC  
                    ___awmod@divisor 00EE                      ___awmod@counter 00F0  
                          ??_command 00ED                            ??_isReady 00ED  
                  ?_displayCharOnLCD 0001                ___ftmul@f3_as_product 0144  
                          ??_readKey 00ED                 _irrigateManualStatus 003E  
                       __pdataCOMRAM 0023                            ??_oneShot 0004  
                 ??_displayCharOnLCD 00ED                         __mediumconst 0000  
                             tblptrh 000FF7                               tblptrl 000FF6  
                             tblptru 000FF8                            ??_startAC 00EC  
     __end_of_automaticConfiguration 221A           __end_of_timerConfiguration 1026  
                _disableACInterrupts 2A90                  _manualConfiguration 1CDE  
                         __accesstop 0060              __end_of__initialization 2522  
                    __CFG_PBADEN$OFF 000000                            ?_LCDSetup 0001  
                         ___ftge@ff1 0149                           ___ftge@ff2 014C  
              __size_of_clearDisplay 0010                        ___rparam_used 000001  
                         ___lbtoft@c 00F7                           ___ftmul@f1 013D  
                         ___ftmul@f2 0140                      _startIrrigation 2830  
                  ?_displayLineOnLCD 00EE                       __pcstackCOMRAM 0001  
               ?_disableACInterrupts 0001                         __pidataBANK0 2420  
                       __pidataBANK1 26D2                        __end_of_delay 28D6  
               ?_manualConfiguration 0001                   ??_displayLineOnLCD 00F1  
              __end_of_enableIntRBIE 2AF6                           ___lwtoft@c 00F4  
         __size_of_convertCharsToInt 0032                        _turnOnAllRows 2AD8  
              __end_of_portDAsOutput 2B1A               __size_of_workingManual 002E  
      automaticConfiguration@counter 00FA                              ??_delay 00EC  
                       _clearDisplay 2AC8                           __pbssBANK0 00FC  
           __size_ofi2_turnOnAllRows 000A                           ??_LCDSetup 00EF  
                 __size_of_readInput 001C               __size_of_groundAllRows 000A  
             updateEndTime@endTimeZn 00F2                   __size_of_longDelay 0044  
              ??_disableACInterrupts 00EC                   workingTimer@i_1225 013E  
                            ?___ftge 0149                ??_manualConfiguration 00F9  
        __size_of_stopIrrigateManual 0018                           _endTimeZn1 00A1  
                         _endTimeZn2 00A6                           _endTimeZn3 00AB  
                         _getKeyCode 1F96                            ?___ftpack 00EC  
                          ?___lbtoft 00F4                       ?_turnOnAllRows 0001  
               i2_stopIrrigateManual 2A22                            ?___lwtoft 00F4  
                     _resetReadInput 2948             __end_of_pressedKeyAction 16C0  
                          ?_getInput 0001                        ?_resetOneShot 0001  
                     _stopIrrigation 2806                    displayLineOnLCD@i 00F8  
                            i2_delay 29D6              __end_of_startIrrigation 285A  
          displayCharOnLCD@character 00ED                           _counterMIN 00E0  
                         _counterSEC 0024                              __Hparam 0000  
                      _workingManual 27AA                              __Lparam 0000  
                timerConfiguration@i 0148                      __size_of___ftge 00C8  
            __size_of_disableIntRBIE 000A                              ___awmod 22E2  
                            ___ftmul 16C0                           delay@L1REG 00ED  
                         delay@L2REG 00EE             __end_of_workingAutomatic 1F96  
                       __psmallconst 0D00                        ?_portDAsInput 0001  
                   ??_irrigateManual 0002                              _dayName 0025  
             __end_of_resetReadInput 2966                              __pcinit 24AC  
                         ??___ftpack 00F1                           ??___lbtoft 00F7  
                            __ramtop 0D00                 determinePressedRow@i 00EC  
             convertCharsToInt@units 00EE                ?i2_stopIrrigateManual 0001  
                            __ptext0 1DE6                              __ptext1 12EA  
                            __ptext2 1026                              __ptext3 25A8  
                            __ptext4 27AA                              __ptext5 29F2  
                            __ptext6 1EBE                              __ptext7 2A7C  
                            __ptext8 2806                              __ptext9 2830  
                            _command 2A50                              _isReady 2982  
                         ??___lwtoft 00F7                            _T0CONbits 000FD5  
                            _keyCode 003F                    __end_of_readInput 2982  
                      _groundAllRows 2AE2                              _readKey 2692  
                            _oneShot 29BA                     ___awmod@dividend 00EC  
                  _configAutoMessage 0132               __end_of_stopIrrigation 2830  
                  __end_of_longDelay 2692                       ??_resetOneShot 0004  
                         ??_getInput 00EF                              _startAC 2710  
        __size_of_clearUnConfigTimes 0078                       __pintcode_body 181E  
               end_of_initialization 2522                           _secondLine 2AB8  
           __end_ofi2_stopIrrigation 2922             __size_ofi2_groundAllRows 000A  
               workingTimer@zoneTime 0142                        __Lmediumconst 0000  
                            int_func 181E                       ?_workingManual 0001  
                  ??i2_turnOnAllRows 0001                              postdec1 000FE5  
                            postdec2 000FDD                              postinc0 000FEE  
                            postinc2 000FDE                          ?_getKeyCode 0001  
                     ??_portDAsInput 00EC                      ??_turnOnAllRows 00EC  
       __size_of_determinePressedRow 0132                      ?_resetReadInput 0001  
                         _shortDelay 2AA4                            _PORTBbits 000F81  
                          _PORTCbits 000F82                            _PORTDbits 000F83  
                          _PORTEbits 000F84                           _pressedKey 2608  
                     ?_groundAllRows 0001              timerConfiguration@input 0149  
                          _TRISAbits 000F92                            _TRISBbits 000F93  
                    ?_stopIrrigation 0001                            _TRISEbits 000F96  
             __size_of_clearEndTimes 0060                __end_of_updateEndTime 12EA  
              i2_determinePressedRow 1AA8          __size_of_enableACInterrupts 0018  
                     _CONVERSIONRATE 0083                  clearUnConfigTimes@i 00F1  
          __size_of_displayCharOnLCD 0016                     ?_startIrrigation 0001  
                  __size_of_LCDSetup 0026                   _timerConfiguration 0D3A  
        automaticConfiguration@input 00FB                          ___ftmul@exp 0143  
                   _automaticMessage 0117                       __end_of___ftge 22E2  
          timerConfiguration@counter 0142               ??i2_stopIrrigateManual 0002  
                ?_timerConfiguration 0001            timerConfiguration@newHour 013D  
                      __pidataCOMRAM 2A66                  start_initialization 24AC  
          __size_of_displayLineOnLCD 009C                          ?_secondLine 0001  
                __size_of_getKeyCode 00D8                 ??_timerConfiguration 00F9  
                    _offSetZoneTimes 00FF                     __CFG_OSC$IRCIO67 000000  
                    ??_workingManual 00F9                   stopIrrigation@zone 00EC  
                  ??i2_groundAllRows 0001                        _clearEndTimes 25A8  
                     _disableIntRBIE 2AF6                             ??___ftge 014F  
                       _manualZn1Val 0035                         _manualZn2Val 0036  
               __end_of_resetOneShot 29BA                         _manualZn3Val 0037  
                        __pdataBANK0 0060                          __pdataBANK1 0100  
                    ??_groundAllRows 00EC                          ?_shortDelay 0001  
                        ?_pressedKey 0001                    __size_of___ftpack 010C  
                  __size_of___lbtoft 002E          updateEndTime@irrigateTimeZn 00F6  
                        __pbssCOMRAM 0038                    ?_pressedKeyAction 0001  
                  __size_of___lwtoft 002A                _manualInactiveMessage 0091  
                      __pcstackBANK0 00EC                        __pcstackBANK1 013D  
                     _getValueStatus 003D               ?i2_determinePressedRow 0001  
                 ??_pressedKeyAction 0002             manualConfiguration@input 00FA  
                           ?i2_delay 0001                 __end_of_portDAsInput 2B1E  
                  __size_of_getInput 002A          __end_of_disableACInterrupts 2AA4  
        __end_of_manualConfiguration 1DE6               __size_of_enableIntRBIE 000A  
             __end_of_disableIntRBIE 2B00                     startAC@acChannel 00EC  
         __end_of_stopIrrigateManual 2A0A                       ?_clearEndTimes 0001  
             __size_of_portDAsOutput 0006                         _modeSelected 0040  
                          __pintcode 0008                i2startIrrigation@zone 0001  
                           ?___awmod 00EC                        ?i2_getKeyCode 0001  
                           ?___ftmul 013D                    ?_workingAutomatic 0001  
                        __pintcodelo 0018                  __size_of_secondLine 0010  
                  _hourConfiguration 00FE                   ??_workingAutomatic 0152  
                           ?_command 0001                             ?_isReady 0001  
           ??_automaticConfiguration 00F9                          __smallconst 0D00  
                           ?_readKey 0001                             ?_oneShot 0001  
                           _CASTELLO 010C                    _humidityZn1ValInt 00E9  
                           ?_startAC 0001                            _readInput 2966  
                  _humidityZn2ValInt 00EA                       __size_of_delay 0028  
                  _humidityZn3ValInt 00EB                      i2_turnOnAllRows 2B0A  
                _determinePressedRow 1976                            _longDelay 264E  
                  ?i2_stopIrrigation 0001                             _GREETING 0100  
              updateEndTime@zoneTime 00F4                     _displayCharOnLCD 2A3A  
         timerConfiguration@zoneTime 0146                             _LCDSetup 28D6  
                __size_of_shortDelay 0014                             _LATEbits 000F8D  
                 ??i2_stopIrrigation 0001                  __size_of_pressedKey 0046  
                           _IPR1bits 000F9F                             _PIE1bits 000F9D  
                    ?_disableIntRBIE 0001                             _PIR1bits 000F9E  
                      ?_workingTimer 0001                     ??_resetReadInput 00EF  
                           _RCONbits 000FD0                       ??i2_getKeyCode 0001  
                       ??_getKeyCode 00EC                 ?_determinePressedRow 0001  
                   ??_stopIrrigation 00EC                           _ADCON0bits 000FC2  
                      _enableIntRBIE 2AEC                         _irrigateTime 00FC  
                   _displayLineOnLCD 2384           __end_of_clearUnConfigTimes 25A8  
                      _portDAsOutput 2B14                           ?_readInput 0001  
                        _INTCON2bits 000FF1                            _zoneTimes 0060  
                          copy_data0 24D6                            copy_data1 24F6  
                          copy_data2 2516                           ?_longDelay 0001  
                 __end_of_getKeyCode 206E                     __size_ofi2_delay 001C  
                        _counterDAYS 0023                          _counterHOUR 00DD  
     convertCharsToInt@humidityValue 00EC                __size_of_resetOneShot 001C  
                    ??_clearEndTimes 00EC                       ??_workingTimer 00F9  
                           __Hrparam 0000                workingTimer@endTimeZn 013F  
                           __Lrparam 0000                ??_determinePressedRow 00EC  
                   __size_of___awmod 00A2                     __size_of___ftmul 015E  
                           ___ftpack 1BD2                             ___lbtoft 27D8  
              __end_of_turnOnAllRows 2AE2                       ?_enableIntRBIE 0001  
                           ___lwtoft 285A              __end_ofi2_turnOnAllRows 2B14  
    __size_of_automaticConfiguration 00D4                     __size_of_command 0016  
                   __size_of_isReady 001C              convertCharsToInt@dozens 00EF  
                   __size_of_readKey 0040                       ?_portDAsOutput 0001  
              __size_of_portDAsInput 0004                     __size_of_oneShot 001C  
                _manualActiveMessage 009A           __end_of_enableACInterrupts 2A22  
                           _getInput 2884                        ?_clearDisplay 0001  
                           __ptext10 2710                             __ptext11 2A0A  
                           __ptext20 2530                             __ptext12 2A90  
                           __ptext21 22E2                             __ptext13 285A  
                           __ptext30 2AD8                             __ptext22 1CDE  
                           __ptext14 27D8                             __ptext31 28AE  
                           __ptext23 2146                             __ptext15 16C0  
                           __ptext40 264E                             __ptext32 2AE2  
                           __ptext24 2884                             __ptext16 1BD2  
                           __ptext41 2982                             __ptext33 2AEC  
                           __ptext25 2948                             __ptext17 221A  
                           __ptext50 29BA                             __ptext42 2B14  
                           __ptext34 2384                             __ptext26 2966  
                           __ptext18 0D3A                             __ptext51 29D6  
                           __ptext43 2B1A                             __ptext35 2A3A  
                           __ptext27 2692                             __ptext19 2AB8  
                           __ptext60 2922                             __ptext52 2608  
                           __ptext44 2A50                             __ptext36 2AF6  
                           __ptext28 1F96                             __ptext53 206E  
                           __ptext45 2AA4                             __ptext37 2748  
                           __ptext29 1976                             __ptext54 1AA8  
                           __ptext38 2AC8                             __ptext55 2B0A  
                           __ptext39 28D6              __size_of_irrigateManual 0030  
                           __ptext56 1554                             __ptext48 2B00  
                           __ptext57 2A22                             __ptext49 299E  
                           __ptext58 28FC                             __ptext59 277A  
                       _resetOneShot 299E                     __size_of_startAC 0038  
                       ??_secondLine 00EE                      i2_groundAllRows 2B00  
                      __size_of_ISRH 196E                        __size_of_ISRL 008E  
                        _oneShotFlag 0041                        __size_of_main 00D8  
                           _time1Zn1 00B0                             _time1Zn2 00B5  
                           _time1Zn3 00BA                             _time2Zn1 00BF  
                           _time2Zn2 00C4                             _time2Zn3 00C9  
                           _time3Zn1 00CE                             _time3Zn2 00D3  
                           _time3Zn3 00D8                  startIrrigation@zone 00EC  
                         _CVRCONbits 000FB5                             int$flags 0044  
           __size_of_startIrrigation 002A                     _humidityZnValInt 0038  
                           command@x 00ED               __size_of_updateEndTime 02C4  
                       _portDAsInput 2B1A                         ??_shortDelay 00EC  
                       ??_pressedKey 0003                   __end_of_secondLine 2AC8  
      __size_ofi2_stopIrrigateManual 0018              ??i2_determinePressedRow 0001  
                         _INTCONbits 000FF2                       ??_clearDisplay 00EE  
        displayLineOnLCD@sizeOfArray 00F0                          ??_readInput 00EF  
               __end_ofi2_getKeyCode 2146                          ??_longDelay 00EC  
                           intlevel1 0000                             intlevel2 0000  
        __size_of_timerConfiguration 02EC               _automaticConfiguration 2146  
                       _timerMessage 0086                   __end_of_shortDelay 2AB8  
              __end_of_workingManual 27D8            __size_of_pressedKeyAction 016C  
                 __end_of_pressedKey 264E             timerConfiguration@F16264 007E  
            pressedKeyAction@keyCode 0002                    _stopAllIrrigation 2A7C  
                  i2_startIrrigation 2922                      ??_enableIntRBIE 00EC  
                 ?_stopAllIrrigation 0001                   ?i2_startIrrigation 0001  
           __end_of_displayCharOnLCD 2A50                       clearEndTimes@i 00EE  
                     clearEndTimes@j 00EF                __end_of_groundAllRows 2AEC  
                 _stopIrrigateManual 29F2                      ??_portDAsOutput 00EC  
                   ?i2_turnOnAllRows 0001              __end_ofi2_groundAllRows 2B0A  
                     _humidityZn1Val 0029                       _humidityZn2Val 00E3  
                     _humidityZn3Val 00E6                  ??_stopAllIrrigation 00ED  
               __end_of_workingTimer 1554                  ??i2_startIrrigation 0001  
                ?_stopIrrigateManual 0001            __size_of_workingAutomatic 00D8  
                      _updateEndTime 1026                     ??_disableIntRBIE 00EC  
                        _rowSelected 0042       timerConfiguration@counter_1212 0143  
     timerConfiguration@counter_1213 0144                 i2stopIrrigation@zone 0001  
          __end_of_stopAllIrrigation 2A90             __end_of_displayLineOnLCD 2420  
